
sh.x:     file format elf32-littlearm

Disassembly of section .text:

00000000 <_start>:
       0:	e3a0b000 	mov	fp, #0	; 0x0
       4:	e59d0000 	ldr	r0, [sp]
       8:	e59d1004 	ldr	r1, [sp, #4]
       c:	e59d2008 	ldr	r2, [sp, #8]
      10:	ebfffffe 	bl	0 <_start>
      14:	ebfffffe 	bl	0 <_start>

00000018 <main>:
      18:	e1a0c00d 	mov	ip, sp
      1c:	e92dd8f0 	stmdb	sp!, {r4, r5, r6, r7, fp, ip, lr, pc}
      20:	e24cb004 	sub	fp, ip, #4	; 0x4
      24:	e24dd08c 	sub	sp, sp, #140	; 0x8c
      28:	e1a05000 	mov	r5, r0
      2c:	e1a07001 	mov	r7, r1
      30:	ebfffffe 	bl	0 <_start>
      34:	e59f0158 	ldr	r0, [pc, #158]	; 194 <main+0x17c>
      38:	ebfffffe 	bl	0 <_start>
      3c:	e3550001 	cmp	r5, #1	; 0x1
      40:	e3a06000 	mov	r6, #0	; 0x0
      44:	da00001b 	ble	74 <main+0x5c>
      48:	e5974004 	ldr	r4, [r7, #4]
      4c:	e59f1144 	ldr	r1, [pc, #144]	; 198 <main+0x180>
      50:	e1a00004 	mov	r0, r4
      54:	ebfffffe 	bl	0 <_start>
      58:	e1500006 	cmp	r0, r6
      5c:	0a00004c 	beq	138 <main+0x120>
      60:	e59f1134 	ldr	r1, [pc, #134]	; 19c <main+0x184>
      64:	e1a00004 	mov	r0, r4
      68:	ebfffffe 	bl	0 <_start>
      6c:	e3500000 	cmp	r0, #0	; 0x0
      70:	0a000047 	beq	124 <main+0x10c>
      74:	e59f0124 	ldr	r0, [pc, #124]	; 1a0 <main+0x188>
      78:	e59f1124 	ldr	r1, [pc, #124]	; 1a4 <main+0x18c>
      7c:	ebfffffe 	bl	0 <_start>
      80:	e59f3120 	ldr	r3, [pc, #120]	; 1a8 <main+0x190>
      84:	e5930000 	ldr	r0, [r3]
      88:	ebfffffe 	bl	0 <_start>
      8c:	e59f1118 	ldr	r1, [pc, #118]	; 1ac <main+0x194>
      90:	e3a00002 	mov	r0, #2	; 0x2
      94:	ebfffffe 	bl	0 <_start>
      98:	e59f1110 	ldr	r1, [pc, #110]	; 1b0 <main+0x198>
      9c:	e3a00003 	mov	r0, #3	; 0x3
      a0:	ebfffffe 	bl	0 <_start>
      a4:	e24b40a8 	sub	r4, fp, #168	; 0xa8
      a8:	e3a01000 	mov	r1, #0	; 0x0
      ac:	e3a0208c 	mov	r2, #140	; 0x8c
      b0:	e1a00004 	mov	r0, r4
      b4:	ebfffffe 	bl	0 <_start>
      b8:	e59f30f4 	ldr	r3, [pc, #f4]	; 1b4 <main+0x19c>
      bc:	e3a0c201 	mov	ip, #268435456	; 0x10000000
      c0:	e1a01004 	mov	r1, r4
      c4:	e3a02000 	mov	r2, #0	; 0x0
      c8:	e3a00011 	mov	r0, #17	; 0x11
      cc:	e50b30a8 	str	r3, [fp, -#168]
      d0:	e50bc024 	str	ip, [fp, -#36]
      d4:	ebfffffe 	bl	0 <_start>
      d8:	e59f00d8 	ldr	r0, [pc, #d8]	; 1b8 <main+0x1a0>
      dc:	ebfffffe 	bl	0 <_start>
      e0:	e3500000 	cmp	r0, #0	; 0x0
      e4:	0a000044 	beq	118 <main+0x100>
      e8:	e59f00cc 	ldr	r0, [pc, #cc]	; 1bc <main+0x1a4>
      ec:	ebfffffe 	bl	0 <_start>
      f0:	e3560000 	cmp	r6, #0	; 0x0
      f4:	0a00003f 	beq	104 <main+0xec>
      f8:	e5970004 	ldr	r0, [r7, #4]
      fc:	eb000073 	bl	1d4 <readfile>
     100:	ea000041 	b	10c <main+0xf4>
     104:	e1a00006 	mov	r0, r6
     108:	eb000073 	bl	1d4 <readfile>
     10c:	e59f30ac 	ldr	r3, [pc, #ac]	; 1c0 <main+0x1a8>
     110:	e5930000 	ldr	r0, [r3]
     114:	ebfffffe 	bl	0 <_start>
     118:	e59f00a4 	ldr	r0, [pc, #a4]	; 1c4 <main+0x1ac>
     11c:	ebfffffe 	bl	0 <_start>
     120:	ea000038 	b	e8 <main+0xd0>
     124:	e1a01004 	mov	r1, r4
     128:	e59f0098 	ldr	r0, [pc, #98]	; 1c8 <main+0x1b0>
     12c:	e3a06001 	mov	r6, #1	; 0x1
     130:	ebfffffe 	bl	0 <_start>
     134:	ea00001e 	b	80 <main+0x68>
     138:	e59f308c 	ldr	r3, [pc, #8c]	; 1cc <main+0x1b4>
     13c:	e5c36000 	strb	r6, [r3]
     140:	e2866002 	add	r6, r6, #2	; 0x2
     144:	e1560005 	cmp	r6, r5
     148:	aa00005e 	bge	180 <main+0x168>
     14c:	e7971106 	ldr	r1, [r7, r6, lsl #2]
     150:	e2864001 	add	r4, r6, #1	; 0x1
     154:	e3a02c01 	mov	r2, #256	; 0x100
     158:	e59f006c 	ldr	r0, [pc, #6c]	; 1cc <main+0x1b4>
     15c:	ebfffffe 	bl	0 <_start>
     160:	e1540005 	cmp	r4, r5
     164:	e1a06004 	mov	r6, r4
     168:	e59f005c 	ldr	r0, [pc, #5c]	; 1cc <main+0x1b4>
     16c:	e59f105c 	ldr	r1, [pc, #5c]	; 1d0 <main+0x1b8>
     170:	e3a02c01 	mov	r2, #256	; 0x100
     174:	aa00004f 	bge	144 <main+0x12c>
     178:	ebfffffe 	bl	0 <_start>
     17c:	ea00004f 	b	144 <main+0x12c>
     180:	e59f0044 	ldr	r0, [pc, #44]	; 1cc <main+0x1b4>
     184:	eb000109 	bl	42c <command>
     188:	e59f3030 	ldr	r3, [pc, #30]	; 1c0 <main+0x1a8>
     18c:	e5930000 	ldr	r0, [r3]
     190:	ebfffffe 	bl	0 <_start>
     194:	00000004 	andeq	r0, r0, r4
     198:	0000000c 	andeq	r0, r0, ip
     19c:	00000010 	andeq	r0, r0, r0, lsl r0
     1a0:	00000014 	andeq	r0, r0, r4, lsl r0
     1a4:	00001738 	andeq	r1, r0, r8, lsr r7
     1a8:	00000000 	andeq	r0, r0, r0
     1ac:	00000d90 	muleq	r0, r0, sp
     1b0:	00000de8 	andeq	r0, r0, r8, ror #27
     1b4:	00000e40 	andeq	r0, r0, r0, asr #28
     1b8:	00000038 	andeq	r0, r0, r8, lsr r0
     1bc:	00000040 	andeq	r0, r0, r0, asr #32
     1c0:	00000000 	andeq	r0, r0, r0
     1c4:	0000004c 	andeq	r0, r0, ip, asr #32
     1c8:	00000064 	andeq	r0, r0, r4, rrx
     1cc:	00000000 	andeq	r0, r0, r0
     1d0:	00000084 	andeq	r0, r0, r4, lsl #1

000001d4 <readfile>:
     1d4:	e1a0c00d 	mov	ip, sp
     1d8:	e92ddff0 	stmdb	sp!, {r4, r5, r6, r7, r8, r9, sl, fp, ip, lr, pc}
     1dc:	e59f3218 	ldr	r3, [pc, #218]	; 3fc <readfile+0x228>
     1e0:	e5932000 	ldr	r2, [r3]
     1e4:	e3520009 	cmp	r2, #9	; 0x9
     1e8:	e24cb004 	sub	fp, ip, #4	; 0x4
     1ec:	e1a04000 	mov	r4, r0
     1f0:	da000080 	ble	208 <readfile+0x34>
     1f4:	e59f3204 	ldr	r3, [pc, #204]	; 400 <readfile+0x22c>
     1f8:	e59f1204 	ldr	r1, [pc, #204]	; 404 <readfile+0x230>
     1fc:	e5930000 	ldr	r0, [r3]
     200:	e91b6ff0 	ldmdb	fp, {r4, r5, r6, r7, r8, r9, sl, fp, sp, lr}
     204:	eafffffe 	b	0 <_start>
     208:	e59f31f8 	ldr	r3, [pc, #1f8]	; 408 <readfile+0x234>
     20c:	e3540000 	cmp	r4, #0	; 0x0
     210:	e5936000 	ldr	r6, [r3]
     214:	0a000089 	beq	22c <readfile+0x58>
     218:	e59f11ec 	ldr	r1, [pc, #1ec]	; 40c <readfile+0x238>
     21c:	ebfffffe 	bl	0 <_start>
     220:	e1a06000 	mov	r6, r0
     224:	e3560000 	cmp	r6, #0	; 0x0
     228:	0a0000f8 	beq	3e8 <readfile+0x214>
     22c:	e59f31c8 	ldr	r3, [pc, #1c8]	; 3fc <readfile+0x228>
     230:	e59f11d8 	ldr	r1, [pc, #1d8]	; 410 <readfile+0x23c>
     234:	e5932000 	ldr	r2, [r3]
     238:	e7816102 	str	r6, [r1, r2, lsl #2]
     23c:	e2822001 	add	r2, r2, #1	; 0x1
     240:	e5832000 	str	r2, [r3]
     244:	e1a00006 	mov	r0, r6
     248:	ebfffffe 	bl	0 <_start>
     24c:	ebfffffe 	bl	0 <_start>
     250:	e59fa1b0 	ldr	sl, [pc, #1b0]	; 408 <readfile+0x234>
     254:	e59f81b8 	ldr	r8, [pc, #1b8]	; 414 <readfile+0x240>
     258:	e1a09000 	mov	r9, r0
     25c:	e59f31b4 	ldr	r3, [pc, #1b4]	; 418 <readfile+0x244>
     260:	e5930000 	ldr	r0, [r3]
     264:	ebfffffe 	bl	0 <_start>
     268:	e59a3000 	ldr	r3, [sl]
     26c:	e1560003 	cmp	r6, r3
     270:	0a0000f6 	beq	3e0 <readfile+0x20c>
     274:	e59f31a0 	ldr	r3, [pc, #1a0]	; 41c <readfile+0x248>
     278:	e5931000 	ldr	r1, [r3]
     27c:	e3590000 	cmp	r9, #0	; 0x0
     280:	13a02000 	movne	r2, #0	; 0x0
     284:	03a02001 	moveq	r2, #1	; 0x1
     288:	e3510000 	cmp	r1, #0	; 0x0
     28c:	03a02000 	moveq	r2, #0	; 0x0
     290:	12022001 	andne	r2, r2, #1	; 0x1
     294:	e3520000 	cmp	r2, #0	; 0x0
     298:	0a0000ab 	beq	2b4 <readfile+0xe0>
     29c:	e59a3000 	ldr	r3, [sl]
     2a0:	e1560003 	cmp	r6, r3
     2a4:	0a0000ab 	beq	2b4 <readfile+0xe0>
     2a8:	e1a00006 	mov	r0, r6
     2ac:	ebfffffe 	bl	0 <_start>
     2b0:	ea0000ee 	b	3c0 <readfile+0x1ec>
     2b4:	e1a00008 	mov	r0, r8
     2b8:	e3a010ff 	mov	r1, #255	; 0xff
     2bc:	e1a02006 	mov	r2, r6
     2c0:	ebfffffe 	bl	0 <_start>
     2c4:	e3500000 	cmp	r0, #0	; 0x0
     2c8:	0a0000d2 	beq	350 <readfile+0x17c>
     2cc:	e1a00008 	mov	r0, r8
     2d0:	ebfffffe 	bl	0 <_start>
     2d4:	e1a07008 	mov	r7, r8
     2d8:	e1a04000 	mov	r4, r0
     2dc:	e3540000 	cmp	r4, #0	; 0x0
     2e0:	e2445001 	sub	r5, r4, #1	; 0x1
     2e4:	da0000bd 	ble	2fc <readfile+0x128>
     2e8:	e7d70005 	ldrb	r0, [r7, r5]
     2ec:	ebfffffe 	bl	0 <_start>
     2f0:	e3500000 	cmp	r0, #0	; 0x0
     2f4:	11a04005 	movne	r4, r5
     2f8:	1a0000b5 	bne	2dc <readfile+0x108>
     2fc:	e59a3000 	ldr	r3, [sl]
     300:	e3a02000 	mov	r2, #0	; 0x0
     304:	e1560003 	cmp	r6, r3
     308:	e7c82004 	strb	r2, [r8, r4]
     30c:	0a0000c5 	beq	31c <readfile+0x148>
     310:	e59f0108 	ldr	r0, [pc, #108]	; 420 <readfile+0x24c>
     314:	e59f10f8 	ldr	r1, [pc, #f8]	; 414 <readfile+0x240>
     318:	ebfffffe 	bl	0 <_start>
     31c:	e59f20f0 	ldr	r2, [pc, #f0]	; 414 <readfile+0x240>
     320:	e5d23000 	ldrb	r3, [r2]
     324:	e3530020 	cmp	r3, #32	; 0x20
     328:	0a0000ce 	beq	340 <readfile+0x16c>
     32c:	e3530023 	cmp	r3, #35	; 0x23
     330:	0a000095 	beq	25c <readfile+0x88>
     334:	e59f00d8 	ldr	r0, [pc, #d8]	; 414 <readfile+0x240>
     338:	eb000109 	bl	42c <command>
     33c:	ea000095 	b	25c <readfile+0x88>
     340:	e5f23001 	ldrb	r3, [r2, #1]!
     344:	e3530020 	cmp	r3, #32	; 0x20
     348:	1a0000c9 	bne	32c <readfile+0x158>
     34c:	ea0000ce 	b	340 <readfile+0x16c>
     350:	e1a00006 	mov	r0, r6
     354:	ebfffffe 	bl	0 <_start>
     358:	e3500000 	cmp	r0, #0	; 0x0
     35c:	0a0000da 	beq	370 <readfile+0x19c>
     360:	ebfffffe 	bl	0 <_start>
     364:	e5903000 	ldr	r3, [r0]
     368:	e3530004 	cmp	r3, #4	; 0x4
     36c:	0a0000f3 	beq	3d4 <readfile+0x200>
     370:	e1a00006 	mov	r0, r6
     374:	ebfffffe 	bl	0 <_start>
     378:	e3500000 	cmp	r0, #0	; 0x0
     37c:	0a0000e4 	beq	398 <readfile+0x1c4>
     380:	e59f009c 	ldr	r0, [pc, #9c]	; 424 <readfile+0x250>
     384:	ebfffffe 	bl	0 <_start>
     388:	e59f3078 	ldr	r3, [pc, #78]	; 408 <readfile+0x234>
     38c:	e5932000 	ldr	r2, [r3]
     390:	e1560002 	cmp	r6, r2
     394:	0a0000fb 	beq	3f4 <readfile+0x220>
     398:	e1a00006 	mov	r0, r6
     39c:	ebfffffe 	bl	0 <_start>
     3a0:	e59f3060 	ldr	r3, [pc, #60]	; 408 <readfile+0x234>
     3a4:	e5932000 	ldr	r2, [r3]
     3a8:	e1560002 	cmp	r6, r2
     3ac:	0a0000ee 	beq	3c0 <readfile+0x1ec>
     3b0:	e1a00006 	mov	r0, r6
     3b4:	ebfffffe 	bl	0 <_start>
     3b8:	e59f0068 	ldr	r0, [pc, #68]	; 428 <readfile+0x254>
     3bc:	ebfffffe 	bl	0 <_start>
     3c0:	e59f2034 	ldr	r2, [pc, #34]	; 3fc <readfile+0x228>
     3c4:	e5923000 	ldr	r3, [r2]
     3c8:	e2433001 	sub	r3, r3, #1	; 0x1
     3cc:	e5823000 	str	r3, [r2]
     3d0:	e91baff0 	ldmdb	fp, {r4, r5, r6, r7, r8, r9, sl, fp, sp, pc}
     3d4:	e1a00006 	mov	r0, r6
     3d8:	ebfffffe 	bl	0 <_start>
     3dc:	ea000095 	b	25c <readfile+0x88>
     3e0:	eb00034f 	bl	d44 <showprompt>
     3e4:	ea00009b 	b	274 <readfile+0xa0>
     3e8:	e1a00004 	mov	r0, r4
     3ec:	e91b6ff0 	ldmdb	fp, {r4, r5, r6, r7, r8, r9, sl, fp, sp, lr}
     3f0:	eafffffe 	b	0 <_start>
     3f4:	e3a00001 	mov	r0, #1	; 0x1
     3f8:	ebfffffe 	bl	0 <_start>
     3fc:	00000130 	andeq	r0, r0, r0, lsr r1
     400:	00000000 	andeq	r0, r0, r0
     404:	00000088 	andeq	r0, r0, r8, lsl #1
     408:	00000000 	andeq	r0, r0, r0
     40c:	000000a0 	andeq	r0, r0, r0, lsr #1
     410:	00000108 	andeq	r0, r0, r8, lsl #2
	...
     420:	000000a4 	andeq	r0, r0, r4, lsr #1
     424:	000000b4 	streqh	r0, [r0], -r4
     428:	000000cc 	andeq	r0, r0, ip, asr #1

0000042c <command>:
     42c:	e1a0c00d 	mov	ip, sp
     430:	e92dd9f0 	stmdb	sp!, {r4, r5, r6, r7, r8, fp, ip, lr, pc}
     434:	e59f31a0 	ldr	r3, [pc, #1a0]	; 5dc <command+0x1b0>
     438:	e59f21a0 	ldr	r2, [pc, #1a0]	; 5e0 <command+0x1b4>
     43c:	e3a01000 	mov	r1, #0	; 0x0
     440:	e24cb004 	sub	fp, ip, #4	; 0x4
     444:	e24dd008 	sub	sp, sp, #8	; 0x8
     448:	e1a06000 	mov	r6, r0
     44c:	e5831000 	str	r1, [r3]
     450:	e5821000 	str	r1, [r2]
     454:	ebfffffe 	bl	0 <_start>
     458:	e5d63000 	ldrb	r3, [r6]
     45c:	e3530009 	cmp	r3, #9	; 0x9
     460:	13530020 	cmpne	r3, #32	; 0x20
     464:	1a00011c 	bne	478 <command+0x4c>
     468:	e5f63001 	ldrb	r3, [r6, #1]!
     46c:	e3530009 	cmp	r3, #9	; 0x9
     470:	13530020 	cmpne	r3, #32	; 0x20
     474:	0a000118 	beq	468 <command+0x3c>
     478:	e1a00006 	mov	r0, r6
     47c:	e3a01026 	mov	r1, #38	; 0x26
     480:	ebfffffe 	bl	0 <_start>
     484:	e1a01000 	mov	r1, r0
     488:	e3510000 	cmp	r1, #0	; 0x0
     48c:	13a03000 	movne	r3, #0	; 0x0
     490:	15c13000 	strneb	r3, [r1]
     494:	e1a00006 	mov	r0, r6
     498:	13a08001 	movne	r8, #1	; 0x1
     49c:	01a08001 	moveq	r8, r1
     4a0:	ebfffffe 	bl	0 <_start>
     4a4:	e1a06000 	mov	r6, r0
     4a8:	e3560000 	cmp	r6, #0	; 0x0
     4ac:	091ba9f0 	ldmeqdb	fp, {r4, r5, r6, r7, r8, fp, sp, pc}
     4b0:	e5d63000 	ldrb	r3, [r6]
     4b4:	e3530000 	cmp	r3, #0	; 0x0
     4b8:	091ba9f0 	ldmeqdb	fp, {r4, r5, r6, r7, r8, fp, sp, pc}
     4bc:	e24b4024 	sub	r4, fp, #36	; 0x24
     4c0:	e24b5028 	sub	r5, fp, #40	; 0x28
     4c4:	e1a01004 	mov	r1, r4
     4c8:	e1a02005 	mov	r2, r5
     4cc:	ebfffffe 	bl	0 <_start>
     4d0:	e3500000 	cmp	r0, #0	; 0x0
     4d4:	091ba9f0 	ldmeqdb	fp, {r4, r5, r6, r7, r8, fp, sp, pc}
     4d8:	e51b3028 	ldr	r3, [fp, -#40]
     4dc:	e5930000 	ldr	r0, [r3]
     4e0:	eb000302 	bl	c10 <findalias>
     4e4:	e3500000 	cmp	r0, #0	; 0x0
     4e8:	0a000152 	beq	550 <command+0x124>
     4ec:	e59f60f0 	ldr	r6, [pc, #f0]	; 5e4 <command+0x1b8>
     4f0:	e5901004 	ldr	r1, [r0, #4]
     4f4:	e1a00006 	mov	r0, r6
     4f8:	ebfffffe 	bl	0 <_start>
     4fc:	ea000147 	b	524 <command+0xf8>
     500:	e59f10e0 	ldr	r1, [pc, #e0]	; 5e8 <command+0x1bc>
     504:	e59f00d8 	ldr	r0, [pc, #d8]	; 5e4 <command+0x1b8>
     508:	ebfffffe 	bl	0 <_start>
     50c:	e51b3028 	ldr	r3, [fp, -#40]
     510:	e59f00cc 	ldr	r0, [pc, #cc]	; 5e4 <command+0x1b8>
     514:	e5931004 	ldr	r1, [r3, #4]
     518:	e2833004 	add	r3, r3, #4	; 0x4
     51c:	e50b3028 	str	r3, [fp, -#40]
     520:	ebfffffe 	bl	0 <_start>
     524:	e51b3024 	ldr	r3, [fp, -#36]
     528:	e2433001 	sub	r3, r3, #1	; 0x1
     52c:	e3530000 	cmp	r3, #0	; 0x0
     530:	e50b3024 	str	r3, [fp, -#36]
     534:	ca00013e 	bgt	500 <command+0xd4>
     538:	e59f00a4 	ldr	r0, [pc, #a4]	; 5e4 <command+0x1b8>
     53c:	e1a01004 	mov	r1, r4
     540:	e1a02005 	mov	r2, r5
     544:	ebfffffe 	bl	0 <_start>
     548:	e3500000 	cmp	r0, #0	; 0x0
     54c:	091ba9f0 	ldmeqdb	fp, {r4, r5, r6, r7, r8, fp, sp, pc}
     550:	e51b7024 	ldr	r7, [fp, -#36]
     554:	e3570001 	cmp	r7, #1	; 0x1
     558:	0a000166 	beq	5a0 <command+0x174>
     55c:	e51b5028 	ldr	r5, [fp, -#40]
     560:	e5950000 	ldr	r0, [r5]
     564:	eb000179 	bl	5ec <command_in_path>
     568:	e3500000 	cmp	r0, #0	; 0x0
     56c:	0a000160 	beq	588 <command+0x15c>
     570:	e1a00006 	mov	r0, r6
     574:	e1a01008 	mov	r1, r8
     578:	e51b2024 	ldr	r2, [fp, -#36]
     57c:	e51b3028 	ldr	r3, [fp, -#40]
     580:	eb000217 	bl	864 <runcmd>
     584:	e91ba9f0 	ldmdb	fp, {r4, r5, r6, r7, r8, fp, sp, pc}
     588:	e51b0024 	ldr	r0, [fp, -#36]
     58c:	e51b1028 	ldr	r1, [fp, -#40]
     590:	eb0001c4 	bl	718 <trybuiltin>
     594:	e3500000 	cmp	r0, #0	; 0x0
     598:	191ba9f0 	ldmnedb	fp, {r4, r5, r6, r7, r8, fp, sp, pc}
     59c:	ea00015a 	b	570 <command+0x144>
     5a0:	e51b5028 	ldr	r5, [fp, -#40]
     5a4:	e5954000 	ldr	r4, [r5]
     5a8:	e3a0103d 	mov	r1, #61	; 0x3d
     5ac:	e1a00004 	mov	r0, r4
     5b0:	ebfffffe 	bl	0 <_start>
     5b4:	e1a01000 	mov	r1, r0
     5b8:	e1510004 	cmp	r1, r4
     5bc:	9a000156 	bls	560 <command+0x134>
     5c0:	e3a03000 	mov	r3, #0	; 0x0
     5c4:	e4c13001 	strb	r3, [r1], #1
     5c8:	e51b2028 	ldr	r2, [fp, -#40]
     5cc:	e5920000 	ldr	r0, [r2]
     5d0:	e1a02007 	mov	r2, r7
     5d4:	ebfffffe 	bl	0 <_start>
     5d8:	e91ba9f0 	ldmdb	fp, {r4, r5, r6, r7, r8, fp, sp, pc}
	...
     5e8:	00000084 	andeq	r0, r0, r4, lsl #1

000005ec <command_in_path>:
     5ec:	e1a0c00d 	mov	ip, sp
     5f0:	e92dd8f0 	stmdb	sp!, {r4, r5, r6, r7, fp, ip, lr, pc}
     5f4:	e3a0102f 	mov	r1, #47	; 0x2f
     5f8:	e24cb004 	sub	fp, ip, #4	; 0x4
     5fc:	e24dd058 	sub	sp, sp, #88	; 0x58
     600:	e1a06000 	mov	r6, r0
     604:	ebfffffe 	bl	0 <_start>
     608:	e3500000 	cmp	r0, #0	; 0x0
     60c:	0a00018e 	beq	640 <command_in_path+0x54>
     610:	e1a00006 	mov	r0, r6
     614:	e24b1074 	sub	r1, fp, #116	; 0x74
     618:	ebfffffe 	bl	0 <_start>
     61c:	e3500000 	cmp	r0, #0	; 0x0
     620:	0a000189 	beq	62c <command_in_path+0x40>
     624:	e3a00000 	mov	r0, #0	; 0x0
     628:	e91ba8f0 	ldmdb	fp, {r4, r5, r6, r7, fp, sp, pc}
     62c:	e51b3064 	ldr	r3, [fp, -#100]
     630:	e3130049 	tst	r3, #73	; 0x49
     634:	13a00001 	movne	r0, #1	; 0x1
     638:	191ba8f0 	ldmnedb	fp, {r4, r5, r6, r7, fp, sp, pc}
     63c:	ea000187 	b	624 <command_in_path+0x38>
     640:	e59f00c4 	ldr	r0, [pc, #c4]	; 70c <command_in_path+0x120>
     644:	ebfffffe 	bl	0 <_start>
     648:	e1a04000 	mov	r4, r0
     64c:	e3540000 	cmp	r4, #0	; 0x0
     650:	0a000187 	beq	624 <command_in_path+0x38>
     654:	e5d43000 	ldrb	r3, [r4]
     658:	e3530000 	cmp	r3, #0	; 0x0
     65c:	0a000187 	beq	624 <command_in_path+0x38>
     660:	e59f50a8 	ldr	r5, [pc, #a8]	; 710 <command_in_path+0x124>
     664:	e24b7074 	sub	r7, fp, #116	; 0x74
     668:	e1a01004 	mov	r1, r4
     66c:	e1a00005 	mov	r0, r5
     670:	ebfffffe 	bl	0 <_start>
     674:	e3a0103a 	mov	r1, #58	; 0x3a
     678:	e1a00005 	mov	r0, r5
     67c:	ebfffffe 	bl	0 <_start>
     680:	e3500000 	cmp	r0, #0	; 0x0
     684:	13a03000 	movne	r3, #0	; 0x0
     688:	15c03000 	strneb	r3, [r0]
     68c:	e1a00005 	mov	r0, r5
     690:	ebfffffe 	bl	0 <_start>
     694:	e3500000 	cmp	r0, #0	; 0x0
     698:	0a0001a8 	beq	6a8 <command_in_path+0xbc>
     69c:	e1a00005 	mov	r0, r5
     6a0:	e59f106c 	ldr	r1, [pc, #6c]	; 714 <command_in_path+0x128>
     6a4:	ebfffffe 	bl	0 <_start>
     6a8:	e1a01006 	mov	r1, r6
     6ac:	e1a00005 	mov	r0, r5
     6b0:	ebfffffe 	bl	0 <_start>
     6b4:	e1a00005 	mov	r0, r5
     6b8:	e1a01007 	mov	r1, r7
     6bc:	ebfffffe 	bl	0 <_start>
     6c0:	e3500000 	cmp	r0, #0	; 0x0
     6c4:	0a0001bc 	beq	6f8 <command_in_path+0x10c>
     6c8:	e1a00004 	mov	r0, r4
     6cc:	e3a0103a 	mov	r1, #58	; 0x3a
     6d0:	ebfffffe 	bl	0 <_start>
     6d4:	e3500000 	cmp	r0, #0	; 0x0
     6d8:	12804001 	addne	r4, r0, #1	; 0x1
     6dc:	01a04000 	moveq	r4, r0
     6e0:	e3540000 	cmp	r4, #0	; 0x0
     6e4:	0a000187 	beq	624 <command_in_path+0x38>
     6e8:	e5d43000 	ldrb	r3, [r4]
     6ec:	e3530000 	cmp	r3, #0	; 0x0
     6f0:	1a000198 	bne	668 <command_in_path+0x7c>
     6f4:	ea000187 	b	624 <command_in_path+0x38>
     6f8:	e51b3064 	ldr	r3, [fp, -#100]
     6fc:	e3130049 	tst	r3, #73	; 0x49
     700:	13a00001 	movne	r0, #1	; 0x1
     704:	191ba8f0 	ldmnedb	fp, {r4, r5, r6, r7, fp, sp, pc}
     708:	ea0001b0 	b	6c8 <command_in_path+0xdc>
     70c:	00000038 	andeq	r0, r0, r8, lsr r0
     710:	00000000 	andeq	r0, r0, r0
     714:	000000ec 	andeq	r0, r0, ip, ror #1

00000718 <trybuiltin>:
     718:	e1a0c00d 	mov	ip, sp
     71c:	e92dddf0 	stmdb	sp!, {r4, r5, r6, r7, r8, sl, fp, ip, lr, pc}
     720:	e59f812c 	ldr	r8, [pc, #12c]	; 854 <trybuiltin+0x13c>
     724:	e24cb004 	sub	fp, ip, #4	; 0x4
     728:	e24dde19 	sub	sp, sp, #400	; 0x190
     72c:	e1a0a000 	mov	sl, r0
     730:	e1a07001 	mov	r7, r1
     734:	e5f83034 	ldrb	r3, [r8, #52]!
     738:	e20300ff 	and	r0, r3, #255	; 0xff
     73c:	e3500000 	cmp	r0, #0	; 0x0
     740:	e1a01008 	mov	r1, r8
     744:	091badf0 	ldmeqdb	fp, {r4, r5, r6, r7, r8, sl, fp, sp, pc}
     748:	e5976000 	ldr	r6, [r7]
     74c:	e1a00006 	mov	r0, r6
     750:	ebfffffe 	bl	0 <_start>
     754:	e3500000 	cmp	r0, #0	; 0x0
     758:	1a0001cb 	bne	734 <trybuiltin+0x1c>
     75c:	e598302c 	ldr	r3, [r8, #44]
     760:	e15a0003 	cmp	sl, r3
     764:	ba0001de 	blt	780 <trybuiltin+0x68>
     768:	e5983030 	ldr	r3, [r8, #48]
     76c:	e15a0003 	cmp	sl, r3
     770:	d1a05000 	movle	r5, r0
     774:	d3a04001 	movle	r4, #1	; 0x1
     778:	d50b60ec 	strle	r6, [fp, -#236]
     77c:	da0001e8 	ble	7a8 <trybuiltin+0x90>
     780:	e59f40d0 	ldr	r4, [pc, #d0]	; 858 <trybuiltin+0x140>
     784:	e288300a 	add	r3, r8, #10	; 0xa
     788:	e59f10cc 	ldr	r1, [pc, #cc]	; 85c <trybuiltin+0x144>
     78c:	e1a02008 	mov	r2, r8
     790:	e5940000 	ldr	r0, [r4]
     794:	ebfffffe 	bl	0 <_start>
     798:	e5940000 	ldr	r0, [r4]
     79c:	ebfffffe 	bl	0 <_start>
     7a0:	e3a00001 	mov	r0, #1	; 0x1
     7a4:	e91badf0 	ldmdb	fp, {r4, r5, r6, r7, r8, sl, fp, sp, pc}
     7a8:	e2855001 	add	r5, r5, #1	; 0x1
     7ac:	e155000a 	cmp	r5, sl
     7b0:	ba0001f1 	blt	7cc <trybuiltin+0xb4>
     7b4:	e1a00004 	mov	r0, r4
     7b8:	e24b10ec 	sub	r1, fp, #236	; 0xec
     7bc:	e1a0e00f 	mov	lr, pc
     7c0:	e598f028 	ldr	pc, [r8, #40]
     7c4:	e3a00001 	mov	r0, #1	; 0x1
     7c8:	e91badf0 	ldmdb	fp, {r4, r5, r6, r7, r8, sl, fp, sp, pc}
     7cc:	e24b6f6d 	sub	r6, fp, #436	; 0x1b4
     7d0:	e7970105 	ldr	r0, [r7, r5, lsl #2]
     7d4:	e3a01032 	mov	r1, #50	; 0x32
     7d8:	e1a02006 	mov	r2, r6
     7dc:	ebfffffe 	bl	0 <_start>
     7e0:	e3500000 	cmp	r0, #0	; 0x0
     7e4:	b3a00001 	movlt	r0, #1	; 0x1
     7e8:	b91badf0 	ldmltdb	fp, {r4, r5, r6, r7, r8, sl, fp, sp, pc}
     7ec:	e0843000 	add	r3, r4, r0
     7f0:	e3530031 	cmp	r3, #49	; 0x31
     7f4:	ca00020d 	bgt	83c <trybuiltin+0x124>
     7f8:	e3500000 	cmp	r0, #0	; 0x0
     7fc:	07972105 	ldreq	r2, [r7, r5, lsl #2]
     800:	024b30ec 	subeq	r3, fp, #236	; 0xec
     804:	e3a01000 	mov	r1, #0	; 0x0
     808:	07832104 	streq	r2, [r3, r4, lsl #2]
     80c:	02844001 	addeq	r4, r4, #1	; 0x1
     810:	e1510000 	cmp	r1, r0
     814:	aa0001e8 	bge	7a8 <trybuiltin+0x90>
     818:	e1a02006 	mov	r2, r6
     81c:	e24bc0ec 	sub	ip, fp, #236	; 0xec
     820:	e7923101 	ldr	r3, [r2, r1, lsl #2]
     824:	e2811001 	add	r1, r1, #1	; 0x1
     828:	e1510000 	cmp	r1, r0
     82c:	e78c3104 	str	r3, [ip, r4, lsl #2]
     830:	e2844001 	add	r4, r4, #1	; 0x1
     834:	ba000206 	blt	820 <trybuiltin+0x108>
     838:	ea0001e8 	b	7a8 <trybuiltin+0x90>
     83c:	e59f3014 	ldr	r3, [pc, #14]	; 858 <trybuiltin+0x140>
     840:	e59f1018 	ldr	r1, [pc, #18]	; 860 <trybuiltin+0x148>
     844:	e5930000 	ldr	r0, [r3]
     848:	ebfffffe 	bl	0 <_start>
     84c:	e3a00001 	mov	r0, #1	; 0x1
     850:	e91badf0 	ldmdb	fp, {r4, r5, r6, r7, r8, sl, fp, sp, pc}
     854:	ffffffcc 	swinv	0x00ffffcc
     858:	00000000 	andeq	r0, r0, r0
     85c:	000000f0 	streqd	r0, [r0], -r0
     860:	00000100 	andeq	r0, r0, r0, lsl #2

00000864 <runcmd>:
     864:	e1a0c00d 	mov	ip, sp
     868:	e92dd8f0 	stmdb	sp!, {r4, r5, r6, r7, fp, ip, lr, pc}
     86c:	e24cb004 	sub	fp, ip, #4	; 0x4
     870:	e24ddf8b 	sub	sp, sp, #556	; 0x22c
     874:	e50b3248 	str	r3, [fp, -#584]
     878:	e3a04001 	mov	r4, #1	; 0x1
     87c:	e5933000 	ldr	r3, [r3]
     880:	e1a06002 	mov	r6, r2
     884:	e1540006 	cmp	r4, r6
     888:	e50b30e4 	str	r3, [fp, -#228]
     88c:	e50b1244 	str	r1, [fp, -#580]
     890:	e1a05004 	mov	r5, r4
     894:	aa000242 	bge	910 <runcmd+0xac>
     898:	e51b2248 	ldr	r2, [fp, -#584]
     89c:	e3a01032 	mov	r1, #50	; 0x32
     8a0:	e7920105 	ldr	r0, [r2, r5, lsl #2]
     8a4:	e24b2f6b 	sub	r2, fp, #428	; 0x1ac
     8a8:	ebfffffe 	bl	0 <_start>
     8ac:	e3500000 	cmp	r0, #0	; 0x0
     8b0:	b91ba8f0 	ldmltdb	fp, {r4, r5, r6, r7, fp, sp, pc}
     8b4:	e0843000 	add	r3, r4, r0
     8b8:	e3530031 	cmp	r3, #49	; 0x31
     8bc:	ca0002d0 	bgt	b48 <runcmd+0x2e4>
     8c0:	e3500000 	cmp	r0, #0	; 0x0
     8c4:	051b3248 	ldreq	r3, [fp, -#584]
     8c8:	07932105 	ldreq	r2, [r3, r5, lsl #2]
     8cc:	024b30e4 	subeq	r3, fp, #228	; 0xe4
     8d0:	07832104 	streq	r2, [r3, r4, lsl #2]
     8d4:	e3a02000 	mov	r2, #0	; 0x0
     8d8:	02844001 	addeq	r4, r4, #1	; 0x1
     8dc:	e1520000 	cmp	r2, r0
     8e0:	aa00023f 	bge	904 <runcmd+0xa0>
     8e4:	e24bc0e4 	sub	ip, fp, #228	; 0xe4
     8e8:	e24b1f6b 	sub	r1, fp, #428	; 0x1ac
     8ec:	e7913102 	ldr	r3, [r1, r2, lsl #2]
     8f0:	e2822001 	add	r2, r2, #1	; 0x1
     8f4:	e1520000 	cmp	r2, r0
     8f8:	e78c3104 	str	r3, [ip, r4, lsl #2]
     8fc:	e2844001 	add	r4, r4, #1	; 0x1
     900:	ba000239 	blt	8ec <runcmd+0x88>
     904:	e2855001 	add	r5, r5, #1	; 0x1
     908:	e1550006 	cmp	r5, r6
     90c:	ba000224 	blt	898 <runcmd+0x34>
     910:	e51b2244 	ldr	r2, [fp, -#580]
     914:	e24b30e4 	sub	r3, fp, #228	; 0xe4
     918:	e3520000 	cmp	r2, #0	; 0x0
     91c:	e3a02000 	mov	r2, #0	; 0x0
     920:	e7832104 	str	r2, [r3, r4, lsl #2]
     924:	0a0002cc 	beq	b38 <runcmd+0x2d4>
     928:	ebfffffe 	bl	0 <_start>
     92c:	e1a05000 	mov	r5, r0
     930:	e3550000 	cmp	r5, #0	; 0x0
     934:	0a0002a5 	beq	a9c <runcmd+0x238>
     938:	aa00025d 	bge	97c <runcmd+0x118>
     93c:	e24b4f8e 	sub	r4, fp, #568	; 0x238
     940:	e1a00004 	mov	r0, r4
     944:	e3a01000 	mov	r1, #0	; 0x0
     948:	e3a0208c 	mov	r2, #140	; 0x8c
     94c:	ebfffffe 	bl	0 <_start>
     950:	e59f322c 	ldr	r3, [pc, #22c]	; b84 <runcmd+0x320>
     954:	e3a0c201 	mov	ip, #268435456	; 0x10000000
     958:	e1a01004 	mov	r1, r4
     95c:	e3a02000 	mov	r2, #0	; 0x0
     960:	e3a00011 	mov	r0, #17	; 0x11
     964:	e50b3238 	str	r3, [fp, -#568]
     968:	e50bc1b4 	str	ip, [fp, -#436]
     96c:	ebfffffe 	bl	0 <_start>
     970:	e59f0210 	ldr	r0, [pc, #210]	; b88 <runcmd+0x324>
     974:	ebfffffe 	bl	0 <_start>
     978:	e91ba8f0 	ldmdb	fp, {r4, r5, r6, r7, fp, sp, pc}
     97c:	e51b3244 	ldr	r3, [fp, -#580]
     980:	e3530000 	cmp	r3, #0	; 0x0
     984:	0a000264 	beq	998 <runcmd+0x134>
     988:	e1a01005 	mov	r1, r5
     98c:	e59f01f8 	ldr	r0, [pc, #1f8]	; b8c <runcmd+0x328>
     990:	ebfffffe 	bl	0 <_start>
     994:	e91ba8f0 	ldmdb	fp, {r4, r5, r6, r7, fp, sp, pc}
     998:	e3550000 	cmp	r5, #0	; 0x0
     99c:	0a0002da 	beq	b70 <runcmd+0x30c>
     9a0:	e51b2244 	ldr	r2, [fp, -#580]
     9a4:	e59f31e4 	ldr	r3, [pc, #1e4]	; b90 <runcmd+0x32c>
     9a8:	e24b6d09 	sub	r6, fp, #576	; 0x240
     9ac:	e5832000 	str	r2, [r3]
     9b0:	e50b2240 	str	r2, [fp, -#576]
     9b4:	e3a02000 	mov	r2, #0	; 0x0
     9b8:	e1a03002 	mov	r3, r2
     9bc:	e1a01006 	mov	r1, r6
     9c0:	e1a00005 	mov	r0, r5
     9c4:	e50b623c 	str	r6, [fp, -#572]
     9c8:	ebfffffe 	bl	0 <_start>
     9cc:	e1a04000 	mov	r4, r0
     9d0:	e3540000 	cmp	r4, #0	; 0x0
     9d4:	ba00027e 	blt	a00 <runcmd+0x19c>
     9d8:	e1540005 	cmp	r4, r5
     9dc:	0a00026b 	beq	9b4 <runcmd+0x150>
     9e0:	ebfffffe 	bl	0 <_start>
     9e4:	e59f31a8 	ldr	r3, [pc, #1a8]	; b94 <runcmd+0x330>
     9e8:	e1a02000 	mov	r2, r0
     9ec:	e59f11a4 	ldr	r1, [pc, #1a4]	; b98 <runcmd+0x334>
     9f0:	e5930000 	ldr	r0, [r3]
     9f4:	e1a03004 	mov	r3, r4
     9f8:	ebfffffe 	bl	0 <_start>
     9fc:	ea00026b 	b	9b4 <runcmd+0x150>
     a00:	ebfffffe 	bl	0 <_start>
     a04:	e5903000 	ldr	r3, [r0]
     a08:	e3530004 	cmp	r3, #4	; 0x4
     a0c:	0a00026b 	beq	9b4 <runcmd+0x150>
     a10:	e59f316c 	ldr	r3, [pc, #16c]	; b84 <runcmd+0x320>
     a14:	e24b0f8d 	sub	r0, fp, #564	; 0x234
     a18:	e3a01000 	mov	r1, #0	; 0x0
     a1c:	e3a02080 	mov	r2, #128	; 0x80
     a20:	e50b3238 	str	r3, [fp, -#568]
     a24:	ebfffffe 	bl	0 <_start>
     a28:	e3a03201 	mov	r3, #268435456	; 0x10000000
     a2c:	e24b1f8e 	sub	r1, fp, #568	; 0x238
     a30:	e3a02000 	mov	r2, #0	; 0x0
     a34:	e3a00011 	mov	r0, #17	; 0x11
     a38:	e50b31b4 	str	r3, [fp, -#436]
     a3c:	ebfffffe 	bl	0 <_start>
     a40:	e51b2240 	ldr	r2, [fp, -#576]
     a44:	e59f3144 	ldr	r3, [pc, #144]	; b90 <runcmd+0x32c>
     a48:	e312007f 	tst	r2, #127	; 0x7f
     a4c:	e3a01001 	mov	r1, #1	; 0x1
     a50:	e5831000 	str	r1, [r3]
     a54:	159f3140 	ldrne	r3, [pc, #140]	; b9c <runcmd+0x338>
     a58:	15831000 	strne	r1, [r3]
     a5c:	1a00029c 	bne	a78 <runcmd+0x214>
     a60:	e2023cff 	and	r3, r2, #65280	; 0xff00
     a64:	e1a02443 	mov	r2, r3, asr #8
     a68:	e3520000 	cmp	r2, #0	; 0x0
     a6c:	091ba8f0 	ldmeqdb	fp, {r4, r5, r6, r7, fp, sp, pc}
     a70:	e59f3124 	ldr	r3, [pc, #124]	; b9c <runcmd+0x338>
     a74:	e5832000 	str	r2, [r3]
     a78:	e59f4114 	ldr	r4, [pc, #114]	; b94 <runcmd+0x330>
     a7c:	e59f111c 	ldr	r1, [pc, #11c]	; ba0 <runcmd+0x33c>
     a80:	e5940000 	ldr	r0, [r4]
     a84:	e1a02005 	mov	r2, r5
     a88:	e51b3240 	ldr	r3, [fp, -#576]
     a8c:	ebfffffe 	bl	0 <_start>
     a90:	e5940000 	ldr	r0, [r4]
     a94:	ebfffffe 	bl	0 <_start>
     a98:	e91ba8f0 	ldmdb	fp, {r4, r5, r6, r7, fp, sp, pc}
     a9c:	e59f2100 	ldr	r2, [pc, #100]	; ba4 <runcmd+0x340>
     aa0:	e5923000 	ldr	r3, [r2]
     aa4:	e1a04005 	mov	r4, r5
     aa8:	e1540003 	cmp	r4, r3
     aac:	aa0002b8 	bge	ae8 <runcmd+0x284>
     ab0:	e59f70f0 	ldr	r7, [pc, #f0]	; ba8 <runcmd+0x344>
     ab4:	e59f60f0 	ldr	r6, [pc, #f0]	; bac <runcmd+0x348>
     ab8:	e1a05002 	mov	r5, r2
     abc:	e7972104 	ldr	r2, [r7, r4, lsl #2]
     ac0:	e5963000 	ldr	r3, [r6]
     ac4:	e1520003 	cmp	r2, r3
     ac8:	e1a00002 	mov	r0, r2
     acc:	e2844001 	add	r4, r4, #1	; 0x1
     ad0:	0a0002b5 	beq	adc <runcmd+0x278>
     ad4:	ebfffffe 	bl	0 <_start>
     ad8:	ebfffffe 	bl	0 <_start>
     adc:	e5953000 	ldr	r3, [r5]
     ae0:	e1540003 	cmp	r4, r3
     ae4:	ba0002ad 	blt	abc <runcmd+0x258>
     ae8:	e3a01000 	mov	r1, #0	; 0x0
     aec:	e3a00002 	mov	r0, #2	; 0x2
     af0:	ebfffffe 	bl	0 <_start>
     af4:	e3a01000 	mov	r1, #0	; 0x0
     af8:	e3a00003 	mov	r0, #3	; 0x3
     afc:	ebfffffe 	bl	0 <_start>
     b00:	e3a01000 	mov	r1, #0	; 0x0
     b04:	e3a00011 	mov	r0, #17	; 0x11
     b08:	ebfffffe 	bl	0 <_start>
     b0c:	e24b10e4 	sub	r1, fp, #228	; 0xe4
     b10:	e51b00e4 	ldr	r0, [fp, -#228]
     b14:	ebfffffe 	bl	0 <_start>
     b18:	ebfffffe 	bl	0 <_start>
     b1c:	e5900000 	ldr	r0, [r0]
     b20:	e3500002 	cmp	r0, #2	; 0x2
     b24:	059f2084 	ldreq	r2, [pc, #84]	; bb0 <runcmd+0x34c>
     b28:	0a0002d5 	beq	b5c <runcmd+0x2f8>
     b2c:	ebfffffe 	bl	0 <_start>
     b30:	e1a02000 	mov	r2, r0
     b34:	ea0002d5 	b	b5c <runcmd+0x2f8>
     b38:	e3a00011 	mov	r0, #17	; 0x11
     b3c:	e51b1244 	ldr	r1, [fp, -#580]
     b40:	ebfffffe 	bl	0 <_start>
     b44:	ea000248 	b	928 <runcmd+0xc4>
     b48:	e59f3044 	ldr	r3, [pc, #44]	; b94 <runcmd+0x330>
     b4c:	e59f1060 	ldr	r1, [pc, #60]	; bb4 <runcmd+0x350>
     b50:	e5930000 	ldr	r0, [r3]
     b54:	ebfffffe 	bl	0 <_start>
     b58:	e91ba8f0 	ldmdb	fp, {r4, r5, r6, r7, fp, sp, pc}
     b5c:	e51b10e4 	ldr	r1, [fp, -#228]
     b60:	e59f0050 	ldr	r0, [pc, #50]	; bb8 <runcmd+0x354>
     b64:	ebfffffe 	bl	0 <_start>
     b68:	e3a00000 	mov	r0, #0	; 0x0
     b6c:	ebfffffe 	bl	0 <_start>
     b70:	e51b3248 	ldr	r3, [fp, -#584]
     b74:	e5930000 	ldr	r0, [r3]
     b78:	ebfffffe 	bl	0 <_start>
     b7c:	e3a00001 	mov	r0, #1	; 0x1
     b80:	ebfffffe 	bl	0 <_start>
     b84:	00000e40 	andeq	r0, r0, r0, asr #28
     b88:	00000114 	andeq	r0, r0, r4, lsl r1
     b8c:	00000124 	andeq	r0, r0, r4, lsr #2
     b90:	00001f2c 	andeq	r1, r0, ip, lsr #30
     b94:	00000000 	andeq	r0, r0, r0
     b98:	0000012c 	andeq	r0, r0, ip, lsr #2
     b9c:	00000000 	andeq	r0, r0, r0
     ba0:	00000144 	andeq	r0, r0, r4, asr #2
     ba4:	00000130 	andeq	r0, r0, r0, lsr r1
     ba8:	00000108 	andeq	r0, r0, r8, lsl #2
     bac:	00000000 	andeq	r0, r0, r0
     bb0:	00000158 	andeq	r0, r0, r8, asr r1
     bb4:	00000100 	andeq	r0, r0, r0, lsl #2
     bb8:	00000174 	andeq	r0, r0, r4, ror r1

00000bbc <do_help>:
     bbc:	e1a0c00d 	mov	ip, sp
     bc0:	e92dd810 	stmdb	sp!, {r4, fp, ip, lr, pc}
     bc4:	e59f403c 	ldr	r4, [pc, #3c]	; c08 <do_help+0x4c>
     bc8:	e3540000 	cmp	r4, #0	; 0x0
     bcc:	e24cb004 	sub	fp, ip, #4	; 0x4
     bd0:	091ba810 	ldmeqdb	fp, {r4, fp, sp, pc}
     bd4:	e5d43000 	ldrb	r3, [r4]
     bd8:	e3530000 	cmp	r3, #0	; 0x0
     bdc:	091ba810 	ldmeqdb	fp, {r4, fp, sp, pc}
     be0:	e284200a 	add	r2, r4, #10	; 0xa
     be4:	e1a01004 	mov	r1, r4
     be8:	e59f001c 	ldr	r0, [pc, #1c]	; c0c <do_help+0x50>
     bec:	ebfffffe 	bl	0 <_start>
     bf0:	e2944034 	adds	r4, r4, #52	; 0x34
     bf4:	091ba810 	ldmeqdb	fp, {r4, fp, sp, pc}
     bf8:	e5d43000 	ldrb	r3, [r4]
     bfc:	e3530000 	cmp	r3, #0	; 0x0
     c00:	1a0002f6 	bne	be0 <do_help+0x24>
     c04:	e91ba810 	ldmdb	fp, {r4, fp, sp, pc}
     c08:	00000000 	andeq	r0, r0, r0
     c0c:	0000017c 	andeq	r0, r0, ip, ror r1

00000c10 <findalias>:
     c10:	e1a0c00d 	mov	ip, sp
     c14:	e92dd870 	stmdb	sp!, {r4, r5, r6, fp, ip, lr, pc}
     c18:	e59f3054 	ldr	r3, [pc, #54]	; c74 <findalias+0x64>
     c1c:	e5935000 	ldr	r5, [r3]
     c20:	e59f3050 	ldr	r3, [pc, #50]	; c78 <findalias+0x68>
     c24:	e1a02005 	mov	r2, r5
     c28:	e3520000 	cmp	r2, #0	; 0x0
     c2c:	e24cb004 	sub	fp, ip, #4	; 0x4
     c30:	e1a06000 	mov	r6, r0
     c34:	e5934000 	ldr	r4, [r3]
     c38:	e2455001 	sub	r5, r5, #1	; 0x1
     c3c:	da000319 	ble	c6c <findalias+0x5c>
     c40:	e5941000 	ldr	r1, [r4]
     c44:	e1a00006 	mov	r0, r6
     c48:	ebfffffe 	bl	0 <_start>
     c4c:	e3500000 	cmp	r0, #0	; 0x0
     c50:	e1a03005 	mov	r3, r5
     c54:	01a00004 	moveq	r0, r4
     c58:	e2455001 	sub	r5, r5, #1	; 0x1
     c5c:	091ba870 	ldmeqdb	fp, {r4, r5, r6, fp, sp, pc}
     c60:	e3530000 	cmp	r3, #0	; 0x0
     c64:	e2844008 	add	r4, r4, #8	; 0x8
     c68:	ca00030e 	bgt	c40 <findalias+0x30>
     c6c:	e3a00000 	mov	r0, #0	; 0x0
     c70:	e91ba870 	ldmdb	fp, {r4, r5, r6, fp, sp, pc}
     c74:	00000104 	andeq	r0, r0, r4, lsl #2
     c78:	00000100 	andeq	r0, r0, r0, lsl #2

00000c7c <do_source>:
     c7c:	e52de004 	str	lr, [sp, -#4]!
     c80:	e5910004 	ldr	r0, [r1, #4]
     c84:	e49de004 	ldr	lr, [sp], #4
     c88:	ea000073 	b	1d4 <readfile>

00000c8c <do_pid>:
     c8c:	e1a0c00d 	mov	ip, sp
     c90:	e92dd800 	stmdb	sp!, {fp, ip, lr, pc}
     c94:	e24cb004 	sub	fp, ip, #4	; 0x4
     c98:	ebfffffe 	bl	0 <_start>
     c9c:	e1a01000 	mov	r1, r0
     ca0:	e59f0004 	ldr	r0, [pc, #4]	; cac <do_pid+0x20>
     ca4:	e91b6800 	ldmdb	fp, {fp, sp, lr}
     ca8:	eafffffe 	b	0 <_start>
     cac:	00000188 	andeq	r0, r0, r8, lsl #3

00000cb0 <do_exec>:
     cb0:	e1a0c00d 	mov	ip, sp
     cb4:	e92dddf0 	stmdb	sp!, {r4, r5, r6, r7, r8, sl, fp, ip, lr, pc}
     cb8:	e59f6078 	ldr	r6, [pc, #78]	; d38 <do_exec+0x88>
     cbc:	e5963000 	ldr	r3, [r6]
     cc0:	e2433001 	sub	r3, r3, #1	; 0x1
     cc4:	e3530000 	cmp	r3, #0	; 0x0
     cc8:	e24cb004 	sub	fp, ip, #4	; 0x4
     ccc:	e1a0a000 	mov	sl, r0
     cd0:	e1a05001 	mov	r5, r1
     cd4:	e5863000 	str	r3, [r6]
     cd8:	ba000343 	blt	d14 <do_exec+0x64>
     cdc:	e59f8058 	ldr	r8, [pc, #58]	; d3c <do_exec+0x8c>
     ce0:	e59f7058 	ldr	r7, [pc, #58]	; d40 <do_exec+0x90>
     ce4:	e1a04006 	mov	r4, r6
     ce8:	e5942000 	ldr	r2, [r4]
     cec:	e7980102 	ldr	r0, [r8, r2, lsl #2]
     cf0:	e5973000 	ldr	r3, [r7]
     cf4:	e1500003 	cmp	r0, r3
     cf8:	0a00033f 	beq	d04 <do_exec+0x54>
     cfc:	ebfffffe 	bl	0 <_start>
     d00:	e5962000 	ldr	r2, [r6]
     d04:	e2423001 	sub	r3, r2, #1	; 0x1
     d08:	e3530000 	cmp	r3, #0	; 0x0
     d0c:	e5843000 	str	r3, [r4]
     d10:	aa000338 	bge	ce8 <do_exec+0x38>
     d14:	e3a03000 	mov	r3, #0	; 0x0
     d18:	e785310a 	str	r3, [r5, sl, lsl #2]
     d1c:	e1a01005 	mov	r1, r5
     d20:	e5b10004 	ldr	r0, [r1, #4]!
     d24:	ebfffffe 	bl	0 <_start>
     d28:	e5950004 	ldr	r0, [r5, #4]
     d2c:	ebfffffe 	bl	0 <_start>
     d30:	e3a00001 	mov	r0, #1	; 0x1
     d34:	ebfffffe 	bl	0 <_start>
     d38:	00000130 	andeq	r0, r0, r0, lsr r1
     d3c:	00000108 	andeq	r0, r0, r8, lsl #2
     d40:	00000000 	andeq	r0, r0, r0

00000d44 <showprompt>:
     d44:	e1a0c00d 	mov	ip, sp
     d48:	e92dd810 	stmdb	sp!, {r4, fp, ip, lr, pc}
     d4c:	e24cb004 	sub	fp, ip, #4	; 0x4
     d50:	e24b404c 	sub	r4, fp, #76	; 0x4c
     d54:	e24dd03c 	sub	sp, sp, #60	; 0x3c
     d58:	e3a03000 	mov	r3, #0	; 0x0
     d5c:	e3a0103b 	mov	r1, #59	; 0x3b
     d60:	e1a00004 	mov	r0, r4
     d64:	e54b304c 	strb	r3, [fp, -#76]
     d68:	ebfffffe 	bl	0 <_start>
     d6c:	e1a01004 	mov	r1, r4
     d70:	e59f0010 	ldr	r0, [pc, #10]	; d88 <showprompt+0x44>
     d74:	ebfffffe 	bl	0 <_start>
     d78:	e59f300c 	ldr	r3, [pc, #c]	; d8c <showprompt+0x48>
     d7c:	e5930000 	ldr	r0, [r3]
     d80:	ebfffffe 	bl	0 <_start>
     d84:	e91ba810 	ldmdb	fp, {r4, fp, sp, pc}
     d88:	0000018c 	andeq	r0, r0, ip, lsl #3
     d8c:	00000000 	andeq	r0, r0, r0

00000d90 <catchint>:
     d90:	e1a0c00d 	mov	ip, sp
     d94:	e59f103c 	ldr	r1, [pc, #3c]	; dd8 <catchint+0x48>
     d98:	e3a00002 	mov	r0, #2	; 0x2
     d9c:	e92dd800 	stmdb	sp!, {fp, ip, lr, pc}
     da0:	e24cb004 	sub	fp, ip, #4	; 0x4
     da4:	ebfffffe 	bl	0 <_start>
     da8:	e59f302c 	ldr	r3, [pc, #2c]	; ddc <catchint+0x4c>
     dac:	e5932000 	ldr	r2, [r3]
     db0:	e3a0c001 	mov	ip, #1	; 0x1
     db4:	e59f3024 	ldr	r3, [pc, #24]	; de0 <catchint+0x50>
     db8:	e3520000 	cmp	r2, #0	; 0x0
     dbc:	e1a0000c 	mov	r0, ip
     dc0:	e59f101c 	ldr	r1, [pc, #1c]	; de4 <catchint+0x54>
     dc4:	e1a02000 	mov	r2, r0
     dc8:	e583c000 	str	ip, [r3]
     dcc:	091ba800 	ldmeqdb	fp, {fp, sp, pc}
     dd0:	e91b6800 	ldmdb	fp, {fp, sp, lr}
     dd4:	eafffffe 	b	0 <_start>
     dd8:	00000d90 	muleq	r0, r0, sp
     ddc:	00001f2c 	andeq	r1, r0, ip, lsr #30
     de0:	00000000 	andeq	r0, r0, r0
     de4:	00000194 	muleq	r0, r4, r1

00000de8 <catchquit>:
     de8:	e1a0c00d 	mov	ip, sp
     dec:	e59f103c 	ldr	r1, [pc, #3c]	; e30 <catchquit+0x48>
     df0:	e3a00003 	mov	r0, #3	; 0x3
     df4:	e92dd800 	stmdb	sp!, {fp, ip, lr, pc}
     df8:	e24cb004 	sub	fp, ip, #4	; 0x4
     dfc:	ebfffffe 	bl	0 <_start>
     e00:	e59f302c 	ldr	r3, [pc, #2c]	; e34 <catchquit+0x4c>
     e04:	e5932000 	ldr	r2, [r3]
     e08:	e3a0c001 	mov	ip, #1	; 0x1
     e0c:	e59f3024 	ldr	r3, [pc, #24]	; e38 <catchquit+0x50>
     e10:	e3520000 	cmp	r2, #0	; 0x0
     e14:	e1a0000c 	mov	r0, ip
     e18:	e59f101c 	ldr	r1, [pc, #1c]	; e3c <catchquit+0x54>
     e1c:	e1a02000 	mov	r2, r0
     e20:	e583c000 	str	ip, [r3]
     e24:	091ba800 	ldmeqdb	fp, {fp, sp, pc}
     e28:	e91b6800 	ldmdb	fp, {fp, sp, lr}
     e2c:	eafffffe 	b	0 <_start>
     e30:	00000de8 	andeq	r0, r0, r8, ror #27
     e34:	00001f2c 	andeq	r1, r0, ip, lsr #30
     e38:	00000000 	andeq	r0, r0, r0
     e3c:	00000194 	muleq	r0, r4, r1

00000e40 <catchchild>:
     e40:	e1a0c00d 	mov	ip, sp
     e44:	e92dd830 	stmdb	sp!, {r4, r5, fp, ip, lr, pc}
     e48:	e24cb004 	sub	fp, ip, #4	; 0x4
     e4c:	e24bc044 	sub	ip, fp, #68	; 0x44
     e50:	e24dd030 	sub	sp, sp, #48	; 0x30
     e54:	e3a03000 	mov	r3, #0	; 0x0
     e58:	e1a0100c 	mov	r1, ip
     e5c:	e3e00000 	mvn	r0, #0	; 0x0
     e60:	e3a02002 	mov	r2, #2	; 0x2
     e64:	e50bc040 	str	ip, [fp, -#64]
     e68:	ebfffffe 	bl	0 <_start>
     e6c:	e55b3044 	ldrb	r3, [fp, -#68]
     e70:	e353007f 	cmp	r3, #127	; 0x7f
     e74:	e1a04000 	mov	r4, r0
     e78:	0a0003b3 	beq	ed4 <catchchild+0x94>
     e7c:	ebfffffe 	bl	0 <_start>
     e80:	e24b503c 	sub	r5, fp, #60	; 0x3c
     e84:	e1a02000 	mov	r2, r0
     e88:	e59f1064 	ldr	r1, [pc, #64]	; ef4 <catchchild+0xb4>
     e8c:	e1a03004 	mov	r3, r4
     e90:	e1a00005 	mov	r0, r5
     e94:	ebfffffe 	bl	0 <_start>
     e98:	e59f3058 	ldr	r3, [pc, #58]	; ef8 <catchchild+0xb8>
     e9c:	e593c000 	ldr	ip, [r3]
     ea0:	e3a00001 	mov	r0, #1	; 0x1
     ea4:	e35c0000 	cmp	ip, #0	; 0x0
     ea8:	e59f104c 	ldr	r1, [pc, #4c]	; efc <catchchild+0xbc>
     eac:	e1a02000 	mov	r2, r0
     eb0:	0a0003ac 	beq	eb8 <catchchild+0x78>
     eb4:	ebfffffe 	bl	0 <_start>
     eb8:	e1a00005 	mov	r0, r5
     ebc:	ebfffffe 	bl	0 <_start>
     ec0:	e1a01005 	mov	r1, r5
     ec4:	e1a02000 	mov	r2, r0
     ec8:	e3a00001 	mov	r0, #1	; 0x1
     ecc:	ebfffffe 	bl	0 <_start>
     ed0:	e91ba830 	ldmdb	fp, {r4, r5, fp, sp, pc}
     ed4:	ebfffffe 	bl	0 <_start>
     ed8:	e24b503c 	sub	r5, fp, #60	; 0x3c
     edc:	e1a02000 	mov	r2, r0
     ee0:	e59f1018 	ldr	r1, [pc, #18]	; f00 <catchchild+0xc0>
     ee4:	e1a03004 	mov	r3, r4
     ee8:	e1a00005 	mov	r0, r5
     eec:	ebfffffe 	bl	0 <_start>
     ef0:	ea0003a4 	b	e98 <catchchild+0x58>
     ef4:	00000198 	muleq	r0, r8, r1
     ef8:	00001f2c 	andeq	r1, r0, ip, lsr #30
     efc:	00000194 	muleq	r0, r4, r1
     f00:	000001b0 	streqh	r0, [r0], -r0

00000f04 <do_echo>:
     f04:	e1a0c00d 	mov	ip, sp
     f08:	e92dd8f0 	stmdb	sp!, {r4, r5, r6, r7, fp, ip, lr, pc}
     f0c:	e1a04000 	mov	r4, r0
     f10:	e1a03004 	mov	r3, r4
     f14:	e3530001 	cmp	r3, #1	; 0x1
     f18:	e24cb004 	sub	fp, ip, #4	; 0x4
     f1c:	e1a05001 	mov	r5, r1
     f20:	e3a07001 	mov	r7, #1	; 0x1
     f24:	e2444001 	sub	r4, r4, #1	; 0x1
     f28:	da0003d5 	ble	f5c <do_echo+0x58>
     f2c:	e59f6048 	ldr	r6, [pc, #48]	; f7c <do_echo+0x78>
     f30:	e3570000 	cmp	r7, #0	; 0x0
     f34:	e3a00020 	mov	r0, #32	; 0x20
     f38:	e3a07000 	mov	r7, #0	; 0x0
     f3c:	0a0003da 	beq	f70 <do_echo+0x6c>
     f40:	e5b50004 	ldr	r0, [r5, #4]!
     f44:	e5961000 	ldr	r1, [r6]
     f48:	ebfffffe 	bl	0 <_start>
     f4c:	e1a03004 	mov	r3, r4
     f50:	e3530001 	cmp	r3, #1	; 0x1
     f54:	e2444001 	sub	r4, r4, #1	; 0x1
     f58:	ca0003ca 	bgt	f30 <do_echo+0x2c>
     f5c:	e59f3018 	ldr	r3, [pc, #18]	; f7c <do_echo+0x78>
     f60:	e5931000 	ldr	r1, [r3]
     f64:	e3a0000a 	mov	r0, #10	; 0xa
     f68:	e91b68f0 	ldmdb	fp, {r4, r5, r6, r7, fp, sp, lr}
     f6c:	eafffffe 	b	0 <_start>
     f70:	e5961000 	ldr	r1, [r6]
     f74:	ebfffffe 	bl	0 <_start>
     f78:	ea0003ce 	b	f40 <do_echo+0x3c>
     f7c:	00000000 	andeq	r0, r0, r0

00000f80 <do_pwd>:
     f80:	e1a0c00d 	mov	ip, sp
     f84:	e92dd810 	stmdb	sp!, {r4, fp, ip, lr, pc}
     f88:	e24cb004 	sub	fp, ip, #4	; 0x4
     f8c:	e24b4e11 	sub	r4, fp, #272	; 0x110
     f90:	e24ddc01 	sub	sp, sp, #256	; 0x100
     f94:	e3a01c01 	mov	r1, #256	; 0x100
     f98:	e1a00004 	mov	r0, r4
     f9c:	ebfffffe 	bl	0 <_start>
     fa0:	e1a03000 	mov	r3, r0
     fa4:	e3530000 	cmp	r3, #0	; 0x0
     fa8:	e59f1020 	ldr	r1, [pc, #20]	; fd0 <do_pwd+0x50>
     fac:	e59f0020 	ldr	r0, [pc, #20]	; fd4 <do_pwd+0x54>
     fb0:	0a0003ee 	beq	fc0 <do_pwd+0x40>
     fb4:	e1a01004 	mov	r1, r4
     fb8:	ebfffffe 	bl	0 <_start>
     fbc:	e91ba810 	ldmdb	fp, {r4, fp, sp, pc}
     fc0:	e59f3010 	ldr	r3, [pc, #10]	; fd8 <do_pwd+0x58>
     fc4:	e5930000 	ldr	r0, [r3]
     fc8:	ebfffffe 	bl	0 <_start>
     fcc:	e91ba810 	ldmdb	fp, {r4, fp, sp, pc}
     fd0:	000001cc 	andeq	r0, r0, ip, asr #3
     fd4:	000001ec 	andeq	r0, r0, ip, ror #3
     fd8:	00000000 	andeq	r0, r0, r0

00000fdc <do_time>:
     fdc:	e1a0c00d 	mov	ip, sp
     fe0:	e92dd800 	stmdb	sp!, {fp, ip, lr, pc}
     fe4:	e24cb004 	sub	fp, ip, #4	; 0x4
     fe8:	e24dd008 	sub	sp, sp, #8	; 0x8
     fec:	e24b0014 	sub	r0, fp, #20	; 0x14
     ff0:	e3a01000 	mov	r1, #0	; 0x0
     ff4:	ebfffffe 	bl	0 <_start>
     ff8:	e59f000c 	ldr	r0, [pc, #c]	; 100c <do_time+0x30>
     ffc:	e24b1014 	sub	r1, fp, #20	; 0x14
    1000:	e8910006 	ldmia	r1, {r1, r2}
    1004:	ebfffffe 	bl	0 <_start>
    1008:	e91ba800 	ldmdb	fp, {fp, sp, pc}
    100c:	000001f0 	streqd	r0, [r0], -r0

00001010 <do_cd>:
    1010:	e1a0c00d 	mov	ip, sp
    1014:	e92dd810 	stmdb	sp!, {r4, fp, ip, lr, pc}
    1018:	e1a03000 	mov	r3, r0
    101c:	e3530001 	cmp	r3, #1	; 0x1
    1020:	e24cb004 	sub	fp, ip, #4	; 0x4
    1024:	e59f0048 	ldr	r0, [pc, #48]	; 1074 <do_cd+0x64>
    1028:	c5914004 	ldrgt	r4, [r1, #4]
    102c:	ca00040f 	bgt	1044 <do_cd+0x34>
    1030:	ebfffffe 	bl	0 <_start>
    1034:	e1a04000 	mov	r4, r0
    1038:	e3540000 	cmp	r4, #0	; 0x0
    103c:	e59f1034 	ldr	r1, [pc, #34]	; 1078 <do_cd+0x68>
    1040:	0a000417 	beq	1064 <do_cd+0x54>
    1044:	e1a00004 	mov	r0, r4
    1048:	ebfffffe 	bl	0 <_start>
    104c:	e1a03000 	mov	r3, r0
    1050:	e3530000 	cmp	r3, #0	; 0x0
    1054:	e1a00004 	mov	r0, r4
    1058:	a91ba810 	ldmgedb	fp, {r4, fp, sp, pc}
    105c:	ebfffffe 	bl	0 <_start>
    1060:	e91ba810 	ldmdb	fp, {r4, fp, sp, pc}
    1064:	e59f3010 	ldr	r3, [pc, #10]	; 107c <do_cd+0x6c>
    1068:	e5930000 	ldr	r0, [r3]
    106c:	e91b6810 	ldmdb	fp, {r4, fp, sp, lr}
    1070:	eafffffe 	b	0 <_start>
    1074:	00000210 	andeq	r0, r0, r0, lsl r2
    1078:	00000218 	andeq	r0, r0, r8, lsl r2
    107c:	00000000 	andeq	r0, r0, r0

00001080 <do_mkdir>:
    1080:	e1a0c00d 	mov	ip, sp
    1084:	e92dd830 	stmdb	sp!, {r4, r5, fp, ip, lr, pc}
    1088:	e1a05000 	mov	r5, r0
    108c:	e1a03005 	mov	r3, r5
    1090:	e3530001 	cmp	r3, #1	; 0x1
    1094:	e24cb004 	sub	fp, ip, #4	; 0x4
    1098:	e1a04001 	mov	r4, r1
    109c:	e2455001 	sub	r5, r5, #1	; 0x1
    10a0:	d91ba830 	ldmledb	fp, {r4, r5, fp, sp, pc}
    10a4:	e3a01f7f 	mov	r1, #508	; 0x1fc
    10a8:	e5940004 	ldr	r0, [r4, #4]
    10ac:	e2811003 	add	r1, r1, #3	; 0x3
    10b0:	ebfffffe 	bl	0 <_start>
    10b4:	e3500000 	cmp	r0, #0	; 0x0
    10b8:	ba000433 	blt	10d4 <do_mkdir+0x54>
    10bc:	e1a03005 	mov	r3, r5
    10c0:	e3530001 	cmp	r3, #1	; 0x1
    10c4:	e2844004 	add	r4, r4, #4	; 0x4
    10c8:	e2455001 	sub	r5, r5, #1	; 0x1
    10cc:	ca000427 	bgt	10a4 <do_mkdir+0x24>
    10d0:	e91ba830 	ldmdb	fp, {r4, r5, fp, sp, pc}
    10d4:	e5940004 	ldr	r0, [r4, #4]
    10d8:	ebfffffe 	bl	0 <_start>
    10dc:	ea00042d 	b	10bc <do_mkdir+0x3c>

000010e0 <do_sleep>:
    10e0:	e1a0c00d 	mov	ip, sp
    10e4:	e3500001 	cmp	r0, #1	; 0x1
    10e8:	e92dd800 	stmdb	sp!, {fp, ip, lr, pc}
    10ec:	e24cb004 	sub	fp, ip, #4	; 0x4
    10f0:	d91ba800 	ldmledb	fp, {fp, sp, pc}
    10f4:	e5910004 	ldr	r0, [r1, #4]
    10f8:	ebfffffe 	bl	0 <_start>
    10fc:	e91b6800 	ldmdb	fp, {fp, sp, lr}
    1100:	eafffffe 	b	0 <_start>

00001104 <do_mknod>:
    1104:	e1a0c00d 	mov	ip, sp
    1108:	e92dd870 	stmdb	sp!, {r4, r5, r6, fp, ip, lr, pc}
    110c:	e1a06001 	mov	r6, r1
    1110:	e5964008 	ldr	r4, [r6, #8]
    1114:	e59f113c 	ldr	r1, [pc, #13c]	; 1258 <do_mknod+0x154>
    1118:	e1a00004 	mov	r0, r4
    111c:	e24cb004 	sub	fp, ip, #4	; 0x4
    1120:	ebfffffe 	bl	0 <_start>
    1124:	e3a05f6d 	mov	r5, #436	; 0x1b4
    1128:	e3500000 	cmp	r0, #0	; 0x0
    112c:	e2855002 	add	r5, r5, #2	; 0x2
    1130:	03855a06 	orreq	r5, r5, #24576	; 0x6000
    1134:	0a000457 	beq	1164 <do_mknod+0x60>
    1138:	e1a00004 	mov	r0, r4
    113c:	e59f1118 	ldr	r1, [pc, #118]	; 125c <do_mknod+0x158>
    1140:	ebfffffe 	bl	0 <_start>
    1144:	e3500000 	cmp	r0, #0	; 0x0
    1148:	03855a02 	orreq	r5, r5, #8192	; 0x2000
    114c:	0a000457 	beq	1164 <do_mknod+0x60>
    1150:	e59f3108 	ldr	r3, [pc, #108]	; 1260 <do_mknod+0x15c>
    1154:	e59f1108 	ldr	r1, [pc, #108]	; 1264 <do_mknod+0x160>
    1158:	e5930000 	ldr	r0, [r3]
    115c:	e91b6870 	ldmdb	fp, {r4, r5, r6, fp, sp, lr}
    1160:	eafffffe 	b	0 <_start>
    1164:	e596000c 	ldr	r0, [r6, #12]
    1168:	e5d0c000 	ldrb	ip, [r0]
    116c:	e28c30d0 	add	r3, ip, #208	; 0xd0
    1170:	e20330ff 	and	r3, r3, #255	; 0xff
    1174:	e3530009 	cmp	r3, #9	; 0x9
    1178:	e3a04000 	mov	r4, #0	; 0x0
    117c:	8a000467 	bhi	11a4 <do_mknod+0xa0>
    1180:	e5d03000 	ldrb	r3, [r0]
    1184:	e5f0c001 	ldrb	ip, [r0, #1]!
    1188:	e28c20d0 	add	r2, ip, #208	; 0xd0
    118c:	e0841104 	add	r1, r4, r4, lsl #2
    1190:	e20220ff 	and	r2, r2, #255	; 0xff
    1194:	e0833081 	add	r3, r3, r1, lsl #1
    1198:	e3520009 	cmp	r2, #9	; 0x9
    119c:	e2434030 	sub	r4, r3, #48	; 0x30
    11a0:	9a00045e 	bls	1180 <do_mknod+0x7c>
    11a4:	e1a03fa4 	mov	r3, r4, lsr #31
    11a8:	e35c0000 	cmp	ip, #0	; 0x0
    11ac:	01a02003 	moveq	r2, r3
    11b0:	13832001 	orrne	r2, r3, #1	; 0x1
    11b4:	e3520000 	cmp	r2, #0	; 0x0
    11b8:	0a000472 	beq	11d0 <do_mknod+0xcc>
    11bc:	e59f309c 	ldr	r3, [pc, #9c]	; 1260 <do_mknod+0x15c>
    11c0:	e59f10a0 	ldr	r1, [pc, #a0]	; 1268 <do_mknod+0x164>
    11c4:	e5930000 	ldr	r0, [r3]
    11c8:	e91b6870 	ldmdb	fp, {r4, r5, r6, fp, sp, lr}
    11cc:	eafffffe 	b	0 <_start>
    11d0:	e35400ff 	cmp	r4, #255	; 0xff
    11d4:	d5960010 	ldrle	r0, [r6, #16]
    11d8:	ca00046d 	bgt	11bc <do_mknod+0xb8>
    11dc:	e5d01000 	ldrb	r1, [r0]
    11e0:	e28130d0 	add	r3, r1, #208	; 0xd0
    11e4:	e20330ff 	and	r3, r3, #255	; 0xff
    11e8:	e3530009 	cmp	r3, #9	; 0x9
    11ec:	94d03001 	ldrlsb	r3, [r0], #1
    11f0:	e082c102 	add	ip, r2, r2, lsl #2
    11f4:	9083308c 	addls	r3, r3, ip, lsl #1
    11f8:	92432030 	subls	r2, r3, #48	; 0x30
    11fc:	9a000475 	bls	11dc <do_mknod+0xd8>
    1200:	e1a03fa2 	mov	r3, r2, lsr #31
    1204:	e3510000 	cmp	r1, #0	; 0x0
    1208:	13833001 	orrne	r3, r3, #1	; 0x1
    120c:	e3530000 	cmp	r3, #0	; 0x0
    1210:	0a000488 	beq	1228 <do_mknod+0x124>
    1214:	e59f3044 	ldr	r3, [pc, #44]	; 1260 <do_mknod+0x15c>
    1218:	e59f104c 	ldr	r1, [pc, #4c]	; 126c <do_mknod+0x168>
    121c:	e5930000 	ldr	r0, [r3]
    1220:	e91b6870 	ldmdb	fp, {r4, r5, r6, fp, sp, lr}
    1224:	eafffffe 	b	0 <_start>
    1228:	e35200ff 	cmp	r2, #255	; 0xff
    122c:	ca000483 	bgt	1214 <do_mknod+0x110>
    1230:	e0822404 	add	r2, r2, r4, lsl #8
    1234:	e5960004 	ldr	r0, [r6, #4]
    1238:	e1a03fc2 	mov	r3, r2, asr #31
    123c:	e1a01005 	mov	r1, r5
    1240:	ebfffffe 	bl	0 <_start>
    1244:	e3500000 	cmp	r0, #0	; 0x0
    1248:	a91ba870 	ldmgedb	fp, {r4, r5, r6, fp, sp, pc}
    124c:	e5960004 	ldr	r0, [r6, #4]
    1250:	ebfffffe 	bl	0 <_start>
    1254:	e91ba870 	ldmdb	fp, {r4, r5, r6, fp, sp, pc}
    1258:	00000238 	andeq	r0, r0, r8, lsr r2
    125c:	0000023c 	andeq	r0, r0, ip, lsr r2
    1260:	00000000 	andeq	r0, r0, r0
    1264:	00000240 	andeq	r0, r0, r0, asr #4
    1268:	00000254 	andeq	r0, r0, r4, asr r2
    126c:	00000268 	andeq	r0, r0, r8, ror #4

00001270 <do_rmdir>:
    1270:	e1a0c00d 	mov	ip, sp
    1274:	e92dd830 	stmdb	sp!, {r4, r5, fp, ip, lr, pc}
    1278:	e1a05000 	mov	r5, r0
    127c:	e1a03005 	mov	r3, r5
    1280:	e3530001 	cmp	r3, #1	; 0x1
    1284:	e24cb004 	sub	fp, ip, #4	; 0x4
    1288:	e1a04001 	mov	r4, r1
    128c:	e2455001 	sub	r5, r5, #1	; 0x1
    1290:	d91ba830 	ldmledb	fp, {r4, r5, fp, sp, pc}
    1294:	e5940004 	ldr	r0, [r4, #4]
    1298:	ebfffffe 	bl	0 <_start>
    129c:	e3500000 	cmp	r0, #0	; 0x0
    12a0:	ba0004ad 	blt	12bc <do_rmdir+0x4c>
    12a4:	e1a03005 	mov	r3, r5
    12a8:	e3530001 	cmp	r3, #1	; 0x1
    12ac:	e2844004 	add	r4, r4, #4	; 0x4
    12b0:	e2455001 	sub	r5, r5, #1	; 0x1
    12b4:	ca0004a3 	bgt	1294 <do_rmdir+0x24>
    12b8:	e91ba830 	ldmdb	fp, {r4, r5, fp, sp, pc}
    12bc:	e5940004 	ldr	r0, [r4, #4]
    12c0:	ebfffffe 	bl	0 <_start>
    12c4:	ea0004a7 	b	12a4 <do_rmdir+0x34>

000012c8 <do_sync>:
    12c8:	e52de004 	str	lr, [sp, -#4]!
    12cc:	e49de004 	ldr	lr, [sp], #4
    12d0:	eafffffe 	b	0 <_start>

000012d4 <do_rm>:
    12d4:	e1a0c00d 	mov	ip, sp
    12d8:	e92dd830 	stmdb	sp!, {r4, r5, fp, ip, lr, pc}
    12dc:	e1a05000 	mov	r5, r0
    12e0:	e1a03005 	mov	r3, r5
    12e4:	e3530001 	cmp	r3, #1	; 0x1
    12e8:	e24cb004 	sub	fp, ip, #4	; 0x4
    12ec:	e1a04001 	mov	r4, r1
    12f0:	e2455001 	sub	r5, r5, #1	; 0x1
    12f4:	d91ba830 	ldmledb	fp, {r4, r5, fp, sp, pc}
    12f8:	e5940004 	ldr	r0, [r4, #4]
    12fc:	ebfffffe 	bl	0 <_start>
    1300:	e3500000 	cmp	r0, #0	; 0x0
    1304:	ba0004c6 	blt	1320 <do_rm+0x4c>
    1308:	e1a03005 	mov	r3, r5
    130c:	e3530001 	cmp	r3, #1	; 0x1
    1310:	e2844004 	add	r4, r4, #4	; 0x4
    1314:	e2455001 	sub	r5, r5, #1	; 0x1
    1318:	ca0004bc 	bgt	12f8 <do_rm+0x24>
    131c:	e91ba830 	ldmdb	fp, {r4, r5, fp, sp, pc}
    1320:	e5940004 	ldr	r0, [r4, #4]
    1324:	ebfffffe 	bl	0 <_start>
    1328:	ea0004c0 	b	1308 <do_rm+0x34>

0000132c <do_chmod>:
    132c:	e1a0c00d 	mov	ip, sp
    1330:	e92dd870 	stmdb	sp!, {r4, r5, r6, fp, ip, lr, pc}
    1334:	e1a05001 	mov	r5, r1
    1338:	e5951004 	ldr	r1, [r5, #4]
    133c:	e24cb004 	sub	fp, ip, #4	; 0x4
    1340:	e5d1c000 	ldrb	ip, [r1]
    1344:	e28c30d0 	add	r3, ip, #208	; 0xd0
    1348:	e20330ff 	and	r3, r3, #255	; 0xff
    134c:	e3530007 	cmp	r3, #7	; 0x7
    1350:	e1a04000 	mov	r4, r0
    1354:	e3a06000 	mov	r6, #0	; 0x0
    1358:	8a0004dd 	bhi	137c <do_chmod+0x50>
    135c:	e5d12000 	ldrb	r2, [r1]
    1360:	e5f1c001 	ldrb	ip, [r1, #1]!
    1364:	e28c30d0 	add	r3, ip, #208	; 0xd0
    1368:	e20330ff 	and	r3, r3, #255	; 0xff
    136c:	e0822186 	add	r2, r2, r6, lsl #3
    1370:	e3530007 	cmp	r3, #7	; 0x7
    1374:	e2426030 	sub	r6, r2, #48	; 0x30
    1378:	9a0004d5 	bls	135c <do_chmod+0x30>
    137c:	e35c0000 	cmp	ip, #0	; 0x0
    1380:	0a0004e4 	beq	1398 <do_chmod+0x6c>
    1384:	e59f305c 	ldr	r3, [pc, #5c]	; 13e8 <do_chmod+0xbc>
    1388:	e59f105c 	ldr	r1, [pc, #5c]	; 13ec <do_chmod+0xc0>
    138c:	e5930000 	ldr	r0, [r3]
    1390:	e91b6870 	ldmdb	fp, {r4, r5, r6, fp, sp, lr}
    1394:	eafffffe 	b	0 <_start>
    1398:	e2444001 	sub	r4, r4, #1	; 0x1
    139c:	e1a03004 	mov	r3, r4
    13a0:	e3530001 	cmp	r3, #1	; 0x1
    13a4:	e2855004 	add	r5, r5, #4	; 0x4
    13a8:	e2444001 	sub	r4, r4, #1	; 0x1
    13ac:	d91ba870 	ldmledb	fp, {r4, r5, r6, fp, sp, pc}
    13b0:	e5950004 	ldr	r0, [r5, #4]
    13b4:	e1a01006 	mov	r1, r6
    13b8:	ebfffffe 	bl	0 <_start>
    13bc:	e3500000 	cmp	r0, #0	; 0x0
    13c0:	ba0004f5 	blt	13dc <do_chmod+0xb0>
    13c4:	e1a03004 	mov	r3, r4
    13c8:	e3530001 	cmp	r3, #1	; 0x1
    13cc:	e2855004 	add	r5, r5, #4	; 0x4
    13d0:	e2444001 	sub	r4, r4, #1	; 0x1
    13d4:	ca0004ea 	bgt	13b0 <do_chmod+0x84>
    13d8:	e91ba870 	ldmdb	fp, {r4, r5, r6, fp, sp, pc}
    13dc:	e5950004 	ldr	r0, [r5, #4]
    13e0:	ebfffffe 	bl	0 <_start>
    13e4:	ea0004ef 	b	13c4 <do_chmod+0x98>
    13e8:	00000000 	andeq	r0, r0, r0
    13ec:	0000027c 	andeq	r0, r0, ip, ror r2

000013f0 <do_chown>:
    13f0:	e1a0c00d 	mov	ip, sp
    13f4:	e92dd8f0 	stmdb	sp!, {r4, r5, r6, r7, fp, ip, lr, pc}
    13f8:	e24cb004 	sub	fp, ip, #4	; 0x4
    13fc:	e24dd058 	sub	sp, sp, #88	; 0x58
    1400:	e1a05001 	mov	r5, r1
    1404:	e595c004 	ldr	ip, [r5, #4]
    1408:	e5dc3000 	ldrb	r3, [ip]
    140c:	e28330d0 	add	r3, r3, #208	; 0xd0
    1410:	e20330ff 	and	r3, r3, #255	; 0xff
    1414:	e3530009 	cmp	r3, #9	; 0x9
    1418:	e1a04000 	mov	r4, r0
    141c:	8a00052e 	bhi	14c0 <do_chown+0xd0>
    1420:	e3a06000 	mov	r6, #0	; 0x0
    1424:	e5dc3000 	ldrb	r3, [ip]
    1428:	e5fc0001 	ldrb	r0, [ip, #1]!
    142c:	e28020d0 	add	r2, r0, #208	; 0xd0
    1430:	e0861106 	add	r1, r6, r6, lsl #2
    1434:	e20220ff 	and	r2, r2, #255	; 0xff
    1438:	e0833081 	add	r3, r3, r1, lsl #1
    143c:	e3520009 	cmp	r2, #9	; 0x9
    1440:	e2436030 	sub	r6, r3, #48	; 0x30
    1444:	9a000507 	bls	1424 <do_chown+0x34>
    1448:	e3500000 	cmp	r0, #0	; 0x0
    144c:	159f3094 	ldrne	r3, [pc, #94]	; 14e8 <do_chown+0xf8>
    1450:	159f1094 	ldrne	r1, [pc, #94]	; 14ec <do_chown+0xfc>
    1454:	1a000535 	bne	14dc <do_chown+0xec>
    1458:	e2444001 	sub	r4, r4, #1	; 0x1
    145c:	e1a03004 	mov	r3, r4
    1460:	e3530001 	cmp	r3, #1	; 0x1
    1464:	e2855004 	add	r5, r5, #4	; 0x4
    1468:	e2444001 	sub	r4, r4, #1	; 0x1
    146c:	d91ba8f0 	ldmledb	fp, {r4, r5, r6, r7, fp, sp, pc}
    1470:	e24b7074 	sub	r7, fp, #116	; 0x74
    1474:	e1a01007 	mov	r1, r7
    1478:	e5b50004 	ldr	r0, [r5, #4]!
    147c:	ebfffffe 	bl	0 <_start>
    1480:	e3500000 	cmp	r0, #0	; 0x0
    1484:	e1a01006 	mov	r1, r6
    1488:	ba00052b 	blt	14b4 <do_chown+0xc4>
    148c:	e51b2058 	ldr	r2, [fp, -#88]
    1490:	e5950000 	ldr	r0, [r5]
    1494:	ebfffffe 	bl	0 <_start>
    1498:	e3500000 	cmp	r0, #0	; 0x0
    149c:	ba00052b 	blt	14b4 <do_chown+0xc4>
    14a0:	e1a03004 	mov	r3, r4
    14a4:	e3530001 	cmp	r3, #1	; 0x1
    14a8:	e2444001 	sub	r4, r4, #1	; 0x1
    14ac:	ca00051b 	bgt	1474 <do_chown+0x84>
    14b0:	e91ba8f0 	ldmdb	fp, {r4, r5, r6, r7, fp, sp, pc}
    14b4:	e5950000 	ldr	r0, [r5]
    14b8:	ebfffffe 	bl	0 <_start>
    14bc:	ea000526 	b	14a0 <do_chown+0xb0>
    14c0:	e1a0000c 	mov	r0, ip
    14c4:	ebfffffe 	bl	0 <_start>
    14c8:	e3500000 	cmp	r0, #0	; 0x0
    14cc:	15906008 	ldrne	r6, [r0, #8]
    14d0:	1a000514 	bne	1458 <do_chown+0x68>
    14d4:	e59f300c 	ldr	r3, [pc, #c]	; 14e8 <do_chown+0xf8>
    14d8:	e59f1010 	ldr	r1, [pc, #10]	; 14f0 <do_chown+0x100>
    14dc:	e5930000 	ldr	r0, [r3]
    14e0:	ebfffffe 	bl	0 <_start>
    14e4:	e91ba8f0 	ldmdb	fp, {r4, r5, r6, r7, fp, sp, pc}
    14e8:	00000000 	andeq	r0, r0, r0
    14ec:	00000290 	muleq	r0, r0, r2
    14f0:	000002a0 	andeq	r0, r0, r0, lsr #5

000014f4 <do_chgrp>:
    14f4:	e1a0c00d 	mov	ip, sp
    14f8:	e92dd8f0 	stmdb	sp!, {r4, r5, r6, r7, fp, ip, lr, pc}
    14fc:	e24cb004 	sub	fp, ip, #4	; 0x4
    1500:	e24dd058 	sub	sp, sp, #88	; 0x58
    1504:	e1a05001 	mov	r5, r1
    1508:	e595c004 	ldr	ip, [r5, #4]
    150c:	e5dc3000 	ldrb	r3, [ip]
    1510:	e28330d0 	add	r3, r3, #208	; 0xd0
    1514:	e20330ff 	and	r3, r3, #255	; 0xff
    1518:	e3530009 	cmp	r3, #9	; 0x9
    151c:	e1a04000 	mov	r4, r0
    1520:	8a00056f 	bhi	15c4 <do_chgrp+0xd0>
    1524:	e3a06000 	mov	r6, #0	; 0x0
    1528:	e5dc3000 	ldrb	r3, [ip]
    152c:	e5fc0001 	ldrb	r0, [ip, #1]!
    1530:	e28020d0 	add	r2, r0, #208	; 0xd0
    1534:	e0861106 	add	r1, r6, r6, lsl #2
    1538:	e20220ff 	and	r2, r2, #255	; 0xff
    153c:	e0833081 	add	r3, r3, r1, lsl #1
    1540:	e3520009 	cmp	r2, #9	; 0x9
    1544:	e2436030 	sub	r6, r3, #48	; 0x30
    1548:	9a000548 	bls	1528 <do_chgrp+0x34>
    154c:	e3500000 	cmp	r0, #0	; 0x0
    1550:	159f3094 	ldrne	r3, [pc, #94]	; 15ec <do_chgrp+0xf8>
    1554:	159f1094 	ldrne	r1, [pc, #94]	; 15f0 <do_chgrp+0xfc>
    1558:	1a000576 	bne	15e0 <do_chgrp+0xec>
    155c:	e2444001 	sub	r4, r4, #1	; 0x1
    1560:	e1a03004 	mov	r3, r4
    1564:	e3530001 	cmp	r3, #1	; 0x1
    1568:	e2855004 	add	r5, r5, #4	; 0x4
    156c:	e2444001 	sub	r4, r4, #1	; 0x1
    1570:	d91ba8f0 	ldmledb	fp, {r4, r5, r6, r7, fp, sp, pc}
    1574:	e24b7074 	sub	r7, fp, #116	; 0x74
    1578:	e5b50004 	ldr	r0, [r5, #4]!
    157c:	e1a01007 	mov	r1, r7
    1580:	ebfffffe 	bl	0 <_start>
    1584:	e3500000 	cmp	r0, #0	; 0x0
    1588:	e1a02006 	mov	r2, r6
    158c:	ba00056c 	blt	15b8 <do_chgrp+0xc4>
    1590:	e51b105c 	ldr	r1, [fp, -#92]
    1594:	e5950000 	ldr	r0, [r5]
    1598:	ebfffffe 	bl	0 <_start>
    159c:	e3500000 	cmp	r0, #0	; 0x0
    15a0:	ba00056c 	blt	15b8 <do_chgrp+0xc4>
    15a4:	e1a03004 	mov	r3, r4
    15a8:	e3530001 	cmp	r3, #1	; 0x1
    15ac:	e2444001 	sub	r4, r4, #1	; 0x1
    15b0:	ca00055c 	bgt	1578 <do_chgrp+0x84>
    15b4:	e91ba8f0 	ldmdb	fp, {r4, r5, r6, r7, fp, sp, pc}
    15b8:	e5950000 	ldr	r0, [r5]
    15bc:	ebfffffe 	bl	0 <_start>
    15c0:	ea000567 	b	15a4 <do_chgrp+0xb0>
    15c4:	e1a0000c 	mov	r0, ip
    15c8:	ebfffffe 	bl	0 <_start>
    15cc:	e3500000 	cmp	r0, #0	; 0x0
    15d0:	15906008 	ldrne	r6, [r0, #8]
    15d4:	1a000555 	bne	155c <do_chgrp+0x68>
    15d8:	e59f300c 	ldr	r3, [pc, #c]	; 15ec <do_chgrp+0xf8>
    15dc:	e59f1010 	ldr	r1, [pc, #10]	; 15f4 <do_chgrp+0x100>
    15e0:	e5930000 	ldr	r0, [r3]
    15e4:	ebfffffe 	bl	0 <_start>
    15e8:	e91ba8f0 	ldmdb	fp, {r4, r5, r6, r7, fp, sp, pc}
    15ec:	00000000 	andeq	r0, r0, r0
    15f0:	000002b4 	streqh	r0, [r0], -r4
    15f4:	000002c4 	andeq	r0, r0, r4, asr #5

000015f8 <do_touch>:
    15f8:	e1a0c00d 	mov	ip, sp
    15fc:	e92dd8f0 	stmdb	sp!, {r4, r5, r6, r7, fp, ip, lr, pc}
    1600:	e24cb004 	sub	fp, ip, #4	; 0x4
    1604:	e24b7024 	sub	r7, fp, #36	; 0x24
    1608:	e1a05000 	mov	r5, r0
    160c:	e24dd008 	sub	sp, sp, #8	; 0x8
    1610:	e1a00007 	mov	r0, r7
    1614:	e1a06001 	mov	r6, r1
    1618:	ebfffffe 	bl	0 <_start>
    161c:	e1a03005 	mov	r3, r5
    1620:	e51b2024 	ldr	r2, [fp, -#36]
    1624:	e3530001 	cmp	r3, #1	; 0x1
    1628:	e50b2020 	str	r2, [fp, -#32]
    162c:	e2455001 	sub	r5, r5, #1	; 0x1
    1630:	d91ba8f0 	ldmledb	fp, {r4, r5, r6, r7, fp, sp, pc}
    1634:	e5b64004 	ldr	r4, [r6, #4]!
    1638:	e1a01007 	mov	r1, r7
    163c:	e1a00004 	mov	r0, r4
    1640:	ebfffffe 	bl	0 <_start>
    1644:	e1a03000 	mov	r3, r0
    1648:	e3a02f6d 	mov	r2, #436	; 0x1b4
    164c:	e3530000 	cmp	r3, #0	; 0x0
    1650:	e3a010c1 	mov	r1, #193	; 0xc1
    1654:	e2822002 	add	r2, r2, #2	; 0x2
    1658:	e1a00004 	mov	r0, r4
    165c:	ba00059b 	blt	1674 <do_touch+0x7c>
    1660:	e1a03005 	mov	r3, r5
    1664:	e3530001 	cmp	r3, #1	; 0x1
    1668:	e2455001 	sub	r5, r5, #1	; 0x1
    166c:	ca00058b 	bgt	1634 <do_touch+0x3c>
    1670:	e91ba8f0 	ldmdb	fp, {r4, r5, r6, r7, fp, sp, pc}
    1674:	ebfffffe 	bl	0 <_start>
    1678:	e1a03000 	mov	r3, r0
    167c:	e3530000 	cmp	r3, #0	; 0x0
    1680:	ba0005a1 	blt	168c <do_touch+0x94>
    1684:	ebfffffe 	bl	0 <_start>
    1688:	ea000596 	b	1660 <do_touch+0x68>
    168c:	e1a00004 	mov	r0, r4
    1690:	ebfffffe 	bl	0 <_start>
    1694:	ea000596 	b	1660 <do_touch+0x68>

00001698 <do_mv>:
    1698:	e1a0c00d 	mov	ip, sp
    169c:	e92dddf0 	stmdb	sp!, {r4, r5, r6, r7, r8, sl, fp, ip, lr, pc}
    16a0:	e1a06000 	mov	r6, r0
    16a4:	e1a07001 	mov	r7, r1
    16a8:	e0873106 	add	r3, r7, r6, lsl #2
    16ac:	e5138004 	ldr	r8, [r3, -#4]
    16b0:	e1a00008 	mov	r0, r8
    16b4:	e24cb004 	sub	fp, ip, #4	; 0x4
    16b8:	ebfffffe 	bl	0 <_start>
    16bc:	e1a0a000 	mov	sl, r0
    16c0:	e35a0000 	cmp	sl, #0	; 0x0
    16c4:	13a03000 	movne	r3, #0	; 0x0
    16c8:	03a03001 	moveq	r3, #1	; 0x1
    16cc:	e3560003 	cmp	r6, #3	; 0x3
    16d0:	d3a03000 	movle	r3, #0	; 0x0
    16d4:	c2033001 	andgt	r3, r3, #1	; 0x1
    16d8:	e3530000 	cmp	r3, #0	; 0x0
    16dc:	e1a03006 	mov	r3, r6
    16e0:	0a0005bd 	beq	16fc <do_mv+0x64>
    16e4:	e59f30d4 	ldr	r3, [pc, #d4]	; 17c0 <do_mv+0x128>
    16e8:	e59f10d4 	ldr	r1, [pc, #d4]	; 17c4 <do_mv+0x12c>
    16ec:	e5930000 	ldr	r0, [r3]
    16f0:	e1a02008 	mov	r2, r8
    16f4:	e91b6df0 	ldmdb	fp, {r4, r5, r6, r7, r8, sl, fp, sp, lr}
    16f8:	eafffffe 	b	0 <_start>
    16fc:	e3530002 	cmp	r3, #2	; 0x2
    1700:	e2466001 	sub	r6, r6, #1	; 0x1
    1704:	d91badf0 	ldmledb	fp, {r4, r5, r6, r7, r8, sl, fp, sp, pc}
    1708:	e5b75004 	ldr	r5, [r7, #4]!
    170c:	e3a01000 	mov	r1, #0	; 0x0
    1710:	e1a00005 	mov	r0, r5
    1714:	ebfffffe 	bl	0 <_start>
    1718:	e3500000 	cmp	r0, #0	; 0x0
    171c:	ba0005eb 	blt	17b4 <do_mv+0x11c>
    1720:	e35a0000 	cmp	sl, #0	; 0x0
    1724:	e1a04008 	mov	r4, r8
    1728:	0a0005cd 	beq	173c <do_mv+0xa4>
    172c:	e1a00004 	mov	r0, r4
    1730:	e1a01005 	mov	r1, r5
    1734:	ebfffffe 	bl	0 <_start>
    1738:	e1a04000 	mov	r4, r0
    173c:	e1a00005 	mov	r0, r5
    1740:	e1a01004 	mov	r1, r4
    1744:	ebfffffe 	bl	0 <_start>
    1748:	e3500000 	cmp	r0, #0	; 0x0
    174c:	ba0005d7 	blt	1764 <do_mv+0xcc>
    1750:	e1a03006 	mov	r3, r6
    1754:	e3530002 	cmp	r3, #2	; 0x2
    1758:	e2466001 	sub	r6, r6, #1	; 0x1
    175c:	ca0005c0 	bgt	1708 <do_mv+0x70>
    1760:	e91badf0 	ldmdb	fp, {r4, r5, r6, r7, r8, sl, fp, sp, pc}
    1764:	ebfffffe 	bl	0 <_start>
    1768:	e5903000 	ldr	r3, [r0]
    176c:	e3530012 	cmp	r3, #18	; 0x12
    1770:	0a0005de 	beq	1780 <do_mv+0xe8>
    1774:	e1a00004 	mov	r0, r4
    1778:	ebfffffe 	bl	0 <_start>
    177c:	ea0005d2 	b	1750 <do_mv+0xb8>
    1780:	e1a01004 	mov	r1, r4
    1784:	e1a00005 	mov	r0, r5
    1788:	e3a02001 	mov	r2, #1	; 0x1
    178c:	ebfffffe 	bl	0 <_start>
    1790:	e3500000 	cmp	r0, #0	; 0x0
    1794:	0a0005d2 	beq	1750 <do_mv+0xb8>
    1798:	e1a00005 	mov	r0, r5
    179c:	ebfffffe 	bl	0 <_start>
    17a0:	e3500000 	cmp	r0, #0	; 0x0
    17a4:	aa0005d2 	bge	1750 <do_mv+0xb8>
    17a8:	e1a00005 	mov	r0, r5
    17ac:	ebfffffe 	bl	0 <_start>
    17b0:	ea0005d2 	b	1750 <do_mv+0xb8>
    17b4:	e1a00005 	mov	r0, r5
    17b8:	ebfffffe 	bl	0 <_start>
    17bc:	ea0005d2 	b	1750 <do_mv+0xb8>
    17c0:	00000000 	andeq	r0, r0, r0
    17c4:	000002d8 	ldreqd	r0, [r0], -r8

000017c8 <do_ln>:
    17c8:	e1a0c00d 	mov	ip, sp
    17cc:	e92dddf0 	stmdb	sp!, {r4, r5, r6, r7, r8, sl, fp, ip, lr, pc}
    17d0:	e1a07001 	mov	r7, r1
    17d4:	e5972004 	ldr	r2, [r7, #4]
    17d8:	e5d23000 	ldrb	r3, [r2]
    17dc:	e353002d 	cmp	r3, #45	; 0x2d
    17e0:	e24cb004 	sub	fp, ip, #4	; 0x4
    17e4:	e1a06000 	mov	r6, r0
    17e8:	0a00062f 	beq	18c4 <do_ln+0xfc>
    17ec:	e0873106 	add	r3, r7, r6, lsl #2
    17f0:	e5138004 	ldr	r8, [r3, -#4]
    17f4:	e1a00008 	mov	r0, r8
    17f8:	ebfffffe 	bl	0 <_start>
    17fc:	e1a0a000 	mov	sl, r0
    1800:	e35a0000 	cmp	sl, #0	; 0x0
    1804:	13a03000 	movne	r3, #0	; 0x0
    1808:	03a03001 	moveq	r3, #1	; 0x1
    180c:	e3560003 	cmp	r6, #3	; 0x3
    1810:	d3a03000 	movle	r3, #0	; 0x0
    1814:	c2033001 	andgt	r3, r3, #1	; 0x1
    1818:	e3530000 	cmp	r3, #0	; 0x0
    181c:	e1a03006 	mov	r3, r6
    1820:	0a00060d 	beq	183c <do_ln+0x74>
    1824:	e59f30fc 	ldr	r3, [pc, #fc]	; 1928 <do_ln+0x160>
    1828:	e59f10fc 	ldr	r1, [pc, #fc]	; 192c <do_ln+0x164>
    182c:	e5930000 	ldr	r0, [r3]
    1830:	e1a02008 	mov	r2, r8
    1834:	e91b6df0 	ldmdb	fp, {r4, r5, r6, r7, r8, sl, fp, sp, lr}
    1838:	eafffffe 	b	0 <_start>
    183c:	e3530002 	cmp	r3, #2	; 0x2
    1840:	e2466001 	sub	r6, r6, #1	; 0x1
    1844:	d91badf0 	ldmledb	fp, {r4, r5, r6, r7, r8, sl, fp, sp, pc}
    1848:	e5b75004 	ldr	r5, [r7, #4]!
    184c:	e3a01000 	mov	r1, #0	; 0x0
    1850:	e1a00005 	mov	r0, r5
    1854:	ebfffffe 	bl	0 <_start>
    1858:	e1a03000 	mov	r3, r0
    185c:	e3530000 	cmp	r3, #0	; 0x0
    1860:	e1a00005 	mov	r0, r5
    1864:	ba00062d 	blt	18bc <do_ln+0xf4>
    1868:	e1a04008 	mov	r4, r8
    186c:	e35a0000 	cmp	sl, #0	; 0x0
    1870:	e1a01005 	mov	r1, r5
    1874:	e1a00004 	mov	r0, r4
    1878:	0a00061f 	beq	1884 <do_ln+0xbc>
    187c:	ebfffffe 	bl	0 <_start>
    1880:	e1a04000 	mov	r4, r0
    1884:	e1a00005 	mov	r0, r5
    1888:	e1a01004 	mov	r1, r4
    188c:	ebfffffe 	bl	0 <_start>
    1890:	e1a03000 	mov	r3, r0
    1894:	e3530000 	cmp	r3, #0	; 0x0
    1898:	e1a00004 	mov	r0, r4
    189c:	ba00062b 	blt	18b4 <do_ln+0xec>
    18a0:	e1a03006 	mov	r3, r6
    18a4:	e3530002 	cmp	r3, #2	; 0x2
    18a8:	e2466001 	sub	r6, r6, #1	; 0x1
    18ac:	ca000610 	bgt	1848 <do_ln+0x80>
    18b0:	e91badf0 	ldmdb	fp, {r4, r5, r6, r7, r8, sl, fp, sp, pc}
    18b4:	ebfffffe 	bl	0 <_start>
    18b8:	ea000626 	b	18a0 <do_ln+0xd8>
    18bc:	ebfffffe 	bl	0 <_start>
    18c0:	ea000626 	b	18a0 <do_ln+0xd8>
    18c4:	e1a00002 	mov	r0, r2
    18c8:	e59f1060 	ldr	r1, [pc, #60]	; 1930 <do_ln+0x168>
    18cc:	ebfffffe 	bl	0 <_start>
    18d0:	e3500000 	cmp	r0, #0	; 0x0
    18d4:	0a000639 	beq	18ec <do_ln+0x124>
    18d8:	e59f3048 	ldr	r3, [pc, #48]	; 1928 <do_ln+0x160>
    18dc:	e59f1050 	ldr	r1, [pc, #50]	; 1934 <do_ln+0x16c>
    18e0:	e5930000 	ldr	r0, [r3]
    18e4:	e91b6df0 	ldmdb	fp, {r4, r5, r6, r7, r8, sl, fp, sp, lr}
    18e8:	eafffffe 	b	0 <_start>
    18ec:	e3560004 	cmp	r6, #4	; 0x4
    18f0:	0a000640 	beq	1908 <do_ln+0x140>
    18f4:	e59f302c 	ldr	r3, [pc, #2c]	; 1928 <do_ln+0x160>
    18f8:	e59f1038 	ldr	r1, [pc, #38]	; 1938 <do_ln+0x170>
    18fc:	e5930000 	ldr	r0, [r3]
    1900:	e91b6df0 	ldmdb	fp, {r4, r5, r6, r7, r8, sl, fp, sp, lr}
    1904:	eafffffe 	b	0 <_start>
    1908:	e2870008 	add	r0, r7, #8	; 0x8
    190c:	e8900003 	ldmia	r0, {r0, r1}
    1910:	ebfffffe 	bl	0 <_start>
    1914:	e3500000 	cmp	r0, #0	; 0x0
    1918:	a91badf0 	ldmgedb	fp, {r4, r5, r6, r7, r8, sl, fp, sp, pc}
    191c:	e597000c 	ldr	r0, [r7, #12]
    1920:	e91b6df0 	ldmdb	fp, {r4, r5, r6, r7, r8, sl, fp, sp, lr}
    1924:	eafffffe 	b	0 <_start>
    1928:	00000000 	andeq	r0, r0, r0
    192c:	000002d8 	ldreqd	r0, [r0], -r8
    1930:	000002f0 	streqd	r0, [r0], -r0
    1934:	000002f4 	streqd	r0, [r0], -r4
    1938:	00000304 	andeq	r0, r0, r4, lsl #6

0000193c <do_cp>:
    193c:	e1a0c00d 	mov	ip, sp
    1940:	e92dd9f0 	stmdb	sp!, {r4, r5, r6, r7, r8, fp, ip, lr, pc}
    1944:	e1a05000 	mov	r5, r0
    1948:	e1a06001 	mov	r6, r1
    194c:	e0863105 	add	r3, r6, r5, lsl #2
    1950:	e5138004 	ldr	r8, [r3, -#4]
    1954:	e1a00008 	mov	r0, r8
    1958:	e24cb004 	sub	fp, ip, #4	; 0x4
    195c:	ebfffffe 	bl	0 <_start>
    1960:	e1a07000 	mov	r7, r0
    1964:	e3570000 	cmp	r7, #0	; 0x0
    1968:	13a03000 	movne	r3, #0	; 0x0
    196c:	03a03001 	moveq	r3, #1	; 0x1
    1970:	e3550003 	cmp	r5, #3	; 0x3
    1974:	d3a03000 	movle	r3, #0	; 0x0
    1978:	c2033001 	andgt	r3, r3, #1	; 0x1
    197c:	e3530000 	cmp	r3, #0	; 0x0
    1980:	e1a03005 	mov	r3, r5
    1984:	0a000666 	beq	19a0 <do_cp+0x64>
    1988:	e59f3060 	ldr	r3, [pc, #60]	; 19f0 <do_cp+0xb4>
    198c:	e59f1060 	ldr	r1, [pc, #60]	; 19f4 <do_cp+0xb8>
    1990:	e5930000 	ldr	r0, [r3]
    1994:	e1a02008 	mov	r2, r8
    1998:	e91b69f0 	ldmdb	fp, {r4, r5, r6, r7, r8, fp, sp, lr}
    199c:	eafffffe 	b	0 <_start>
    19a0:	e3530002 	cmp	r3, #2	; 0x2
    19a4:	e2455001 	sub	r5, r5, #1	; 0x1
    19a8:	d91ba9f0 	ldmledb	fp, {r4, r5, r6, r7, r8, fp, sp, pc}
    19ac:	e5b64004 	ldr	r4, [r6, #4]!
    19b0:	e1a03008 	mov	r3, r8
    19b4:	e3570000 	cmp	r7, #0	; 0x0
    19b8:	e1a01004 	mov	r1, r4
    19bc:	e1a00003 	mov	r0, r3
    19c0:	0a000671 	beq	19cc <do_cp+0x90>
    19c4:	ebfffffe 	bl	0 <_start>
    19c8:	e1a03000 	mov	r3, r0
    19cc:	e1a01003 	mov	r1, r3
    19d0:	e1a00004 	mov	r0, r4
    19d4:	e3a02000 	mov	r2, #0	; 0x0
    19d8:	ebfffffe 	bl	0 <_start>
    19dc:	e1a03005 	mov	r3, r5
    19e0:	e3530002 	cmp	r3, #2	; 0x2
    19e4:	e2455001 	sub	r5, r5, #1	; 0x1
    19e8:	ca000669 	bgt	19ac <do_cp+0x70>
    19ec:	e91ba9f0 	ldmdb	fp, {r4, r5, r6, r7, r8, fp, sp, pc}
    19f0:	00000000 	andeq	r0, r0, r0
    19f4:	000002d8 	ldreqd	r0, [r0], -r8

000019f8 <do_mount>:
    19f8:	e1a0c00d 	mov	ip, sp
    19fc:	e92dd830 	stmdb	sp!, {r4, r5, fp, ip, lr, pc}
    1a00:	e24cb004 	sub	fp, ip, #4	; 0x4
    1a04:	e1a0c000 	mov	ip, r0
    1a08:	e24cc001 	sub	ip, ip, #1	; 0x1
    1a0c:	e24dd004 	sub	sp, sp, #4	; 0x4
    1a10:	e1a00001 	mov	r0, r1
    1a14:	e35c0000 	cmp	ip, #0	; 0x0
    1a18:	e2800004 	add	r0, r0, #4	; 0x4
    1a1c:	e59f50f0 	ldr	r5, [pc, #f0]	; 1b14 <do_mount+0x11c>
    1a20:	da00068b 	ble	1a34 <do_mount+0x3c>
    1a24:	e5902000 	ldr	r2, [r0]
    1a28:	e5d23000 	ldrb	r3, [r2]
    1a2c:	e353002d 	cmp	r3, #45	; 0x2d
    1a30:	0a00069e 	beq	1a80 <do_mount+0x88>
    1a34:	e35c0002 	cmp	ip, #2	; 0x2
    1a38:	0a000692 	beq	1a50 <do_mount+0x58>
    1a3c:	e59f30d4 	ldr	r3, [pc, #d4]	; 1b18 <do_mount+0x120>
    1a40:	e59f10d4 	ldr	r1, [pc, #d4]	; 1b1c <do_mount+0x124>
    1a44:	e5930000 	ldr	r0, [r3]
    1a48:	e91b6830 	ldmdb	fp, {r4, r5, fp, sp, lr}
    1a4c:	eafffffe 	b	0 <_start>
    1a50:	e3a0c000 	mov	ip, #0	; 0x0
    1a54:	e5901004 	ldr	r1, [r0, #4]
    1a58:	e1a02005 	mov	r2, r5
    1a5c:	e5900000 	ldr	r0, [r0]
    1a60:	e1a0300c 	mov	r3, ip
    1a64:	e58dc000 	str	ip, [sp]
    1a68:	ebfffffe 	bl	0 <_start>
    1a6c:	e3500000 	cmp	r0, #0	; 0x0
    1a70:	a91ba830 	ldmgedb	fp, {r4, r5, fp, sp, pc}
    1a74:	e59f00a4 	ldr	r0, [pc, #a4]	; 1b20 <do_mount+0x128>
    1a78:	ebfffffe 	bl	0 <_start>
    1a7c:	e91ba830 	ldmdb	fp, {r4, r5, fp, sp, pc}
    1a80:	e5d23001 	ldrb	r3, [r2, #1]
    1a84:	e3530000 	cmp	r3, #0	; 0x0
    1a88:	e24cc001 	sub	ip, ip, #1	; 0x1
    1a8c:	e2800004 	add	r0, r0, #4	; 0x4
    1a90:	e2821001 	add	r1, r2, #1	; 0x1
    1a94:	0a0006b8 	beq	1ae8 <do_mount+0xf0>
    1a98:	e59f4078 	ldr	r4, [pc, #78]	; 1b18 <do_mount+0x120>
    1a9c:	e5d13000 	ldrb	r3, [r1]
    1aa0:	e3530074 	cmp	r3, #116	; 0x74
    1aa4:	1a0006bf 	bne	1b04 <do_mount+0x10c>
    1aa8:	e35c0000 	cmp	ip, #0	; 0x0
    1aac:	e24cc001 	sub	ip, ip, #1	; 0x1
    1ab0:	ca0006af 	bgt	1ac4 <do_mount+0xcc>
    1ab4:	e5940000 	ldr	r0, [r4]
    1ab8:	e59f1064 	ldr	r1, [pc, #64]	; 1b24 <do_mount+0x12c>
    1abc:	e91b6830 	ldmdb	fp, {r4, r5, fp, sp, lr}
    1ac0:	eafffffe 	b	0 <_start>
    1ac4:	e5903000 	ldr	r3, [r0]
    1ac8:	e5d32000 	ldrb	r2, [r3]
    1acc:	e352002d 	cmp	r2, #45	; 0x2d
    1ad0:	e1a05003 	mov	r5, r3
    1ad4:	e2800004 	add	r0, r0, #4	; 0x4
    1ad8:	0a0006ab 	beq	1ab4 <do_mount+0xbc>
    1adc:	e5f13001 	ldrb	r3, [r1, #1]!
    1ae0:	e3530000 	cmp	r3, #0	; 0x0
    1ae4:	1a0006a5 	bne	1a9c <do_mount+0xa4>
    1ae8:	e35c0000 	cmp	ip, #0	; 0x0
    1aec:	da00068b 	ble	1a34 <do_mount+0x3c>
    1af0:	e5902000 	ldr	r2, [r0]
    1af4:	e5d23000 	ldrb	r3, [r2]
    1af8:	e353002d 	cmp	r3, #45	; 0x2d
    1afc:	1a00068b 	bne	1a34 <do_mount+0x3c>
    1b00:	ea00069e 	b	1a80 <do_mount+0x88>
    1b04:	e5940000 	ldr	r0, [r4]
    1b08:	e59f1018 	ldr	r1, [pc, #18]	; 1b28 <do_mount+0x130>
    1b0c:	e91b6830 	ldmdb	fp, {r4, r5, fp, sp, lr}
    1b10:	eafffffe 	b	0 <_start>
    1b14:	00000334 	andeq	r0, r0, r4, lsr r3
    1b18:	00000000 	andeq	r0, r0, r0
    1b1c:	0000033c 	andeq	r0, r0, ip, lsr r3
    1b20:	00000364 	andeq	r0, r0, r4, ror #6
    1b24:	00000374 	andeq	r0, r0, r4, ror r3
    1b28:	000002f4 	streqd	r0, [r0], -r4

00001b2c <do_umount>:
    1b2c:	e1a0c00d 	mov	ip, sp
    1b30:	e92dd810 	stmdb	sp!, {r4, fp, ip, lr, pc}
    1b34:	e1a04001 	mov	r4, r1
    1b38:	e5940004 	ldr	r0, [r4, #4]
    1b3c:	e24cb004 	sub	fp, ip, #4	; 0x4
    1b40:	ebfffffe 	bl	0 <_start>
    1b44:	e3500000 	cmp	r0, #0	; 0x0
    1b48:	a91ba810 	ldmgedb	fp, {r4, fp, sp, pc}
    1b4c:	e5940004 	ldr	r0, [r4, #4]
    1b50:	e91b6810 	ldmdb	fp, {r4, fp, sp, lr}
    1b54:	eafffffe 	b	0 <_start>

00001b58 <do_cmp>:
    1b58:	e1a0c00d 	mov	ip, sp
    1b5c:	e92ddff0 	stmdb	sp!, {r4, r5, r6, r7, r8, r9, sl, fp, ip, lr, pc}
    1b60:	e24cb004 	sub	fp, ip, #4	; 0x4
    1b64:	e24dd0b4 	sub	sp, sp, #180	; 0xb4
    1b68:	e1a06001 	mov	r6, r1
    1b6c:	e5960004 	ldr	r0, [r6, #4]
    1b70:	e24b1080 	sub	r1, fp, #128	; 0x80
    1b74:	ebfffffe 	bl	0 <_start>
    1b78:	e3500000 	cmp	r0, #0	; 0x0
    1b7c:	ba00075f 	blt	1d84 <do_cmp+0x22c>
    1b80:	e5960008 	ldr	r0, [r6, #8]
    1b84:	e24b10d8 	sub	r1, fp, #216	; 0xd8
    1b88:	ebfffffe 	bl	0 <_start>
    1b8c:	e3500000 	cmp	r0, #0	; 0x0
    1b90:	ba00075c 	blt	1d78 <do_cmp+0x220>
    1b94:	e51b2080 	ldr	r2, [fp, -#128]
    1b98:	e51b30d8 	ldr	r3, [fp, -#216]
    1b9c:	e1520003 	cmp	r2, r3
    1ba0:	0a000751 	beq	1d4c <do_cmp+0x1f4>
    1ba4:	e51b2054 	ldr	r2, [fp, -#84]
    1ba8:	e51b30ac 	ldr	r3, [fp, -#172]
    1bac:	e1520003 	cmp	r2, r3
    1bb0:	0a0006ee 	beq	1bc0 <do_cmp+0x68>
    1bb4:	e59f01d4 	ldr	r0, [pc, #1d4]	; 1d90 <do_cmp+0x238>
    1bb8:	ebfffffe 	bl	0 <_start>
    1bbc:	e91baff0 	ldmdb	fp, {r4, r5, r6, r7, r8, r9, sl, fp, sp, pc}
    1bc0:	e5960004 	ldr	r0, [r6, #4]
    1bc4:	e3a01000 	mov	r1, #0	; 0x0
    1bc8:	ebfffffe 	bl	0 <_start>
    1bcc:	e1a09000 	mov	r9, r0
    1bd0:	e3590000 	cmp	r9, #0	; 0x0
    1bd4:	ba00075f 	blt	1d84 <do_cmp+0x22c>
    1bd8:	e5960008 	ldr	r0, [r6, #8]
    1bdc:	e3a01000 	mov	r1, #0	; 0x0
    1be0:	ebfffffe 	bl	0 <_start>
    1be4:	e3500000 	cmp	r0, #0	; 0x0
    1be8:	e50b00dc 	str	r0, [fp, -#220]
    1bec:	ba00074c 	blt	1d38 <do_cmp+0x1e0>
    1bf0:	e3a04d7f 	mov	r4, #8128	; 0x1fc0
    1bf4:	e2844030 	add	r4, r4, #48	; 0x30
    1bf8:	e1a00004 	mov	r0, r4
    1bfc:	ebfffffe 	bl	0 <_start>
    1c00:	e1a0a000 	mov	sl, r0
    1c04:	e1a00004 	mov	r0, r4
    1c08:	ebfffffe 	bl	0 <_start>
    1c0c:	e3a07000 	mov	r7, #0	; 0x0
    1c10:	e1a08000 	mov	r8, r0
    1c14:	e59f3178 	ldr	r3, [pc, #178]	; 1d94 <do_cmp+0x23c>
    1c18:	e593c000 	ldr	ip, [r3]
    1c1c:	e3a05d7f 	mov	r5, #8128	; 0x1fc0
    1c20:	e2855030 	add	r5, r5, #48	; 0x30
    1c24:	e35c0000 	cmp	ip, #0	; 0x0
    1c28:	e1a0100a 	mov	r1, sl
    1c2c:	e1a02005 	mov	r2, r5
    1c30:	e1a00009 	mov	r0, r9
    1c34:	0a000715 	beq	1c5c <do_cmp+0x104>
    1c38:	e1a00009 	mov	r0, r9
    1c3c:	ebfffffe 	bl	0 <_start>
    1c40:	e51b00dc 	ldr	r0, [fp, -#220]
    1c44:	ebfffffe 	bl	0 <_start>
    1c48:	e1a0000a 	mov	r0, sl
    1c4c:	ebfffffe 	bl	0 <_start>
    1c50:	e1a00008 	mov	r0, r8
    1c54:	ebfffffe 	bl	0 <_start>
    1c58:	e91baff0 	ldmdb	fp, {r4, r5, r6, r7, r8, r9, sl, fp, sp, pc}
    1c5c:	ebfffffe 	bl	0 <_start>
    1c60:	e1a04000 	mov	r4, r0
    1c64:	e3540000 	cmp	r4, #0	; 0x0
    1c68:	e51b00dc 	ldr	r0, [fp, -#220]
    1c6c:	e1a01008 	mov	r1, r8
    1c70:	e1a02005 	mov	r2, r5
    1c74:	ba000749 	blt	1d2c <do_cmp+0x1d4>
    1c78:	ebfffffe 	bl	0 <_start>
    1c7c:	e1a03000 	mov	r3, r0
    1c80:	e3530000 	cmp	r3, #0	; 0x0
    1c84:	e1a0000a 	mov	r0, sl
    1c88:	e1a01008 	mov	r1, r8
    1c8c:	e1a02004 	mov	r2, r4
    1c90:	ba000746 	blt	1d20 <do_cmp+0x1c8>
    1c94:	e3540000 	cmp	r4, #0	; 0x0
    1c98:	03530000 	cmpeq	r3, #0	; 0x0
    1c9c:	1a000729 	bne	1cac <do_cmp+0x154>
    1ca0:	e59f00f0 	ldr	r0, [pc, #f0]	; 1d98 <do_cmp+0x240>
    1ca4:	ebfffffe 	bl	0 <_start>
    1ca8:	ea00070c 	b	1c38 <do_cmp+0xe0>
    1cac:	e1540003 	cmp	r4, r3
    1cb0:	ba000743 	blt	1d14 <do_cmp+0x1bc>
    1cb4:	ca000740 	bgt	1d08 <do_cmp+0x1b0>
    1cb8:	ebfffffe 	bl	0 <_start>
    1cbc:	e3500000 	cmp	r0, #0	; 0x0
    1cc0:	00877004 	addeq	r7, r7, r4
    1cc4:	0a000703 	beq	1c14 <do_cmp+0xbc>
    1cc8:	e1a00008 	mov	r0, r8
    1ccc:	e1a0100a 	mov	r1, sl
    1cd0:	e4d02001 	ldrb	r2, [r0], #1
    1cd4:	e4d13001 	ldrb	r3, [r1], #1
    1cd8:	e1530002 	cmp	r3, r2
    1cdc:	0a00073a 	beq	1cf0 <do_cmp+0x198>
    1ce0:	e1a01007 	mov	r1, r7
    1ce4:	e59f00b0 	ldr	r0, [pc, #b0]	; 1d9c <do_cmp+0x244>
    1ce8:	ebfffffe 	bl	0 <_start>
    1cec:	ea00070c 	b	1c38 <do_cmp+0xe0>
    1cf0:	e4d02001 	ldrb	r2, [r0], #1
    1cf4:	e4d13001 	ldrb	r3, [r1], #1
    1cf8:	e1530002 	cmp	r3, r2
    1cfc:	e2877001 	add	r7, r7, #1	; 0x1
    1d00:	1a000736 	bne	1ce0 <do_cmp+0x188>
    1d04:	ea00073a 	b	1cf0 <do_cmp+0x198>
    1d08:	e59f0090 	ldr	r0, [pc, #90]	; 1da0 <do_cmp+0x248>
    1d0c:	ebfffffe 	bl	0 <_start>
    1d10:	ea00070c 	b	1c38 <do_cmp+0xe0>
    1d14:	e59f0088 	ldr	r0, [pc, #88]	; 1da4 <do_cmp+0x24c>
    1d18:	ebfffffe 	bl	0 <_start>
    1d1c:	ea00070c 	b	1c38 <do_cmp+0xe0>
    1d20:	e5960008 	ldr	r0, [r6, #8]
    1d24:	ebfffffe 	bl	0 <_start>
    1d28:	ea00070c 	b	1c38 <do_cmp+0xe0>
    1d2c:	e5960004 	ldr	r0, [r6, #4]
    1d30:	ebfffffe 	bl	0 <_start>
    1d34:	ea00070c 	b	1c38 <do_cmp+0xe0>
    1d38:	e5960008 	ldr	r0, [r6, #8]
    1d3c:	ebfffffe 	bl	0 <_start>
    1d40:	e1a00009 	mov	r0, r9
    1d44:	ebfffffe 	bl	0 <_start>
    1d48:	e91baff0 	ldmdb	fp, {r4, r5, r6, r7, r8, r9, sl, fp, sp, pc}
    1d4c:	e51b207c 	ldr	r2, [fp, -#124]
    1d50:	e51b30d4 	ldr	r3, [fp, -#212]
    1d54:	e1520003 	cmp	r2, r3
    1d58:	1a0006e7 	bne	1ba4 <do_cmp+0x4c>
    1d5c:	e51b2074 	ldr	r2, [fp, -#116]
    1d60:	e51b30cc 	ldr	r3, [fp, -#204]
    1d64:	e1520003 	cmp	r2, r3
    1d68:	1a0006e7 	bne	1ba4 <do_cmp+0x4c>
    1d6c:	e59f0034 	ldr	r0, [pc, #34]	; 1da8 <do_cmp+0x250>
    1d70:	ebfffffe 	bl	0 <_start>
    1d74:	e91baff0 	ldmdb	fp, {r4, r5, r6, r7, r8, r9, sl, fp, sp, pc}
    1d78:	e5960008 	ldr	r0, [r6, #8]
    1d7c:	ebfffffe 	bl	0 <_start>
    1d80:	e91baff0 	ldmdb	fp, {r4, r5, r6, r7, r8, r9, sl, fp, sp, pc}
    1d84:	e5960004 	ldr	r0, [r6, #4]
    1d88:	ebfffffe 	bl	0 <_start>
    1d8c:	e91baff0 	ldmdb	fp, {r4, r5, r6, r7, r8, r9, sl, fp, sp, pc}
    1d90:	00000390 	muleq	r0, r0, r3
    1d94:	00000000 	andeq	r0, r0, r0
    1d98:	000003ac 	andeq	r0, r0, ip, lsr #7
    1d9c:	000003c4 	andeq	r0, r0, r4, asr #7
    1da0:	000003e8 	andeq	r0, r0, r8, ror #7
    1da4:	0000040c 	andeq	r0, r0, ip, lsl #8
    1da8:	00000430 	andeq	r0, r0, r0, lsr r4

00001dac <do_more>:
    1dac:	e1a0c00d 	mov	ip, sp
    1db0:	e92dd9f0 	stmdb	sp!, {r4, r5, r6, r7, r8, fp, ip, lr, pc}
    1db4:	e1a07000 	mov	r7, r0
    1db8:	e1a03007 	mov	r3, r7
    1dbc:	e24cb004 	sub	fp, ip, #4	; 0x4
    1dc0:	e24dd050 	sub	sp, sp, #80	; 0x50
    1dc4:	e3530001 	cmp	r3, #1	; 0x1
    1dc8:	e1a08001 	mov	r8, r1
    1dcc:	e2477001 	sub	r7, r7, #1	; 0x1
    1dd0:	d91ba9f0 	ldmledb	fp, {r4, r5, r6, r7, r8, fp, sp, pc}
    1dd4:	e5b84004 	ldr	r4, [r8, #4]!
    1dd8:	e59f11f8 	ldr	r1, [pc, #1f8]	; 1fd8 <do_more+0x22c>
    1ddc:	e1a00004 	mov	r0, r4
    1de0:	ebfffffe 	bl	0 <_start>
    1de4:	e1a05000 	mov	r5, r0
    1de8:	e3550000 	cmp	r5, #0	; 0x0
    1dec:	0a0007f1 	beq	1fcc <do_more+0x220>
    1df0:	e1a01004 	mov	r1, r4
    1df4:	e59f01e0 	ldr	r0, [pc, #1e0]	; 1fdc <do_more+0x230>
    1df8:	ebfffffe 	bl	0 <_start>
    1dfc:	e3a04001 	mov	r4, #1	; 0x1
    1e00:	e3a06000 	mov	r6, #0	; 0x0
    1e04:	e3550000 	cmp	r5, #0	; 0x0
    1e08:	0a0007ec 	beq	1fb8 <do_more+0x20c>
    1e0c:	e1a00005 	mov	r0, r5
    1e10:	ebfffffe 	bl	0 <_start>
    1e14:	e3700001 	cmn	r0, #1	; 0x1
    1e18:	0a0007ea 	beq	1fb0 <do_more+0x204>
    1e1c:	e2403008 	sub	r3, r0, #8	; 0x8
    1e20:	e3530005 	cmp	r3, #5	; 0x5
    1e24:	979ff103 	ldrls	pc, [pc, r3, lsl #2]
    1e28:	ea0007e8 	b	1fa8 <do_more+0x1fc>
    1e2c:	00001f84 	andeq	r1, r0, r4, lsl #31
    1e30:	00001f90 	muleq	r0, r0, pc
    1e34:	00001fa0 	andeq	r1, r0, r0, lsr #31
    1e38:	00001fa8 	andeq	r1, r0, r8, lsr #31
    1e3c:	00001fa8 	andeq	r1, r0, r8, lsr #31
    1e40:	00001e44 	andeq	r1, r0, r4, asr #28
    1e44:	e3a06000 	mov	r6, #0	; 0x0
    1e48:	ebfffffe 	bl	0 <_start>
    1e4c:	e356004f 	cmp	r6, #79	; 0x4f
    1e50:	c2844001 	addgt	r4, r4, #1	; 0x1
    1e54:	c2466050 	subgt	r6, r6, #80	; 0x50
    1e58:	e3540017 	cmp	r4, #23	; 0x17
    1e5c:	da00077f 	ble	1e04 <do_more+0x58>
    1e60:	e3560000 	cmp	r6, #0	; 0x0
    1e64:	da00079a 	ble	1e70 <do_more+0xc4>
    1e68:	e3a0000a 	mov	r0, #10	; 0xa
    1e6c:	ebfffffe 	bl	0 <_start>
    1e70:	e59f0168 	ldr	r0, [pc, #168]	; 1fe0 <do_more+0x234>
    1e74:	ebfffffe 	bl	0 <_start>
    1e78:	e59f3164 	ldr	r3, [pc, #164]	; 1fe4 <do_more+0x238>
    1e7c:	e5930000 	ldr	r0, [r3]
    1e80:	ebfffffe 	bl	0 <_start>
    1e84:	e59f315c 	ldr	r3, [pc, #15c]	; 1fe8 <do_more+0x23c>
    1e88:	e5930000 	ldr	r0, [r3]
    1e8c:	e3500000 	cmp	r0, #0	; 0x0
    1e90:	0a0007a6 	beq	1ea0 <do_more+0xf4>
    1e94:	e3550000 	cmp	r5, #0	; 0x0
    1e98:	091ba9f0 	ldmeqdb	fp, {r4, r5, r6, r7, r8, fp, sp, pc}
    1e9c:	ea0007dc 	b	1f78 <do_more+0x1cc>
    1ea0:	e24b1070 	sub	r1, fp, #112	; 0x70
    1ea4:	e3a02050 	mov	r2, #80	; 0x50
    1ea8:	ebfffffe 	bl	0 <_start>
    1eac:	e3500000 	cmp	r0, #0	; 0x0
    1eb0:	ba0007a3 	blt	1e94 <do_more+0xe8>
    1eb4:	e55b0070 	ldrb	r0, [fp, -#112]
    1eb8:	e350003a 	cmp	r0, #58	; 0x3a
    1ebc:	055b006f 	ldreqb	r0, [fp, -#111]
    1ec0:	e240304e 	sub	r3, r0, #78	; 0x4e
    1ec4:	e3530023 	cmp	r3, #35	; 0x23
    1ec8:	979ff103 	ldrls	pc, [pc, r3, lsl #2]
    1ecc:	ea0007d9 	b	1f6c <do_more+0x1c0>
    1ed0:	00001f60 	andeq	r1, r0, r0, ror #30
    1ed4:	00001f6c 	andeq	r1, r0, ip, ror #30
    1ed8:	00001f6c 	andeq	r1, r0, ip, ror #30
    1edc:	00001f78 	andeq	r1, r0, r8, ror pc
    1ee0:	00001f6c 	andeq	r1, r0, ip, ror #30
    1ee4:	00001f6c 	andeq	r1, r0, ip, ror #30
    1ee8:	00001f6c 	andeq	r1, r0, ip, ror #30
    1eec:	00001f6c 	andeq	r1, r0, ip, ror #30
    1ef0:	00001f6c 	andeq	r1, r0, ip, ror #30
    1ef4:	00001f6c 	andeq	r1, r0, ip, ror #30
    1ef8:	00001f6c 	andeq	r1, r0, ip, ror #30
    1efc:	00001f6c 	andeq	r1, r0, ip, ror #30
    1f00:	00001f6c 	andeq	r1, r0, ip, ror #30
    1f04:	00001f6c 	andeq	r1, r0, ip, ror #30
    1f08:	00001f6c 	andeq	r1, r0, ip, ror #30
    1f0c:	00001f6c 	andeq	r1, r0, ip, ror #30
    1f10:	00001f6c 	andeq	r1, r0, ip, ror #30
    1f14:	00001f6c 	andeq	r1, r0, ip, ror #30
    1f18:	00001f6c 	andeq	r1, r0, ip, ror #30
    1f1c:	00001f6c 	andeq	r1, r0, ip, ror #30
    1f20:	00001f6c 	andeq	r1, r0, ip, ror #30
    1f24:	00001f6c 	andeq	r1, r0, ip, ror #30
    1f28:	00001f6c 	andeq	r1, r0, ip, ror #30
    1f2c:	00001f6c 	andeq	r1, r0, ip, ror #30
    1f30:	00001f6c 	andeq	r1, r0, ip, ror #30
    1f34:	00001f6c 	andeq	r1, r0, ip, ror #30
    1f38:	00001f6c 	andeq	r1, r0, ip, ror #30
    1f3c:	00001f6c 	andeq	r1, r0, ip, ror #30
    1f40:	00001f6c 	andeq	r1, r0, ip, ror #30
    1f44:	00001f6c 	andeq	r1, r0, ip, ror #30
    1f48:	00001f6c 	andeq	r1, r0, ip, ror #30
    1f4c:	00001f6c 	andeq	r1, r0, ip, ror #30
    1f50:	00001f60 	andeq	r1, r0, r0, ror #30
    1f54:	00001f6c 	andeq	r1, r0, ip, ror #30
    1f58:	00001f6c 	andeq	r1, r0, ip, ror #30
    1f5c:	00001f78 	andeq	r1, r0, r8, ror pc
    1f60:	e1a00005 	mov	r0, r5
    1f64:	ebfffffe 	bl	0 <_start>
    1f68:	e3a05000 	mov	r5, #0	; 0x0
    1f6c:	e3a06000 	mov	r6, #0	; 0x0
    1f70:	e3a04001 	mov	r4, #1	; 0x1
    1f74:	ea00077f 	b	1e04 <do_more+0x58>
    1f78:	e1a00005 	mov	r0, r5
    1f7c:	ebfffffe 	bl	0 <_start>
    1f80:	e91ba9f0 	ldmdb	fp, {r4, r5, r6, r7, r8, fp, sp, pc}
    1f84:	e3560000 	cmp	r6, #0	; 0x0
    1f88:	c2466001 	subgt	r6, r6, #1	; 0x1
    1f8c:	ea000790 	b	1e48 <do_more+0x9c>
    1f90:	e2863001 	add	r3, r6, #1	; 0x1
    1f94:	e3833007 	orr	r3, r3, #7	; 0x7
    1f98:	e2836001 	add	r6, r3, #1	; 0x1
    1f9c:	ea000790 	b	1e48 <do_more+0x9c>
    1fa0:	e2844001 	add	r4, r4, #1	; 0x1
    1fa4:	ea00078f 	b	1e44 <do_more+0x98>
    1fa8:	e2866001 	add	r6, r6, #1	; 0x1
    1fac:	ea000790 	b	1e48 <do_more+0x9c>
    1fb0:	e1a00005 	mov	r0, r5
    1fb4:	ebfffffe 	bl	0 <_start>
    1fb8:	e1a03007 	mov	r3, r7
    1fbc:	e3530001 	cmp	r3, #1	; 0x1
    1fc0:	e2477001 	sub	r7, r7, #1	; 0x1
    1fc4:	ca000773 	bgt	1dd4 <do_more+0x28>
    1fc8:	e91ba9f0 	ldmdb	fp, {r4, r5, r6, r7, r8, fp, sp, pc}
    1fcc:	e1a00004 	mov	r0, r4
    1fd0:	ebfffffe 	bl	0 <_start>
    1fd4:	e91ba9f0 	ldmdb	fp, {r4, r5, r6, r7, r8, fp, sp, pc}
    1fd8:	00000450 	andeq	r0, r0, r0, asr r4
    1fdc:	00000454 	andeq	r0, r0, r4, asr r4
    1fe0:	00000460 	andeq	r0, r0, r0, ror #8
	...

00001fec <do_exit>:
    1fec:	e1a0c00d 	mov	ip, sp
    1ff0:	e3a00000 	mov	r0, #0	; 0x0
    1ff4:	e92dd800 	stmdb	sp!, {fp, ip, lr, pc}
    1ff8:	e24cb004 	sub	fp, ip, #4	; 0x4
    1ffc:	ebfffffe 	bl	0 <_start>

00002000 <do_setenv>:
    2000:	e52de004 	str	lr, [sp, -#4]!
    2004:	e9910009 	ldmib	r1, {r0, r3}
    2008:	e3a02001 	mov	r2, #1	; 0x1
    200c:	e1a01003 	mov	r1, r3
    2010:	e49de004 	ldr	lr, [sp], #4
    2014:	eafffffe 	b	0 <_start>

00002018 <do_printenv>:
    2018:	e1a0c00d 	mov	ip, sp
    201c:	e92dd8f0 	stmdb	sp!, {r4, r5, r6, r7, fp, ip, lr, pc}
    2020:	e59f30ac 	ldr	r3, [pc, #ac]	; 20d4 <do_printenv+0xbc>
    2024:	e3500001 	cmp	r0, #1	; 0x1
    2028:	e24cb004 	sub	fp, ip, #4	; 0x4
    202c:	e5936000 	ldr	r6, [r3]
    2030:	0a000829 	beq	20ac <do_printenv+0x94>
    2034:	e5917004 	ldr	r7, [r1, #4]
    2038:	e1a00007 	mov	r0, r7
    203c:	ebfffffe 	bl	0 <_start>
    2040:	e5964000 	ldr	r4, [r6]
    2044:	e3540000 	cmp	r4, #0	; 0x0
    2048:	e1a05000 	mov	r5, r0
    204c:	091ba8f0 	ldmeqdb	fp, {r4, r5, r6, r7, fp, sp, pc}
    2050:	e1a00004 	mov	r0, r4
    2054:	ebfffffe 	bl	0 <_start>
    2058:	e1500005 	cmp	r0, r5
    205c:	9a00081c 	bls	2078 <do_printenv+0x60>
    2060:	e7d43005 	ldrb	r3, [r4, r5]
    2064:	e353003d 	cmp	r3, #61	; 0x3d
    2068:	e1a01004 	mov	r1, r4
    206c:	e1a00007 	mov	r0, r7
    2070:	e1a02005 	mov	r2, r5
    2074:	0a000821 	beq	208c <do_printenv+0x74>
    2078:	e5b63004 	ldr	r3, [r6, #4]!
    207c:	e1a04003 	mov	r4, r3
    2080:	e3540000 	cmp	r4, #0	; 0x0
    2084:	1a000812 	bne	2050 <do_printenv+0x38>
    2088:	e91ba8f0 	ldmdb	fp, {r4, r5, r6, r7, fp, sp, pc}
    208c:	ebfffffe 	bl	0 <_start>
    2090:	e3500000 	cmp	r0, #0	; 0x0
    2094:	1a00081c 	bne	2078 <do_printenv+0x60>
    2098:	e0841005 	add	r1, r4, r5
    209c:	e59f0034 	ldr	r0, [pc, #34]	; 20d8 <do_printenv+0xc0>
    20a0:	e2811001 	add	r1, r1, #1	; 0x1
    20a4:	e91b68f0 	ldmdb	fp, {r4, r5, r6, r7, fp, sp, lr}
    20a8:	eafffffe 	b	0 <_start>
    20ac:	e5964000 	ldr	r4, [r6]
    20b0:	e3540000 	cmp	r4, #0	; 0x0
    20b4:	091ba8f0 	ldmeqdb	fp, {r4, r5, r6, r7, fp, sp, pc}
    20b8:	e1a01004 	mov	r1, r4
    20bc:	e59f0014 	ldr	r0, [pc, #14]	; 20d8 <do_printenv+0xc0>
    20c0:	ebfffffe 	bl	0 <_start>
    20c4:	e5b64004 	ldr	r4, [r6, #4]!
    20c8:	e3540000 	cmp	r4, #0	; 0x0
    20cc:	1a00082c 	bne	20b8 <do_printenv+0xa0>
    20d0:	e91ba8f0 	ldmdb	fp, {r4, r5, r6, r7, fp, sp, pc}
    20d4:	00000000 	andeq	r0, r0, r0
    20d8:	000001ec 	andeq	r0, r0, ip, ror #3

000020dc <do_umask>:
    20dc:	e1a0c00d 	mov	ip, sp
    20e0:	e3500001 	cmp	r0, #1	; 0x1
    20e4:	e92dd810 	stmdb	sp!, {r4, fp, ip, lr, pc}
    20e8:	e24cb004 	sub	fp, ip, #4	; 0x4
    20ec:	ca000842 	bgt	2110 <do_umask+0x34>
    20f0:	e3a00000 	mov	r0, #0	; 0x0
    20f4:	ebfffffe 	bl	0 <_start>
    20f8:	e1a04000 	mov	r4, r0
    20fc:	ebfffffe 	bl	0 <_start>
    2100:	e59f007c 	ldr	r0, [pc, #7c]	; 2184 <do_umask+0xa8>
    2104:	e1a01004 	mov	r1, r4
    2108:	e91b6810 	ldmdb	fp, {r4, fp, sp, lr}
    210c:	eafffffe 	b	0 <_start>
    2110:	e5911004 	ldr	r1, [r1, #4]
    2114:	e5d10000 	ldrb	r0, [r1]
    2118:	e28030d0 	add	r3, r0, #208	; 0xd0
    211c:	e20330ff 	and	r3, r3, #255	; 0xff
    2120:	e3530007 	cmp	r3, #7	; 0x7
    2124:	e3a04000 	mov	r4, #0	; 0x0
    2128:	8a000851 	bhi	214c <do_umask+0x70>
    212c:	e5d12000 	ldrb	r2, [r1]
    2130:	e5f10001 	ldrb	r0, [r1, #1]!
    2134:	e28030d0 	add	r3, r0, #208	; 0xd0
    2138:	e20330ff 	and	r3, r3, #255	; 0xff
    213c:	e0822184 	add	r2, r2, r4, lsl #3
    2140:	e3530007 	cmp	r3, #7	; 0x7
    2144:	e2424030 	sub	r4, r2, #48	; 0x30
    2148:	9a000849 	bls	212c <do_umask+0x50>
    214c:	e3500000 	cmp	r0, #0	; 0x0
    2150:	0a000858 	beq	2168 <do_umask+0x8c>
    2154:	e59f302c 	ldr	r3, [pc, #2c]	; 2188 <do_umask+0xac>
    2158:	e59f102c 	ldr	r1, [pc, #2c]	; 218c <do_umask+0xb0>
    215c:	e5930000 	ldr	r0, [r3]
    2160:	e91b6810 	ldmdb	fp, {r4, fp, sp, lr}
    2164:	eafffffe 	b	0 <_start>
    2168:	e3c43f7f 	bic	r3, r4, #508	; 0x1fc
    216c:	e3c33003 	bic	r3, r3, #3	; 0x3
    2170:	e3530000 	cmp	r3, #0	; 0x0
    2174:	1a000853 	bne	2154 <do_umask+0x78>
    2178:	e1a00004 	mov	r0, r4
    217c:	e91b6810 	ldmdb	fp, {r4, fp, sp, lr}
    2180:	eafffffe 	b	0 <_start>
    2184:	0000046c 	andeq	r0, r0, ip, ror #8
    2188:	00000000 	andeq	r0, r0, r0
    218c:	00000474 	andeq	r0, r0, r4, ror r4

00002190 <do_kill>:
    2190:	e1a0c00d 	mov	ip, sp
    2194:	e92dd8f0 	stmdb	sp!, {r4, r5, r6, r7, fp, ip, lr, pc}
    2198:	e1a07001 	mov	r7, r1
    219c:	e5972004 	ldr	r2, [r7, #4]
    21a0:	e5d23000 	ldrb	r3, [r2]
    21a4:	e353002d 	cmp	r3, #45	; 0x2d
    21a8:	e24cb004 	sub	fp, ip, #4	; 0x4
    21ac:	e1a06000 	mov	r6, r0
    21b0:	e3a0500f 	mov	r5, #15	; 0xf
    21b4:	0a000893 	beq	2254 <do_kill+0xc4>
    21b8:	e1a03006 	mov	r3, r6
    21bc:	e3530001 	cmp	r3, #1	; 0x1
    21c0:	e2466001 	sub	r6, r6, #1	; 0x1
    21c4:	d91ba8f0 	ldmledb	fp, {r4, r5, r6, r7, fp, sp, pc}
    21c8:	e5b74004 	ldr	r4, [r7, #4]!
    21cc:	e5d4c000 	ldrb	ip, [r4]
    21d0:	e28c30d0 	add	r3, ip, #208	; 0xd0
    21d4:	e20330ff 	and	r3, r3, #255	; 0xff
    21d8:	e3530009 	cmp	r3, #9	; 0x9
    21dc:	e3a00000 	mov	r0, #0	; 0x0
    21e0:	8a000880 	bhi	2208 <do_kill+0x78>
    21e4:	e5d43000 	ldrb	r3, [r4]
    21e8:	e5f4c001 	ldrb	ip, [r4, #1]!
    21ec:	e28c20d0 	add	r2, ip, #208	; 0xd0
    21f0:	e0801100 	add	r1, r0, r0, lsl #2
    21f4:	e20220ff 	and	r2, r2, #255	; 0xff
    21f8:	e0833081 	add	r3, r3, r1, lsl #1
    21fc:	e3520009 	cmp	r2, #9	; 0x9
    2200:	e2430030 	sub	r0, r3, #48	; 0x30
    2204:	9a000877 	bls	21e4 <do_kill+0x54>
    2208:	e35c0000 	cmp	ip, #0	; 0x0
    220c:	1a00088e 	bne	2240 <do_kill+0xb0>
    2210:	e1a01005 	mov	r1, r5
    2214:	ebfffffe 	bl	0 <_start>
    2218:	e3500000 	cmp	r0, #0	; 0x0
    221c:	ba00088b 	blt	2234 <do_kill+0xa4>
    2220:	e1a03006 	mov	r3, r6
    2224:	e3530001 	cmp	r3, #1	; 0x1
    2228:	e2466001 	sub	r6, r6, #1	; 0x1
    222c:	ca000870 	bgt	21c8 <do_kill+0x38>
    2230:	e91ba8f0 	ldmdb	fp, {r4, r5, r6, r7, fp, sp, pc}
    2234:	e5970000 	ldr	r0, [r7]
    2238:	ebfffffe 	bl	0 <_start>
    223c:	ea000886 	b	2220 <do_kill+0x90>
    2240:	e59f32cc 	ldr	r3, [pc, #2cc]	; 2514 <do_kill+0x384>
    2244:	e59f12cc 	ldr	r1, [pc, #2cc]	; 2518 <do_kill+0x388>
    2248:	e5930000 	ldr	r0, [r3]
    224c:	e91b68f0 	ldmdb	fp, {r4, r5, r6, r7, fp, sp, lr}
    2250:	eafffffe 	b	0 <_start>
    2254:	e2824001 	add	r4, r2, #1	; 0x1
    2258:	e59f12bc 	ldr	r1, [pc, #2bc]	; 251c <do_kill+0x38c>
    225c:	e1a00004 	mov	r0, r4
    2260:	ebfffffe 	bl	0 <_start>
    2264:	e3500000 	cmp	r0, #0	; 0x0
    2268:	0245500e 	subeq	r5, r5, #14	; 0xe
    226c:	0a000940 	beq	2508 <do_kill+0x378>
    2270:	e59f12a8 	ldr	r1, [pc, #2a8]	; 2520 <do_kill+0x390>
    2274:	e1a00004 	mov	r0, r4
    2278:	ebfffffe 	bl	0 <_start>
    227c:	e3500000 	cmp	r0, #0	; 0x0
    2280:	03a05002 	moveq	r5, #2	; 0x2
    2284:	0a000940 	beq	2508 <do_kill+0x378>
    2288:	e59f1294 	ldr	r1, [pc, #294]	; 2524 <do_kill+0x394>
    228c:	e1a00004 	mov	r0, r4
    2290:	ebfffffe 	bl	0 <_start>
    2294:	e3500000 	cmp	r0, #0	; 0x0
    2298:	03a05003 	moveq	r5, #3	; 0x3
    229c:	0a000940 	beq	2508 <do_kill+0x378>
    22a0:	e59f1280 	ldr	r1, [pc, #280]	; 2528 <do_kill+0x398>
    22a4:	e1a00004 	mov	r0, r4
    22a8:	ebfffffe 	bl	0 <_start>
    22ac:	e3500000 	cmp	r0, #0	; 0x0
    22b0:	03a05004 	moveq	r5, #4	; 0x4
    22b4:	0a000940 	beq	2508 <do_kill+0x378>
    22b8:	e59f126c 	ldr	r1, [pc, #26c]	; 252c <do_kill+0x39c>
    22bc:	e1a00004 	mov	r0, r4
    22c0:	ebfffffe 	bl	0 <_start>
    22c4:	e3500000 	cmp	r0, #0	; 0x0
    22c8:	03a05005 	moveq	r5, #5	; 0x5
    22cc:	0a000940 	beq	2508 <do_kill+0x378>
    22d0:	e59f1258 	ldr	r1, [pc, #258]	; 2530 <do_kill+0x3a0>
    22d4:	e1a00004 	mov	r0, r4
    22d8:	ebfffffe 	bl	0 <_start>
    22dc:	e3500000 	cmp	r0, #0	; 0x0
    22e0:	03a05006 	moveq	r5, #6	; 0x6
    22e4:	0a000940 	beq	2508 <do_kill+0x378>
    22e8:	e59f1244 	ldr	r1, [pc, #244]	; 2534 <do_kill+0x3a4>
    22ec:	e1a00004 	mov	r0, r4
    22f0:	ebfffffe 	bl	0 <_start>
    22f4:	e3500000 	cmp	r0, #0	; 0x0
    22f8:	03a05006 	moveq	r5, #6	; 0x6
    22fc:	0a000940 	beq	2508 <do_kill+0x378>
    2300:	e59f1230 	ldr	r1, [pc, #230]	; 2538 <do_kill+0x3a8>
    2304:	e1a00004 	mov	r0, r4
    2308:	ebfffffe 	bl	0 <_start>
    230c:	e3500000 	cmp	r0, #0	; 0x0
    2310:	03a05007 	moveq	r5, #7	; 0x7
    2314:	0a000940 	beq	2508 <do_kill+0x378>
    2318:	e59f121c 	ldr	r1, [pc, #21c]	; 253c <do_kill+0x3ac>
    231c:	e1a00004 	mov	r0, r4
    2320:	ebfffffe 	bl	0 <_start>
    2324:	e3500000 	cmp	r0, #0	; 0x0
    2328:	03a05008 	moveq	r5, #8	; 0x8
    232c:	0a000940 	beq	2508 <do_kill+0x378>
    2330:	e59f1208 	ldr	r1, [pc, #208]	; 2540 <do_kill+0x3b0>
    2334:	e1a00004 	mov	r0, r4
    2338:	ebfffffe 	bl	0 <_start>
    233c:	e3500000 	cmp	r0, #0	; 0x0
    2340:	03a05009 	moveq	r5, #9	; 0x9
    2344:	0a000940 	beq	2508 <do_kill+0x378>
    2348:	e59f11f4 	ldr	r1, [pc, #1f4]	; 2544 <do_kill+0x3b4>
    234c:	e1a00004 	mov	r0, r4
    2350:	ebfffffe 	bl	0 <_start>
    2354:	e3500000 	cmp	r0, #0	; 0x0
    2358:	03a0500a 	moveq	r5, #10	; 0xa
    235c:	0a000940 	beq	2508 <do_kill+0x378>
    2360:	e59f11e0 	ldr	r1, [pc, #1e0]	; 2548 <do_kill+0x3b8>
    2364:	e1a00004 	mov	r0, r4
    2368:	ebfffffe 	bl	0 <_start>
    236c:	e3500000 	cmp	r0, #0	; 0x0
    2370:	03a0500b 	moveq	r5, #11	; 0xb
    2374:	0a000940 	beq	2508 <do_kill+0x378>
    2378:	e59f11cc 	ldr	r1, [pc, #1cc]	; 254c <do_kill+0x3bc>
    237c:	e1a00004 	mov	r0, r4
    2380:	ebfffffe 	bl	0 <_start>
    2384:	e3500000 	cmp	r0, #0	; 0x0
    2388:	03a0500c 	moveq	r5, #12	; 0xc
    238c:	0a000940 	beq	2508 <do_kill+0x378>
    2390:	e59f11b8 	ldr	r1, [pc, #1b8]	; 2550 <do_kill+0x3c0>
    2394:	e1a00004 	mov	r0, r4
    2398:	ebfffffe 	bl	0 <_start>
    239c:	e3500000 	cmp	r0, #0	; 0x0
    23a0:	03a0500d 	moveq	r5, #13	; 0xd
    23a4:	0a000940 	beq	2508 <do_kill+0x378>
    23a8:	e59f11a4 	ldr	r1, [pc, #1a4]	; 2554 <do_kill+0x3c4>
    23ac:	e1a00004 	mov	r0, r4
    23b0:	ebfffffe 	bl	0 <_start>
    23b4:	e3500000 	cmp	r0, #0	; 0x0
    23b8:	03a0500e 	moveq	r5, #14	; 0xe
    23bc:	0a000940 	beq	2508 <do_kill+0x378>
    23c0:	e59f1190 	ldr	r1, [pc, #190]	; 2558 <do_kill+0x3c8>
    23c4:	e1a00004 	mov	r0, r4
    23c8:	ebfffffe 	bl	0 <_start>
    23cc:	e3500000 	cmp	r0, #0	; 0x0
    23d0:	03a0500f 	moveq	r5, #15	; 0xf
    23d4:	0a000940 	beq	2508 <do_kill+0x378>
    23d8:	e59f117c 	ldr	r1, [pc, #17c]	; 255c <do_kill+0x3cc>
    23dc:	e1a00004 	mov	r0, r4
    23e0:	ebfffffe 	bl	0 <_start>
    23e4:	e3500000 	cmp	r0, #0	; 0x0
    23e8:	03a05010 	moveq	r5, #16	; 0x10
    23ec:	0a000940 	beq	2508 <do_kill+0x378>
    23f0:	e59f1168 	ldr	r1, [pc, #168]	; 2560 <do_kill+0x3d0>
    23f4:	e1a00004 	mov	r0, r4
    23f8:	ebfffffe 	bl	0 <_start>
    23fc:	e3500000 	cmp	r0, #0	; 0x0
    2400:	03a05011 	moveq	r5, #17	; 0x11
    2404:	0a000940 	beq	2508 <do_kill+0x378>
    2408:	e59f1154 	ldr	r1, [pc, #154]	; 2564 <do_kill+0x3d4>
    240c:	e1a00004 	mov	r0, r4
    2410:	ebfffffe 	bl	0 <_start>
    2414:	e3500000 	cmp	r0, #0	; 0x0
    2418:	03a05012 	moveq	r5, #18	; 0x12
    241c:	0a000940 	beq	2508 <do_kill+0x378>
    2420:	e59f1140 	ldr	r1, [pc, #140]	; 2568 <do_kill+0x3d8>
    2424:	e1a00004 	mov	r0, r4
    2428:	ebfffffe 	bl	0 <_start>
    242c:	e3500000 	cmp	r0, #0	; 0x0
    2430:	03a05013 	moveq	r5, #19	; 0x13
    2434:	0a000940 	beq	2508 <do_kill+0x378>
    2438:	e59f112c 	ldr	r1, [pc, #12c]	; 256c <do_kill+0x3dc>
    243c:	e1a00004 	mov	r0, r4
    2440:	ebfffffe 	bl	0 <_start>
    2444:	e3500000 	cmp	r0, #0	; 0x0
    2448:	03a05014 	moveq	r5, #20	; 0x14
    244c:	0a000940 	beq	2508 <do_kill+0x378>
    2450:	e59f1118 	ldr	r1, [pc, #118]	; 2570 <do_kill+0x3e0>
    2454:	e1a00004 	mov	r0, r4
    2458:	ebfffffe 	bl	0 <_start>
    245c:	e3500000 	cmp	r0, #0	; 0x0
    2460:	03a05015 	moveq	r5, #21	; 0x15
    2464:	0a000940 	beq	2508 <do_kill+0x378>
    2468:	e59f1104 	ldr	r1, [pc, #104]	; 2574 <do_kill+0x3e4>
    246c:	e1a00004 	mov	r0, r4
    2470:	ebfffffe 	bl	0 <_start>
    2474:	e3500000 	cmp	r0, #0	; 0x0
    2478:	03a05016 	moveq	r5, #22	; 0x16
    247c:	0a000940 	beq	2508 <do_kill+0x378>
    2480:	e59f10f0 	ldr	r1, [pc, #f0]	; 2578 <do_kill+0x3e8>
    2484:	e1a00004 	mov	r0, r4
    2488:	ebfffffe 	bl	0 <_start>
    248c:	e3500000 	cmp	r0, #0	; 0x0
    2490:	03a05017 	moveq	r5, #23	; 0x17
    2494:	0a000940 	beq	2508 <do_kill+0x378>
    2498:	e59f10dc 	ldr	r1, [pc, #dc]	; 257c <do_kill+0x3ec>
    249c:	e1a00004 	mov	r0, r4
    24a0:	ebfffffe 	bl	0 <_start>
    24a4:	e3500000 	cmp	r0, #0	; 0x0
    24a8:	03a0501e 	moveq	r5, #30	; 0x1e
    24ac:	0a000940 	beq	2508 <do_kill+0x378>
    24b0:	e5d4c000 	ldrb	ip, [r4]
    24b4:	e28c30d0 	add	r3, ip, #208	; 0xd0
    24b8:	e20330ff 	and	r3, r3, #255	; 0xff
    24bc:	e3530009 	cmp	r3, #9	; 0x9
    24c0:	e3a05000 	mov	r5, #0	; 0x0
    24c4:	8a000939 	bhi	24ec <do_kill+0x35c>
    24c8:	e5d43000 	ldrb	r3, [r4]
    24cc:	e5f4c001 	ldrb	ip, [r4, #1]!
    24d0:	e28c20d0 	add	r2, ip, #208	; 0xd0
    24d4:	e0851105 	add	r1, r5, r5, lsl #2
    24d8:	e20220ff 	and	r2, r2, #255	; 0xff
    24dc:	e0833081 	add	r3, r3, r1, lsl #1
    24e0:	e3520009 	cmp	r2, #9	; 0x9
    24e4:	e2435030 	sub	r5, r3, #48	; 0x30
    24e8:	9a000930 	bls	24c8 <do_kill+0x338>
    24ec:	e35c0000 	cmp	ip, #0	; 0x0
    24f0:	0a000940 	beq	2508 <do_kill+0x378>
    24f4:	e59f3018 	ldr	r3, [pc, #18]	; 2514 <do_kill+0x384>
    24f8:	e59f1080 	ldr	r1, [pc, #80]	; 2580 <do_kill+0x3f0>
    24fc:	e5930000 	ldr	r0, [r3]
    2500:	e91b68f0 	ldmdb	fp, {r4, r5, r6, r7, fp, sp, lr}
    2504:	eafffffe 	b	0 <_start>
    2508:	e2466001 	sub	r6, r6, #1	; 0x1
    250c:	e2877004 	add	r7, r7, #4	; 0x4
    2510:	ea00086c 	b	21b8 <do_kill+0x28>
    2514:	00000000 	andeq	r0, r0, r0
    2518:	00000488 	andeq	r0, r0, r8, lsl #9
    251c:	0000049c 	muleq	r0, ip, r4
    2520:	000004a0 	andeq	r0, r0, r0, lsr #9
    2524:	000004a4 	andeq	r0, r0, r4, lsr #9
    2528:	000004ac 	andeq	r0, r0, ip, lsr #9
    252c:	000004b0 	streqh	r0, [r0], -r0
    2530:	000004b8 	streqh	r0, [r0], -r8
    2534:	000004c0 	andeq	r0, r0, r0, asr #9
    2538:	000004c4 	andeq	r0, r0, r4, asr #9
    253c:	000004c8 	andeq	r0, r0, r8, asr #9
    2540:	000004cc 	andeq	r0, r0, ip, asr #9
    2544:	000004d4 	ldreqd	r0, [r0], -r4
    2548:	000004dc 	ldreqd	r0, [r0], -ip
    254c:	000004e4 	andeq	r0, r0, r4, ror #9
    2550:	000004ec 	andeq	r0, r0, ip, ror #9
    2554:	000004f4 	streqd	r0, [r0], -r4
    2558:	000004fc 	streqd	r0, [r0], -ip
    255c:	00000504 	andeq	r0, r0, r4, lsl #10
    2560:	0000050c 	andeq	r0, r0, ip, lsl #10
    2564:	00000514 	andeq	r0, r0, r4, lsl r5
    2568:	0000051c 	andeq	r0, r0, ip, lsl r5
    256c:	00000524 	andeq	r0, r0, r4, lsr #10
    2570:	0000052c 	andeq	r0, r0, ip, lsr #10
    2574:	00000534 	andeq	r0, r0, r4, lsr r5
    2578:	0000053c 	andeq	r0, r0, ip, lsr r5
    257c:	00000540 	andeq	r0, r0, r0, asr #10
    2580:	00000544 	andeq	r0, r0, r4, asr #10

00002584 <do_cat>:
    2584:	e1a0c00d 	mov	ip, sp
    2588:	e92dd8f0 	stmdb	sp!, {r4, r5, r6, r7, fp, ip, lr, pc}
    258c:	e1a06000 	mov	r6, r0
    2590:	e1a03006 	mov	r3, r6
    2594:	e24cb004 	sub	fp, ip, #4	; 0x4
    2598:	e24ddc01 	sub	sp, sp, #256	; 0x100
    259c:	e3530001 	cmp	r3, #1	; 0x1
    25a0:	e1a07001 	mov	r7, r1
    25a4:	e2466001 	sub	r6, r6, #1	; 0x1
    25a8:	d91ba8f0 	ldmledb	fp, {r4, r5, r6, r7, fp, sp, pc}
    25ac:	e59f30a0 	ldr	r3, [pc, #a0]	; 2654 <do_cat+0xd0>
    25b0:	e5932000 	ldr	r2, [r3]
    25b4:	e3520000 	cmp	r2, #0	; 0x0
    25b8:	1a000990 	bne	2648 <do_cat+0xc4>
    25bc:	e5b74004 	ldr	r4, [r7, #4]!
    25c0:	e59f1090 	ldr	r1, [pc, #90]	; 2658 <do_cat+0xd4>
    25c4:	e1a00004 	mov	r0, r4
    25c8:	ebfffffe 	bl	0 <_start>
    25cc:	e1a05000 	mov	r5, r0
    25d0:	e3550000 	cmp	r5, #0	; 0x0
    25d4:	0a00098d 	beq	263c <do_cat+0xb8>
    25d8:	e24b4f47 	sub	r4, fp, #284	; 0x11c
    25dc:	e3550000 	cmp	r5, #0	; 0x0
    25e0:	e3a01001 	mov	r1, #1	; 0x1
    25e4:	e3a02c01 	mov	r2, #256	; 0x100
    25e8:	e1a03005 	mov	r3, r5
    25ec:	e1a00004 	mov	r0, r4
    25f0:	0a000988 	beq	2628 <do_cat+0xa4>
    25f4:	ebfffffe 	bl	0 <_start>
    25f8:	e1a03000 	mov	r3, r0
    25fc:	e3530000 	cmp	r3, #0	; 0x0
    2600:	e59fc054 	ldr	ip, [pc, #54]	; 265c <do_cat+0xd8>
    2604:	e1a00004 	mov	r0, r4
    2608:	e1a02003 	mov	r2, r3
    260c:	e3a01001 	mov	r1, #1	; 0x1
    2610:	0a000986 	beq	2620 <do_cat+0x9c>
    2614:	e59c3000 	ldr	r3, [ip]
    2618:	ebfffffe 	bl	0 <_start>
    261c:	ea000974 	b	25d8 <do_cat+0x54>
    2620:	e1a00005 	mov	r0, r5
    2624:	ebfffffe 	bl	0 <_start>
    2628:	e1a03006 	mov	r3, r6
    262c:	e3530001 	cmp	r3, #1	; 0x1
    2630:	e2466001 	sub	r6, r6, #1	; 0x1
    2634:	ca000969 	bgt	25ac <do_cat+0x28>
    2638:	e91ba8f0 	ldmdb	fp, {r4, r5, r6, r7, fp, sp, pc}
    263c:	e1a00004 	mov	r0, r4
    2640:	ebfffffe 	bl	0 <_start>
    2644:	e91ba8f0 	ldmdb	fp, {r4, r5, r6, r7, fp, sp, pc}
    2648:	e1a00005 	mov	r0, r5
    264c:	ebfffffe 	bl	0 <_start>
    2650:	e91ba8f0 	ldmdb	fp, {r4, r5, r6, r7, fp, sp, pc}
    2654:	00000000 	andeq	r0, r0, r0
    2658:	00000554 	andeq	r0, r0, r4, asr r5
    265c:	00000000 	andeq	r0, r0, r0

00002660 <do_ls>:
    2660:	e1a0c00d 	mov	ip, sp
    2664:	e92ddff0 	stmdb	sp!, {r4, r5, r6, r7, r8, r9, sl, fp, ip, lr, pc}
    2668:	e59f44bc 	ldr	r4, [pc, #4bc]	; 2b2c <do_ls+0x4cc>
    266c:	e24cb004 	sub	fp, ip, #4	; 0x4
    2670:	e24ddf57 	sub	sp, sp, #348	; 0x15c
    2674:	e5943000 	ldr	r3, [r4]
    2678:	e3530000 	cmp	r3, #0	; 0x0
    267c:	e1a0a000 	mov	sl, r0
    2680:	e1a09001 	mov	r9, r1
    2684:	0a000abc 	beq	2af8 <do_ls+0x498>
    2688:	e59f34a0 	ldr	r3, [pc, #4a0]	; 2b30 <do_ls+0x4d0>
    268c:	e3a02000 	mov	r2, #0	; 0x0
    2690:	e35a0001 	cmp	sl, #1	; 0x1
    2694:	e5832000 	str	r2, [r3]
    2698:	e1a07002 	mov	r7, r2
    269c:	da0009aa 	ble	26b0 <do_ls+0x50>
    26a0:	e5993004 	ldr	r3, [r9, #4]
    26a4:	e5d32000 	ldrb	r2, [r3]
    26a8:	e352002d 	cmp	r2, #45	; 0x2d
    26ac:	0a000a74 	beq	29d8 <do_ls+0x378>
    26b0:	e3170020 	tst	r7, #32	; 0x20
    26b4:	0a0009b0 	beq	26c8 <do_ls+0x68>
    26b8:	e3d71020 	bics	r1, r7, #32	; 0x20
    26bc:	159f3470 	ldrne	r3, [pc, #470]	; 2b34 <do_ls+0x4d4>
    26c0:	159f1470 	ldrne	r1, [pc, #470]	; 2b38 <do_ls+0x4d8>
    26c4:	1a000ac6 	bne	2b20 <do_ls+0x4c0>
    26c8:	e35a0001 	cmp	sl, #1	; 0x1
    26cc:	ca0009b8 	bgt	26e8 <do_ls+0x88>
    26d0:	e59f9464 	ldr	r9, [pc, #464]	; 2b3c <do_ls+0x4dc>
    26d4:	e59f3464 	ldr	r3, [pc, #464]	; 2b40 <do_ls+0x4e0>
    26d8:	e59f2464 	ldr	r2, [pc, #464]	; 2b44 <do_ls+0x4e4>
    26dc:	e5893000 	str	r3, [r9]
    26e0:	e5892004 	str	r2, [r9, #4]
    26e4:	e3a0a002 	mov	sl, #2	; 0x2
    26e8:	e35a0002 	cmp	sl, #2	; 0x2
    26ec:	e1a0300a 	mov	r3, sl
    26f0:	c3877008 	orrgt	r7, r7, #8	; 0x8
    26f4:	ea0009d8 	b	2768 <do_ls+0x108>
    26f8:	e5b94004 	ldr	r4, [r9, #4]!
    26fc:	e5d43000 	ldrb	r3, [r4]
    2700:	e3a02000 	mov	r2, #0	; 0x0
    2704:	e3530000 	cmp	r3, #0	; 0x0
    2708:	e50b2184 	str	r2, [fp, -#388]
    270c:	0a0009ca 	beq	2730 <do_ls+0xd0>
    2710:	e1a00004 	mov	r0, r4
    2714:	ebfffffe 	bl	0 <_start>
    2718:	e0840000 	add	r0, r4, r0
    271c:	e5503001 	ldrb	r3, [r0, -#1]
    2720:	e353002f 	cmp	r3, #47	; 0x2f
    2724:	13a03000 	movne	r3, #0	; 0x0
    2728:	03a03001 	moveq	r3, #1	; 0x1
    272c:	e50b3184 	str	r3, [fp, -#388]
    2730:	e24b3d06 	sub	r3, fp, #384	; 0x180
    2734:	e1a00004 	mov	r0, r4
    2738:	e1a01003 	mov	r1, r3
    273c:	ebfffffe 	bl	0 <_start>
    2740:	e3500000 	cmp	r0, #0	; 0x0
    2744:	ba000a71 	blt	29cc <do_ls+0x36c>
    2748:	e3170002 	tst	r7, #2	; 0x2
    274c:	0a0009e4 	beq	2798 <do_ls+0x138>
    2750:	e24b2d06 	sub	r2, fp, #384	; 0x180
    2754:	e1a01002 	mov	r1, r2
    2758:	e1a00004 	mov	r0, r4
    275c:	e1a02007 	mov	r2, r7
    2760:	eb000ad9 	bl	2b6c <lsfile>
    2764:	e1a0300a 	mov	r3, sl
    2768:	e3530001 	cmp	r3, #1	; 0x1
    276c:	e24aa001 	sub	sl, sl, #1	; 0x1
    2770:	ca0009bc 	bgt	26f8 <do_ls+0x98>
    2774:	e59f33cc 	ldr	r3, [pc, #3cc]	; 2b48 <do_ls+0x4e8>
    2778:	e5932000 	ldr	r2, [r3]
    277c:	e3520000 	cmp	r2, #0	; 0x0
    2780:	091baff0 	ldmeqdb	fp, {r4, r5, r6, r7, r8, r9, sl, fp, sp, pc}
    2784:	e59f33c0 	ldr	r3, [pc, #3c0]	; 2b4c <do_ls+0x4ec>
    2788:	e3a0000a 	mov	r0, #10	; 0xa
    278c:	e5931000 	ldr	r1, [r3]
    2790:	ebfffffe 	bl	0 <_start>
    2794:	e91baff0 	ldmdb	fp, {r4, r5, r6, r7, r8, r9, sl, fp, sp, pc}
    2798:	e51b3170 	ldr	r3, [fp, -#368]
    279c:	e2033a0f 	and	r3, r3, #61440	; 0xf000
    27a0:	e3530901 	cmp	r3, #16384	; 0x4000
    27a4:	1a0009d2 	bne	2750 <do_ls+0xf0>
    27a8:	e1a00004 	mov	r0, r4
    27ac:	ebfffffe 	bl	0 <_start>
    27b0:	e1a08000 	mov	r8, r0
    27b4:	e3580000 	cmp	r8, #0	; 0x0
    27b8:	0a000a71 	beq	29cc <do_ls+0x36c>
    27bc:	e3170008 	tst	r7, #8	; 0x8
    27c0:	0a0009f2 	beq	27d0 <do_ls+0x170>
    27c4:	e1a01004 	mov	r1, r4
    27c8:	e59f0380 	ldr	r0, [pc, #380]	; 2b50 <do_ls+0x4f0>
    27cc:	ebfffffe 	bl	0 <_start>
    27d0:	e1a00008 	mov	r0, r8
    27d4:	ebfffffe 	bl	0 <_start>
    27d8:	e1a05000 	mov	r5, r0
    27dc:	e3550000 	cmp	r5, #0	; 0x0
    27e0:	0a000a31 	beq	28cc <do_ls+0x26c>
    27e4:	e5d5300b 	ldrb	r3, [r5, #11]
    27e8:	e353002e 	cmp	r3, #46	; 0x2e
    27ec:	0a000a6e 	beq	29c0 <do_ls+0x360>
    27f0:	e24b1028 	sub	r1, fp, #40	; 0x28
    27f4:	e3e030ff 	mvn	r3, #255	; 0xff
    27f8:	e3a02000 	mov	r2, #0	; 0x0
    27fc:	e7c12003 	strb	r2, [r1, r3]
    2800:	e5d41000 	ldrb	r1, [r4]
    2804:	e351002e 	cmp	r1, #46	; 0x2e
    2808:	0a000a69 	beq	29ac <do_ls+0x34c>
    280c:	e24b6f4a 	sub	r6, fp, #296	; 0x128
    2810:	e1a00006 	mov	r0, r6
    2814:	e1a01004 	mov	r1, r4
    2818:	ebfffffe 	bl	0 <_start>
    281c:	e51b2184 	ldr	r2, [fp, -#388]
    2820:	e3520000 	cmp	r2, #0	; 0x0
    2824:	0a000a65 	beq	299c <do_ls+0x33c>
    2828:	e285100b 	add	r1, r5, #11	; 0xb
    282c:	e1a00006 	mov	r0, r6
    2830:	ebfffffe 	bl	0 <_start>
    2834:	e59f52f0 	ldr	r5, [pc, #2f0]	; 2b2c <do_ls+0x4cc>
    2838:	e59f12f0 	ldr	r1, [pc, #2f0]	; 2b30 <do_ls+0x4d0>
    283c:	e5950000 	ldr	r0, [r5]
    2840:	e5913000 	ldr	r3, [r1]
    2844:	e1530000 	cmp	r3, r0
    2848:	ba000a22 	blt	2890 <do_ls+0x230>
    284c:	e1a00100 	mov	r0, r0, lsl #2
    2850:	e2800b01 	add	r0, r0, #1024	; 0x400
    2854:	ebfffffe 	bl	0 <_start>
    2858:	e1a03000 	mov	r3, r0
    285c:	e3530000 	cmp	r3, #0	; 0x0
    2860:	0a000a62 	beq	2990 <do_ls+0x330>
    2864:	e59f32e8 	ldr	r3, [pc, #2e8]	; 2b54 <do_ls+0x4f4>
    2868:	e5952000 	ldr	r2, [r5]
    286c:	e5931000 	ldr	r1, [r3]
    2870:	e1a02102 	mov	r2, r2, lsl #2
    2874:	ebfffffe 	bl	0 <_start>
    2878:	e59f12d4 	ldr	r1, [pc, #2d4]	; 2b54 <do_ls+0x4f4>
    287c:	e5910000 	ldr	r0, [r1]
    2880:	ebfffffe 	bl	0 <_start>
    2884:	e5953000 	ldr	r3, [r5]
    2888:	e2833c01 	add	r3, r3, #256	; 0x100
    288c:	e5853000 	str	r3, [r5]
    2890:	e1a00006 	mov	r0, r6
    2894:	ebfffffe 	bl	0 <_start>
    2898:	e59f22b4 	ldr	r2, [pc, #2b4]	; 2b54 <do_ls+0x4f4>
    289c:	e59f128c 	ldr	r1, [pc, #28c]	; 2b30 <do_ls+0x4d0>
    28a0:	e5923000 	ldr	r3, [r2]
    28a4:	e5912000 	ldr	r2, [r1]
    28a8:	e3500000 	cmp	r0, #0	; 0x0
    28ac:	e7830102 	str	r0, [r3, r2, lsl #2]
    28b0:	12823001 	addne	r3, r2, #1	; 0x1
    28b4:	15813000 	strne	r3, [r1]
    28b8:	1a0009f2 	bne	27d0 <do_ls+0x170>
    28bc:	e59f3270 	ldr	r3, [pc, #270]	; 2b34 <do_ls+0x4d4>
    28c0:	e59f1290 	ldr	r1, [pc, #290]	; 2b58 <do_ls+0x4f8>
    28c4:	e5930000 	ldr	r0, [r3]
    28c8:	ebfffffe 	bl	0 <_start>
    28cc:	e1a00008 	mov	r0, r8
    28d0:	ebfffffe 	bl	0 <_start>
    28d4:	e59f3278 	ldr	r3, [pc, #278]	; 2b54 <do_ls+0x4f4>
    28d8:	e59f2250 	ldr	r2, [pc, #250]	; 2b30 <do_ls+0x4d0>
    28dc:	e5930000 	ldr	r0, [r3]
    28e0:	e5921000 	ldr	r1, [r2]
    28e4:	e59f3270 	ldr	r3, [pc, #270]	; 2b5c <do_ls+0x4fc>
    28e8:	e3a02004 	mov	r2, #4	; 0x4
    28ec:	ebfffffe 	bl	0 <_start>
    28f0:	e59f1238 	ldr	r1, [pc, #238]	; 2b30 <do_ls+0x4d0>
    28f4:	e5913000 	ldr	r3, [r1]
    28f8:	e3a05000 	mov	r5, #0	; 0x0
    28fc:	e1550003 	cmp	r5, r3
    2900:	aa000a5a 	bge	2970 <do_ls+0x310>
    2904:	e59f2248 	ldr	r2, [pc, #248]	; 2b54 <do_ls+0x4f4>
    2908:	e5923000 	ldr	r3, [r2]
    290c:	e7934105 	ldr	r4, [r3, r5, lsl #2]
    2910:	e24b3d06 	sub	r3, fp, #384	; 0x180
    2914:	e1a01003 	mov	r1, r3
    2918:	e1a00004 	mov	r0, r4
    291c:	ebfffffe 	bl	0 <_start>
    2920:	e1a03000 	mov	r3, r0
    2924:	e3530000 	cmp	r3, #0	; 0x0
    2928:	e1a00004 	mov	r0, r4
    292c:	e3a0102f 	mov	r1, #47	; 0x2f
    2930:	ba000a5e 	blt	2980 <do_ls+0x320>
    2934:	ebfffffe 	bl	0 <_start>
    2938:	e3500000 	cmp	r0, #0	; 0x0
    293c:	e24b2d06 	sub	r2, fp, #384	; 0x180
    2940:	e2800001 	add	r0, r0, #1	; 0x1
    2944:	e1a01002 	mov	r1, r2
    2948:	01a00004 	moveq	r0, r4
    294c:	e1a02007 	mov	r2, r7
    2950:	eb000ad9 	bl	2b6c <lsfile>
    2954:	e1a00004 	mov	r0, r4
    2958:	ebfffffe 	bl	0 <_start>
    295c:	e59f11cc 	ldr	r1, [pc, #1cc]	; 2b30 <do_ls+0x4d0>
    2960:	e5913000 	ldr	r3, [r1]
    2964:	e2855001 	add	r5, r5, #1	; 0x1
    2968:	e1550003 	cmp	r5, r3
    296c:	ba000a3f 	blt	2904 <do_ls+0x2a4>
    2970:	e59f21b8 	ldr	r2, [pc, #1b8]	; 2b30 <do_ls+0x4d0>
    2974:	e3a03000 	mov	r3, #0	; 0x0
    2978:	e5823000 	str	r3, [r2]
    297c:	ea0009d7 	b	2764 <do_ls+0x104>
    2980:	ebfffffe 	bl	0 <_start>
    2984:	e1a00004 	mov	r0, r4
    2988:	ebfffffe 	bl	0 <_start>
    298c:	ea000a55 	b	295c <do_ls+0x2fc>
    2990:	e59f319c 	ldr	r3, [pc, #19c]	; 2b34 <do_ls+0x4d4>
    2994:	e59f11c4 	ldr	r1, [pc, #1c4]	; 2b60 <do_ls+0x500>
    2998:	ea000a2f 	b	28c4 <do_ls+0x264>
    299c:	e1a00006 	mov	r0, r6
    29a0:	e59f11bc 	ldr	r1, [pc, #1bc]	; 2b64 <do_ls+0x504>
    29a4:	ebfffffe 	bl	0 <_start>
    29a8:	ea000a08 	b	2828 <do_ls+0x1c8>
    29ac:	e5d43001 	ldrb	r3, [r4, #1]
    29b0:	e1530002 	cmp	r3, r2
    29b4:	1a000a01 	bne	280c <do_ls+0x1ac>
    29b8:	e24b6f4a 	sub	r6, fp, #296	; 0x128
    29bc:	ea000a08 	b	2828 <do_ls+0x1c8>
    29c0:	e3170010 	tst	r7, #16	; 0x10
    29c4:	0a0009f2 	beq	27d0 <do_ls+0x170>
    29c8:	ea0009fa 	b	27f0 <do_ls+0x190>
    29cc:	e1a00004 	mov	r0, r4
    29d0:	ebfffffe 	bl	0 <_start>
    29d4:	ea0009d7 	b	2764 <do_ls+0x104>
    29d8:	e5b92004 	ldr	r2, [r9, #4]!
    29dc:	e5d23001 	ldrb	r3, [r2, #1]
    29e0:	e1530007 	cmp	r3, r7
    29e4:	e24aa001 	sub	sl, sl, #1	; 0x1
    29e8:	e2820001 	add	r0, r2, #1	; 0x1
    29ec:	0a0009aa 	beq	26b0 <do_ls+0x50>
    29f0:	e4d03001 	ldrb	r3, [r0], #1
    29f4:	e2433043 	sub	r3, r3, #67	; 0x43
    29f8:	e3530029 	cmp	r3, #41	; 0x29
    29fc:	979ff103 	ldrls	pc, [pc, r3, lsl #2]
    2a00:	ea000ab6 	b	2ae0 <do_ls+0x480>
    2a04:	00002ac0 	andeq	r2, r0, r0, asr #21
    2a08:	00002ae0 	andeq	r2, r0, r0, ror #21
    2a0c:	00002ae0 	andeq	r2, r0, r0, ror #21
    2a10:	00002ae0 	andeq	r2, r0, r0, ror #21
    2a14:	00002ae0 	andeq	r2, r0, r0, ror #21
    2a18:	00002ae0 	andeq	r2, r0, r0, ror #21
    2a1c:	00002ae0 	andeq	r2, r0, r0, ror #21
    2a20:	00002ae0 	andeq	r2, r0, r0, ror #21
    2a24:	00002ae0 	andeq	r2, r0, r0, ror #21
    2a28:	00002ae0 	andeq	r2, r0, r0, ror #21
    2a2c:	00002ae0 	andeq	r2, r0, r0, ror #21
    2a30:	00002ae0 	andeq	r2, r0, r0, ror #21
    2a34:	00002ae0 	andeq	r2, r0, r0, ror #21
    2a38:	00002ae0 	andeq	r2, r0, r0, ror #21
    2a3c:	00002ae0 	andeq	r2, r0, r0, ror #21
    2a40:	00002ae0 	andeq	r2, r0, r0, ror #21
    2a44:	00002ae0 	andeq	r2, r0, r0, ror #21
    2a48:	00002ae0 	andeq	r2, r0, r0, ror #21
    2a4c:	00002ae0 	andeq	r2, r0, r0, ror #21
    2a50:	00002ae0 	andeq	r2, r0, r0, ror #21
    2a54:	00002ae0 	andeq	r2, r0, r0, ror #21
    2a58:	00002ae0 	andeq	r2, r0, r0, ror #21
    2a5c:	00002ae0 	andeq	r2, r0, r0, ror #21
    2a60:	00002ae0 	andeq	r2, r0, r0, ror #21
    2a64:	00002ae0 	andeq	r2, r0, r0, ror #21
    2a68:	00002ae0 	andeq	r2, r0, r0, ror #21
    2a6c:	00002ae0 	andeq	r2, r0, r0, ror #21
    2a70:	00002ae0 	andeq	r2, r0, r0, ror #21
    2a74:	00002ae0 	andeq	r2, r0, r0, ror #21
    2a78:	00002ae0 	andeq	r2, r0, r0, ror #21
    2a7c:	00002ac8 	andeq	r2, r0, r8, asr #21
    2a80:	00002ae0 	andeq	r2, r0, r0, ror #21
    2a84:	00002ae0 	andeq	r2, r0, r0, ror #21
    2a88:	00002ad0 	ldreqd	r2, [r0], -r0
    2a8c:	00002ae0 	andeq	r2, r0, r0, ror #21
    2a90:	00002ae0 	andeq	r2, r0, r0, ror #21
    2a94:	00002ae0 	andeq	r2, r0, r0, ror #21
    2a98:	00002ae0 	andeq	r2, r0, r0, ror #21
    2a9c:	00002ad8 	ldreqd	r2, [r0], -r8
    2aa0:	00002ae0 	andeq	r2, r0, r0, ror #21
    2aa4:	00002ae0 	andeq	r2, r0, r0, ror #21
    2aa8:	00002aac 	andeq	r2, r0, ip, lsr #21
    2aac:	e3877001 	orr	r7, r7, #1	; 0x1
    2ab0:	e5d03000 	ldrb	r3, [r0]
    2ab4:	e3530000 	cmp	r3, #0	; 0x0
    2ab8:	1a000a7a 	bne	29f0 <do_ls+0x390>
    2abc:	ea0009aa 	b	26b0 <do_ls+0x50>
    2ac0:	e3877020 	orr	r7, r7, #32	; 0x20
    2ac4:	ea000aaa 	b	2ab0 <do_ls+0x450>
    2ac8:	e3877010 	orr	r7, r7, #16	; 0x10
    2acc:	ea000aaa 	b	2ab0 <do_ls+0x450>
    2ad0:	e3877002 	orr	r7, r7, #2	; 0x2
    2ad4:	ea000aaa 	b	2ab0 <do_ls+0x450>
    2ad8:	e3877004 	orr	r7, r7, #4	; 0x4
    2adc:	ea000aaa 	b	2ab0 <do_ls+0x450>
    2ae0:	e59f304c 	ldr	r3, [pc, #4c]	; 2b34 <do_ls+0x4d4>
    2ae4:	e5502001 	ldrb	r2, [r0, -#1]
    2ae8:	e59f1078 	ldr	r1, [pc, #78]	; 2b68 <do_ls+0x508>
    2aec:	e5930000 	ldr	r0, [r3]
    2af0:	ebfffffe 	bl	0 <_start>
    2af4:	e91baff0 	ldmdb	fp, {r4, r5, r6, r7, r8, r9, sl, fp, sp, pc}
    2af8:	e3a00b01 	mov	r0, #1024	; 0x400
    2afc:	ebfffffe 	bl	0 <_start>
    2b00:	e59f304c 	ldr	r3, [pc, #4c]	; 2b54 <do_ls+0x4f4>
    2b04:	e3500000 	cmp	r0, #0	; 0x0
    2b08:	e5830000 	str	r0, [r3]
    2b0c:	13a03c01 	movne	r3, #256	; 0x100
    2b10:	15843000 	strne	r3, [r4]
    2b14:	1a0009a0 	bne	2688 <do_ls+0x28>
    2b18:	e59f3014 	ldr	r3, [pc, #14]	; 2b34 <do_ls+0x4d4>
    2b1c:	e59f103c 	ldr	r1, [pc, #3c]	; 2b60 <do_ls+0x500>
    2b20:	e5930000 	ldr	r0, [r3]
    2b24:	ebfffffe 	bl	0 <_start>
    2b28:	e91baff0 	ldmdb	fp, {r4, r5, r6, r7, r8, r9, sl, fp, sp, pc}
    2b2c:	00000168 	andeq	r0, r0, r8, ror #2
    2b30:	0000016c 	andeq	r0, r0, ip, ror #2
    2b34:	00000000 	andeq	r0, r0, r0
    2b38:	00000558 	andeq	r0, r0, r8, asr r5
    2b3c:	00000134 	andeq	r0, r0, r4, lsr r1
    2b40:	00000584 	andeq	r0, r0, r4, lsl #11
    2b44:	00000588 	andeq	r0, r0, r8, lsl #11
    2b48:	00001f34 	andeq	r1, r0, r4, lsr pc
    2b4c:	00000000 	andeq	r0, r0, r0
    2b50:	0000058c 	andeq	r0, r0, ip, lsl #11
    2b54:	00000164 	andeq	r0, r0, r4, ror #2
    2b58:	00000594 	muleq	r0, r4, r5
    2b5c:	00000000 	andeq	r0, r0, r0
    2b60:	000005b0 	streqh	r0, [r0], -r0
    2b64:	000005cc 	andeq	r0, r0, ip, asr #11
    2b68:	000005d0 	ldreqd	r0, [r0], -r0

00002b6c <lsfile>:
    2b6c:	e1a0c00d 	mov	ip, sp
    2b70:	e92ddff0 	stmdb	sp!, {r4, r5, r6, r7, r8, r9, sl, fp, ip, lr, pc}
    2b74:	e24cb004 	sub	fp, ip, #4	; 0x4
    2b78:	e1a0a002 	mov	sl, r2
    2b7c:	e24b8f4a 	sub	r8, fp, #296	; 0x128
    2b80:	e24dde11 	sub	sp, sp, #272	; 0x110
    2b84:	e3a03000 	mov	r3, #0	; 0x0
    2b88:	e31a0004 	tst	sl, #4	; 0x4
    2b8c:	e5c83000 	strb	r3, [r8]
    2b90:	e1a07001 	mov	r7, r1
    2b94:	e50b012c 	str	r0, [fp, -#300]
    2b98:	e1a06008 	mov	r6, r8
    2b9c:	0a000aed 	beq	2bbc <lsfile+0x50>
    2ba0:	e597200c 	ldr	r2, [r7, #12]
    2ba4:	e59f12b0 	ldr	r1, [pc, #2b0]	; 2e5c <lsfile+0x2f0>
    2ba8:	e1a00008 	mov	r0, r8
    2bac:	ebfffffe 	bl	0 <_start>
    2bb0:	e1a00008 	mov	r0, r8
    2bb4:	ebfffffe 	bl	0 <_start>
    2bb8:	e0886000 	add	r6, r8, r0
    2bbc:	e21a3001 	ands	r3, sl, #1	; 0x1
    2bc0:	e50b3130 	str	r3, [fp, -#304]
    2bc4:	0a000b4b 	beq	2d34 <lsfile+0x1c8>
    2bc8:	e5970010 	ldr	r0, [r7, #16]
    2bcc:	ebfffffe 	bl	0 <_start>
    2bd0:	e1a01000 	mov	r1, r0
    2bd4:	e1a00006 	mov	r0, r6
    2bd8:	ebfffffe 	bl	0 <_start>
    2bdc:	e1a00006 	mov	r0, r6
    2be0:	ebfffffe 	bl	0 <_start>
    2be4:	e0866000 	add	r6, r6, r0
    2be8:	e5972014 	ldr	r2, [r7, #20]
    2bec:	e59f126c 	ldr	r1, [pc, #26c]	; 2e60 <lsfile+0x2f4>
    2bf0:	e1a00006 	mov	r0, r6
    2bf4:	ebfffffe 	bl	0 <_start>
    2bf8:	e1a00006 	mov	r0, r6
    2bfc:	ebfffffe 	bl	0 <_start>
    2c00:	e59f925c 	ldr	r9, [pc, #25c]	; 2e64 <lsfile+0x2f8>
    2c04:	e5993000 	ldr	r3, [r9]
    2c08:	e3530000 	cmp	r3, #0	; 0x0
    2c0c:	e0866000 	add	r6, r6, r0
    2c10:	0a000b92 	beq	2e50 <lsfile+0x2e4>
    2c14:	e59f524c 	ldr	r5, [pc, #24c]	; 2e68 <lsfile+0x2fc>
    2c18:	e5972018 	ldr	r2, [r7, #24]
    2c1c:	e5953000 	ldr	r3, [r5]
    2c20:	e1520003 	cmp	r2, r3
    2c24:	059f4240 	ldreq	r4, [pc, #240]	; 2e6c <lsfile+0x300>
    2c28:	0a000b11 	beq	2c4c <lsfile+0xe0>
    2c2c:	e59f4238 	ldr	r4, [pc, #238]	; 2e6c <lsfile+0x300>
    2c30:	e59f1238 	ldr	r1, [pc, #238]	; 2e70 <lsfile+0x304>
    2c34:	e1a00004 	mov	r0, r4
    2c38:	ebfffffe 	bl	0 <_start>
    2c3c:	e5973018 	ldr	r3, [r7, #24]
    2c40:	e3a02001 	mov	r2, #1	; 0x1
    2c44:	e5853000 	str	r3, [r5]
    2c48:	e5892000 	str	r2, [r9]
    2c4c:	e1a02004 	mov	r2, r4
    2c50:	e59f121c 	ldr	r1, [pc, #21c]	; 2e74 <lsfile+0x308>
    2c54:	e1a00006 	mov	r0, r6
    2c58:	ebfffffe 	bl	0 <_start>
    2c5c:	e1a00006 	mov	r0, r6
    2c60:	ebfffffe 	bl	0 <_start>
    2c64:	e59f920c 	ldr	r9, [pc, #20c]	; 2e78 <lsfile+0x30c>
    2c68:	e5993000 	ldr	r3, [r9]
    2c6c:	e3530000 	cmp	r3, #0	; 0x0
    2c70:	e0866000 	add	r6, r6, r0
    2c74:	0a000b8f 	beq	2e44 <lsfile+0x2d8>
    2c78:	e59f51fc 	ldr	r5, [pc, #1fc]	; 2e7c <lsfile+0x310>
    2c7c:	e597201c 	ldr	r2, [r7, #28]
    2c80:	e5953000 	ldr	r3, [r5]
    2c84:	e1520003 	cmp	r2, r3
    2c88:	059f41f0 	ldreq	r4, [pc, #1f0]	; 2e80 <lsfile+0x314>
    2c8c:	0a000b2a 	beq	2cb0 <lsfile+0x144>
    2c90:	e59f41e8 	ldr	r4, [pc, #1e8]	; 2e80 <lsfile+0x314>
    2c94:	e59f11d4 	ldr	r1, [pc, #1d4]	; 2e70 <lsfile+0x304>
    2c98:	e1a00004 	mov	r0, r4
    2c9c:	ebfffffe 	bl	0 <_start>
    2ca0:	e597301c 	ldr	r3, [r7, #28]
    2ca4:	e3a02001 	mov	r2, #1	; 0x1
    2ca8:	e5853000 	str	r3, [r5]
    2cac:	e5892000 	str	r2, [r9]
    2cb0:	e1a02004 	mov	r2, r4
    2cb4:	e59f11b8 	ldr	r1, [pc, #1b8]	; 2e74 <lsfile+0x308>
    2cb8:	e1a00006 	mov	r0, r6
    2cbc:	ebfffffe 	bl	0 <_start>
    2cc0:	e1a00006 	mov	r0, r6
    2cc4:	ebfffffe 	bl	0 <_start>
    2cc8:	e5973010 	ldr	r3, [r7, #16]
    2ccc:	e2033a0f 	and	r3, r3, #61440	; 0xf000
    2cd0:	e3530a02 	cmp	r3, #8192	; 0x2000
    2cd4:	13530a06 	cmpne	r3, #24576	; 0x6000
    2cd8:	e0866000 	add	r6, r6, r0
    2cdc:	1a000b8a 	bne	2e30 <lsfile+0x2c4>
    2ce0:	e2871020 	add	r1, r7, #32	; 0x20
    2ce4:	e8910030 	ldmia	r1, {r4, r5}
    2ce8:	e1a01424 	mov	r1, r4, lsr #8
    2cec:	e1812c05 	orr	r2, r1, r5, lsl #24
    2cf0:	e1a03425 	mov	r3, r5, lsr #8
    2cf4:	e59f1188 	ldr	r1, [pc, #188]	; 2e84 <lsfile+0x318>
    2cf8:	e20440ff 	and	r4, r4, #255	; 0xff
    2cfc:	e3a05000 	mov	r5, #0	; 0x0
    2d00:	e1a00006 	mov	r0, r6
    2d04:	e88d0030 	stmia	sp, {r4, r5}
    2d08:	ebfffffe 	bl	0 <_start>
    2d0c:	e1a00006 	mov	r0, r6
    2d10:	ebfffffe 	bl	0 <_start>
    2d14:	e1a03000 	mov	r3, r0
    2d18:	e5970040 	ldr	r0, [r7, #64]
    2d1c:	e0866003 	add	r6, r6, r3
    2d20:	ebfffffe 	bl	0 <_start>
    2d24:	e59f115c 	ldr	r1, [pc, #15c]	; 2e88 <lsfile+0x31c>
    2d28:	e1a02000 	mov	r2, r0
    2d2c:	e1a00006 	mov	r0, r6
    2d30:	ebfffffe 	bl	0 <_start>
    2d34:	e59f4150 	ldr	r4, [pc, #150]	; 2e8c <lsfile+0x320>
    2d38:	e1a00008 	mov	r0, r8
    2d3c:	e5941000 	ldr	r1, [r4]
    2d40:	ebfffffe 	bl	0 <_start>
    2d44:	e5941000 	ldr	r1, [r4]
    2d48:	e51b012c 	ldr	r0, [fp, -#300]
    2d4c:	ebfffffe 	bl	0 <_start>
    2d50:	e51b3130 	ldr	r3, [fp, -#304]
    2d54:	e3530000 	cmp	r3, #0	; 0x0
    2d58:	0a000b59 	beq	2d6c <lsfile+0x200>
    2d5c:	e5973010 	ldr	r3, [r7, #16]
    2d60:	e2033a0f 	and	r3, r3, #61440	; 0xf000
    2d64:	e3530a0a 	cmp	r3, #40960	; 0xa000
    2d68:	0a000b7d 	beq	2dfc <lsfile+0x290>
    2d6c:	e31a0020 	tst	sl, #32	; 0x20
    2d70:	0a000b78 	beq	2de8 <lsfile+0x27c>
    2d74:	e51b012c 	ldr	r0, [fp, -#300]
    2d78:	ebfffffe 	bl	0 <_start>
    2d7c:	e1a04000 	mov	r4, r0
    2d80:	e3540013 	cmp	r4, #19	; 0x13
    2d84:	c59f4104 	ldrgt	r4, [pc, #104]	; 2e90 <lsfile+0x324>
    2d88:	c3a03050 	movgt	r3, #80	; 0x50
    2d8c:	c5843000 	strgt	r3, [r4]
    2d90:	ca000b6e 	bgt	2dc0 <lsfile+0x254>
    2d94:	e59f60f0 	ldr	r6, [pc, #f0]	; 2e8c <lsfile+0x320>
    2d98:	e2644014 	rsb	r4, r4, #20	; 0x14
    2d9c:	e5961000 	ldr	r1, [r6]
    2da0:	e3a00020 	mov	r0, #32	; 0x20
    2da4:	ebfffffe 	bl	0 <_start>
    2da8:	e2544001 	subs	r4, r4, #1	; 0x1
    2dac:	1a000b65 	bne	2d9c <lsfile+0x230>
    2db0:	e59f40d8 	ldr	r4, [pc, #d8]	; 2e90 <lsfile+0x324>
    2db4:	e5943000 	ldr	r3, [r4]
    2db8:	e2833014 	add	r3, r3, #20	; 0x14
    2dbc:	e5843000 	str	r3, [r4]
    2dc0:	e5943000 	ldr	r3, [r4]
    2dc4:	e353004f 	cmp	r3, #79	; 0x4f
    2dc8:	d91baff0 	ldmledb	fp, {r4, r5, r6, r7, r8, r9, sl, fp, sp, pc}
    2dcc:	e59f30b8 	ldr	r3, [pc, #b8]	; 2e8c <lsfile+0x320>
    2dd0:	e3a0000a 	mov	r0, #10	; 0xa
    2dd4:	e5931000 	ldr	r1, [r3]
    2dd8:	ebfffffe 	bl	0 <_start>
    2ddc:	e3a03000 	mov	r3, #0	; 0x0
    2de0:	e5843000 	str	r3, [r4]
    2de4:	e91baff0 	ldmdb	fp, {r4, r5, r6, r7, r8, r9, sl, fp, sp, pc}
    2de8:	e59f309c 	ldr	r3, [pc, #9c]	; 2e8c <lsfile+0x320>
    2dec:	e3a0000a 	mov	r0, #10	; 0xa
    2df0:	e5931000 	ldr	r1, [r3]
    2df4:	ebfffffe 	bl	0 <_start>
    2df8:	e91baff0 	ldmdb	fp, {r4, r5, r6, r7, r8, r9, sl, fp, sp, pc}
    2dfc:	e51b012c 	ldr	r0, [fp, -#300]
    2e00:	e1a01008 	mov	r1, r8
    2e04:	e3a020ff 	mov	r2, #255	; 0xff
    2e08:	ebfffffe 	bl	0 <_start>
    2e0c:	e1a04000 	mov	r4, r0
    2e10:	e3540000 	cmp	r4, #0	; 0x0
    2e14:	ba000b59 	blt	2d6c <lsfile+0x200>
    2e18:	e3a03000 	mov	r3, #0	; 0x0
    2e1c:	e1a01008 	mov	r1, r8
    2e20:	e59f006c 	ldr	r0, [pc, #6c]	; 2e94 <lsfile+0x328>
    2e24:	e7c83004 	strb	r3, [r8, r4]
    2e28:	ebfffffe 	bl	0 <_start>
    2e2c:	ea000b59 	b	2d6c <lsfile+0x200>
    2e30:	e597202c 	ldr	r2, [r7, #44]
    2e34:	e59f105c 	ldr	r1, [pc, #5c]	; 2e98 <lsfile+0x32c>
    2e38:	e1a00006 	mov	r0, r6
    2e3c:	ebfffffe 	bl	0 <_start>
    2e40:	ea000b41 	b	2d0c <lsfile+0x1a0>
    2e44:	e59f5030 	ldr	r5, [pc, #30]	; 2e7c <lsfile+0x310>
    2e48:	e597201c 	ldr	r2, [r7, #28]
    2e4c:	ea000b22 	b	2c90 <lsfile+0x124>
    2e50:	e59f5010 	ldr	r5, [pc, #10]	; 2e68 <lsfile+0x2fc>
    2e54:	e5972018 	ldr	r2, [r7, #24]
    2e58:	ea000b09 	b	2c2c <lsfile+0xc0>
    2e5c:	000005e4 	andeq	r0, r0, r4, ror #11
    2e60:	000005ec 	andeq	r0, r0, ip, ror #11
    2e64:	0000014c 	andeq	r0, r0, ip, asr #2
    2e68:	00000148 	andeq	r0, r0, r8, asr #2
    2e6c:	0000013c 	andeq	r0, r0, ip, lsr r1
    2e70:	000005f4 	streqd	r0, [r0], -r4
    2e74:	000005f8 	streqd	r0, [r0], -r8
    2e78:	00000160 	andeq	r0, r0, r0, ror #2
    2e7c:	0000015c 	andeq	r0, r0, ip, asr r1
    2e80:	00000150 	andeq	r0, r0, r0, asr r1
    2e84:	00000600 	andeq	r0, r0, r0, lsl #12
    2e88:	0000060c 	andeq	r0, r0, ip, lsl #12
    2e8c:	00000000 	andeq	r0, r0, r0
    2e90:	00001f34 	andeq	r1, r0, r4, lsr pc
    2e94:	00000614 	andeq	r0, r0, r4, lsl r6
    2e98:	0000061c 	andeq	r0, r0, ip, lsl r6

00002e9c <dev_to_name>:
    2e9c:	e1a0c00d 	mov	ip, sp
    2ea0:	e92ddff0 	stmdb	sp!, {r4, r5, r6, r7, r8, r9, sl, fp, ip, lr, pc}
    2ea4:	e24cb004 	sub	fp, ip, #4	; 0x4
    2ea8:	e1a0a002 	mov	sl, r2
    2eac:	e24b2030 	sub	r2, fp, #48	; 0x30
    2eb0:	e24dd014 	sub	sp, sp, #20	; 0x14
    2eb4:	e8820003 	stmia	r2, {r0, r1}
    2eb8:	e59f1108 	ldr	r1, [pc, #108]	; 2fc8 <dev_to_name+0x12c>
    2ebc:	e1a0000a 	mov	r0, sl
    2ec0:	ebfffffe 	bl	0 <_start>
    2ec4:	e24b1030 	sub	r1, fp, #48	; 0x30
    2ec8:	e891000a 	ldmia	r1, {r1, r3}
    2ecc:	e1a02c03 	mov	r2, r3, lsl #24
    2ed0:	e1a03421 	mov	r3, r1, lsr #8
    2ed4:	e1821003 	orr	r1, r2, r3
    2ed8:	e50b1038 	str	r1, [fp, -#56]
    2edc:	e51b102c 	ldr	r1, [fp, -#44]
    2ee0:	e1824003 	orr	r4, r2, r3
    2ee4:	e1826003 	orr	r6, r2, r3
    2ee8:	e354004b 	cmp	r4, #75	; 0x4b
    2eec:	e1a02421 	mov	r2, r1, lsr #8
    2ef0:	e1a05421 	mov	r5, r1, lsr #8
    2ef4:	e1a07421 	mov	r7, r1, lsr #8
    2ef8:	e50b2034 	str	r2, [fp, -#52]
    2efc:	0a000be8 	beq	2fa8 <dev_to_name+0x10c>
    2f00:	e3560004 	cmp	r6, #4	; 0x4
    2f04:	0a000bda 	beq	2f70 <dev_to_name+0xd4>
    2f08:	e51b3038 	ldr	r3, [fp, -#56]
    2f0c:	e3530003 	cmp	r3, #3	; 0x3
    2f10:	191baff0 	ldmnedb	fp, {r4, r5, r6, r7, r8, r9, sl, fp, sp, pc}
    2f14:	e55b1030 	ldrb	r1, [fp, -#48]
    2f18:	e3a02000 	mov	r2, #0	; 0x0
    2f1c:	e1a00221 	mov	r0, r1, lsr #4
    2f20:	e1803e02 	orr	r3, r0, r2, lsl #28
    2f24:	e1a0e003 	mov	lr, r3
    2f28:	e24b3030 	sub	r3, fp, #48	; 0x30
    2f2c:	e8930060 	ldmia	r3, {r5, r6}
    2f30:	e1a04222 	mov	r4, r2, lsr #4
    2f34:	e3a02000 	mov	r2, #0	; 0x0
    2f38:	e3a0100f 	mov	r1, #15	; 0xf
    2f3c:	e0066002 	and	r6, r6, r2
    2f40:	e51b2034 	ldr	r2, [fp, -#52]
    2f44:	e0055001 	and	r5, r5, r1
    2f48:	e3520000 	cmp	r2, #0	; 0x0
    2f4c:	e1a03005 	mov	r3, r5
    2f50:	e1a0000a 	mov	r0, sl
    2f54:	e59f1070 	ldr	r1, [pc, #70]	; 2fcc <dev_to_name+0x130>
    2f58:	191baff0 	ldmnedb	fp, {r4, r5, r6, r7, r8, r9, sl, fp, sp, pc}
    2f5c:	e59fc06c 	ldr	ip, [pc, #6c]	; 2fd0 <dev_to_name+0x134>
    2f60:	e7dc200e 	ldrb	r2, [ip, lr]
    2f64:	e58d6000 	str	r6, [sp]
    2f68:	ebfffffe 	bl	0 <_start>
    2f6c:	e91baff0 	ldmdb	fp, {r4, r5, r6, r7, r8, r9, sl, fp, sp, pc}
    2f70:	e3570000 	cmp	r7, #0	; 0x0
    2f74:	e55b8030 	ldrb	r8, [fp, -#48]
    2f78:	e3a09000 	mov	r9, #0	; 0x0
    2f7c:	e1a0000a 	mov	r0, sl
    2f80:	e59f104c 	ldr	r1, [pc, #4c]	; 2fd4 <dev_to_name+0x138>
    2f84:	1a000bc0 	bne	2f08 <dev_to_name+0x6c>
    2f88:	e3e04000 	mvn	r4, #0	; 0x0
    2f8c:	e3e0303f 	mvn	r3, #63	; 0x3f
    2f90:	e0988003 	adds	r8, r8, r3
    2f94:	e0a99004 	adc	r9, r9, r4
    2f98:	e1a03009 	mov	r3, r9
    2f9c:	e1a02008 	mov	r2, r8
    2fa0:	e91b6ff0 	ldmdb	fp, {r4, r5, r6, r7, r8, r9, sl, fp, sp, lr}
    2fa4:	eafffffe 	b	0 <_start>
    2fa8:	e3550000 	cmp	r5, #0	; 0x0
    2fac:	e55b2030 	ldrb	r2, [fp, -#48]
    2fb0:	e3a03000 	mov	r3, #0	; 0x0
    2fb4:	e1a0000a 	mov	r0, sl
    2fb8:	e59f1018 	ldr	r1, [pc, #18]	; 2fd8 <dev_to_name+0x13c>
    2fbc:	1a000bbe 	bne	2f00 <dev_to_name+0x64>
    2fc0:	e91b6ff0 	ldmdb	fp, {r4, r5, r6, r7, r8, r9, sl, fp, sp, lr}
    2fc4:	eafffffe 	b	0 <_start>
    2fc8:	00000624 	andeq	r0, r0, r4, lsr #12
    2fcc:	00000628 	andeq	r0, r0, r8, lsr #12
    2fd0:	00000000 	andeq	r0, r0, r0
    2fd4:	00000630 	andeq	r0, r0, r0, lsr r6
    2fd8:	00000634 	andeq	r0, r0, r4, lsr r6

00002fdc <do_ps>:
    2fdc:	e1a0c00d 	mov	ip, sp
    2fe0:	e92ddff0 	stmdb	sp!, {r4, r5, r6, r7, r8, r9, sl, fp, ip, lr, pc}
    2fe4:	e59f05d8 	ldr	r0, [pc, #5d8]	; 35c4 <do_ps+0x5e8>
    2fe8:	e24cb004 	sub	fp, ip, #4	; 0x4
    2fec:	e24dd024 	sub	sp, sp, #36	; 0x24
    2ff0:	ebfffffe 	bl	0 <_start>
    2ff4:	e59f05cc 	ldr	r0, [pc, #5cc]	; 35c8 <do_ps+0x5ec>
    2ff8:	e3a01000 	mov	r1, #0	; 0x0
    2ffc:	ebfffffe 	bl	0 <_start>
    3000:	e1a05000 	mov	r5, r0
    3004:	e3750001 	cmn	r5, #1	; 0x1
    3008:	0a000d6c 	beq	35b8 <do_ps+0x5dc>
    300c:	e59f75b8 	ldr	r7, [pc, #5b8]	; 35cc <do_ps+0x5f0>
    3010:	e3a020ff 	mov	r2, #255	; 0xff
    3014:	e1a01007 	mov	r1, r7
    3018:	ebfffffe 	bl	0 <_start>
    301c:	e1a06000 	mov	r6, r0
    3020:	e1a00005 	mov	r0, r5
    3024:	ebfffffe 	bl	0 <_start>
    3028:	e3560000 	cmp	r6, #0	; 0x0
    302c:	da000d69 	ble	35ac <do_ps+0x5d0>
    3030:	e3a05000 	mov	r5, #0	; 0x0
    3034:	e1a04007 	mov	r4, r7
    3038:	e7c75006 	strb	r5, [r7, r6]
    303c:	e1a00004 	mov	r0, r4
    3040:	e5c750ff 	strb	r5, [r7, #255]
    3044:	ebfffffe 	bl	0 <_start>
    3048:	e50b0030 	str	r0, [fp, -#48]
    304c:	e1a00005 	mov	r0, r5
    3050:	ebfffffe 	bl	0 <_start>
    3054:	e59f0574 	ldr	r0, [pc, #574]	; 35d0 <do_ps+0x5f4>
    3058:	ebfffffe 	bl	0 <_start>
    305c:	e1500005 	cmp	r0, r5
    3060:	e50b002c 	str	r0, [fp, -#44]
    3064:	091baff0 	ldmeqdb	fp, {r4, r5, r6, r7, r8, r9, sl, fp, sp, pc}
    3068:	e51b002c 	ldr	r0, [fp, -#44]
    306c:	ebfffffe 	bl	0 <_start>
    3070:	e1a04000 	mov	r4, r0
    3074:	e3540000 	cmp	r4, #0	; 0x0
    3078:	13a05000 	movne	r5, #0	; 0x0
    307c:	1284800b 	addne	r8, r4, #11	; 0xb
    3080:	1a000c22 	bne	3090 <do_ps+0xb4>
    3084:	e51b002c 	ldr	r0, [fp, -#44]
    3088:	e91b6ff0 	ldmdb	fp, {r4, r5, r6, r7, r8, r9, sl, fp, sp, lr}
    308c:	eafffffe 	b	0 <_start>
    3090:	e1a00008 	mov	r0, r8
    3094:	ebfffffe 	bl	0 <_start>
    3098:	e1550000 	cmp	r5, r0
    309c:	e0843005 	add	r3, r4, r5
    30a0:	e2855001 	add	r5, r5, #1	; 0x1
    30a4:	2a000c2d 	bcs	30bc <do_ps+0xe0>
    30a8:	e5d3000b 	ldrb	r0, [r3, #11]
    30ac:	ebfffffe 	bl	0 <_start>
    30b0:	e3500000 	cmp	r0, #0	; 0x0
    30b4:	1a000c22 	bne	3090 <do_ps+0xb4>
    30b8:	ea000c18 	b	3068 <do_ps+0x8c>
    30bc:	e59f7508 	ldr	r7, [pc, #508]	; 35cc <do_ps+0x5f0>
    30c0:	e59f150c 	ldr	r1, [pc, #50c]	; 35d4 <do_ps+0x5f8>
    30c4:	e1a02008 	mov	r2, r8
    30c8:	e1a00007 	mov	r0, r7
    30cc:	ebfffffe 	bl	0 <_start>
    30d0:	e1a00007 	mov	r0, r7
    30d4:	e3a01000 	mov	r1, #0	; 0x0
    30d8:	ebfffffe 	bl	0 <_start>
    30dc:	e1a05000 	mov	r5, r0
    30e0:	e3750001 	cmn	r5, #1	; 0x1
    30e4:	0a000c18 	beq	3068 <do_ps+0x8c>
    30e8:	e1a01007 	mov	r1, r7
    30ec:	e3a020ff 	mov	r2, #255	; 0xff
    30f0:	ebfffffe 	bl	0 <_start>
    30f4:	e1a06000 	mov	r6, r0
    30f8:	e3560000 	cmp	r6, #0	; 0x0
    30fc:	da000d64 	ble	3598 <do_ps+0x5bc>
    3100:	e3a01000 	mov	r1, #0	; 0x0
    3104:	e7c71006 	strb	r1, [r7, r6]
    3108:	e1a00007 	mov	r0, r7
    310c:	e5c710ff 	strb	r1, [r7, #255]
    3110:	e3a01029 	mov	r1, #41	; 0x29
    3114:	ebfffffe 	bl	0 <_start>
    3118:	e1a04000 	mov	r4, r0
    311c:	e5d43002 	ldrb	r3, [r4, #2]
    3120:	e3a02000 	mov	r2, #0	; 0x0
    3124:	e59f14ac 	ldr	r1, [pc, #4ac]	; 35d8 <do_ps+0x5fc>
    3128:	e4c42004 	strb	r2, [r4], #4
    312c:	e5c13000 	strb	r3, [r1]
    3130:	e1a00004 	mov	r0, r4
    3134:	ebfffffe 	bl	0 <_start>
    3138:	e59f349c 	ldr	r3, [pc, #49c]	; 35dc <do_ps+0x600>
    313c:	e3a01020 	mov	r1, #32	; 0x20
    3140:	e5830000 	str	r0, [r3]
    3144:	e1a00004 	mov	r0, r4
    3148:	ebfffffe 	bl	0 <_start>
    314c:	e2804001 	add	r4, r0, #1	; 0x1
    3150:	e1a00004 	mov	r0, r4
    3154:	ebfffffe 	bl	0 <_start>
    3158:	e59f3480 	ldr	r3, [pc, #480]	; 35e0 <do_ps+0x604>
    315c:	e3a01020 	mov	r1, #32	; 0x20
    3160:	e5830000 	str	r0, [r3]
    3164:	e1a00004 	mov	r0, r4
    3168:	ebfffffe 	bl	0 <_start>
    316c:	e2804001 	add	r4, r0, #1	; 0x1
    3170:	e1a00004 	mov	r0, r4
    3174:	ebfffffe 	bl	0 <_start>
    3178:	e59f3464 	ldr	r3, [pc, #464]	; 35e4 <do_ps+0x608>
    317c:	e3a01020 	mov	r1, #32	; 0x20
    3180:	e5830000 	str	r0, [r3]
    3184:	e1a00004 	mov	r0, r4
    3188:	ebfffffe 	bl	0 <_start>
    318c:	e2804001 	add	r4, r0, #1	; 0x1
    3190:	e1a00004 	mov	r0, r4
    3194:	ebfffffe 	bl	0 <_start>
    3198:	e59f2448 	ldr	r2, [pc, #448]	; 35e8 <do_ps+0x60c>
    319c:	e1a01fc0 	mov	r1, r0, asr #31
    31a0:	e8820003 	stmia	r2, {r0, r1}
    31a4:	e1a00004 	mov	r0, r4
    31a8:	e3a01020 	mov	r1, #32	; 0x20
    31ac:	ebfffffe 	bl	0 <_start>
    31b0:	e2804001 	add	r4, r0, #1	; 0x1
    31b4:	e1a00004 	mov	r0, r4
    31b8:	e3a01020 	mov	r1, #32	; 0x20
    31bc:	ebfffffe 	bl	0 <_start>
    31c0:	e2804001 	add	r4, r0, #1	; 0x1
    31c4:	e1a00004 	mov	r0, r4
    31c8:	e3a01020 	mov	r1, #32	; 0x20
    31cc:	ebfffffe 	bl	0 <_start>
    31d0:	e2804001 	add	r4, r0, #1	; 0x1
    31d4:	e1a00004 	mov	r0, r4
    31d8:	e3a01020 	mov	r1, #32	; 0x20
    31dc:	ebfffffe 	bl	0 <_start>
    31e0:	e2804001 	add	r4, r0, #1	; 0x1
    31e4:	e1a00004 	mov	r0, r4
    31e8:	e3a01020 	mov	r1, #32	; 0x20
    31ec:	ebfffffe 	bl	0 <_start>
    31f0:	e2804001 	add	r4, r0, #1	; 0x1
    31f4:	e1a00004 	mov	r0, r4
    31f8:	e3a01020 	mov	r1, #32	; 0x20
    31fc:	ebfffffe 	bl	0 <_start>
    3200:	e2804001 	add	r4, r0, #1	; 0x1
    3204:	e3a01020 	mov	r1, #32	; 0x20
    3208:	e1a00004 	mov	r0, r4
    320c:	ebfffffe 	bl	0 <_start>
    3210:	e2804001 	add	r4, r0, #1	; 0x1
    3214:	e1a00004 	mov	r0, r4
    3218:	ebfffffe 	bl	0 <_start>
    321c:	e3a01020 	mov	r1, #32	; 0x20
    3220:	e50b0034 	str	r0, [fp, -#52]
    3224:	e1a00004 	mov	r0, r4
    3228:	ebfffffe 	bl	0 <_start>
    322c:	e2804001 	add	r4, r0, #1	; 0x1
    3230:	e1a00004 	mov	r0, r4
    3234:	ebfffffe 	bl	0 <_start>
    3238:	e3a01020 	mov	r1, #32	; 0x20
    323c:	e50b0038 	str	r0, [fp, -#56]
    3240:	e1a00004 	mov	r0, r4
    3244:	ebfffffe 	bl	0 <_start>
    3248:	e2804001 	add	r4, r0, #1	; 0x1
    324c:	e1a00004 	mov	r0, r4
    3250:	e3a01020 	mov	r1, #32	; 0x20
    3254:	ebfffffe 	bl	0 <_start>
    3258:	e2804001 	add	r4, r0, #1	; 0x1
    325c:	e1a00004 	mov	r0, r4
    3260:	e3a01020 	mov	r1, #32	; 0x20
    3264:	ebfffffe 	bl	0 <_start>
    3268:	e2804001 	add	r4, r0, #1	; 0x1
    326c:	e1a00004 	mov	r0, r4
    3270:	e3a01020 	mov	r1, #32	; 0x20
    3274:	ebfffffe 	bl	0 <_start>
    3278:	e2804001 	add	r4, r0, #1	; 0x1
    327c:	e1a00004 	mov	r0, r4
    3280:	e3a01020 	mov	r1, #32	; 0x20
    3284:	ebfffffe 	bl	0 <_start>
    3288:	e2804001 	add	r4, r0, #1	; 0x1
    328c:	e1a00004 	mov	r0, r4
    3290:	e3a01020 	mov	r1, #32	; 0x20
    3294:	ebfffffe 	bl	0 <_start>
    3298:	e2804001 	add	r4, r0, #1	; 0x1
    329c:	e3a01020 	mov	r1, #32	; 0x20
    32a0:	e1a00004 	mov	r0, r4
    32a4:	ebfffffe 	bl	0 <_start>
    32a8:	e2804001 	add	r4, r0, #1	; 0x1
    32ac:	e1a00004 	mov	r0, r4
    32b0:	ebfffffe 	bl	0 <_start>
    32b4:	e3a01028 	mov	r1, #40	; 0x28
    32b8:	e1a06000 	mov	r6, r0
    32bc:	e1a00007 	mov	r0, r7
    32c0:	ebfffffe 	bl	0 <_start>
    32c4:	e1a04000 	mov	r4, r0
    32c8:	e2844001 	add	r4, r4, #1	; 0x1
    32cc:	e1a01004 	mov	r1, r4
    32d0:	e59f0314 	ldr	r0, [pc, #314]	; 35ec <do_ps+0x610>
    32d4:	ebfffffe 	bl	0 <_start>
    32d8:	e1a00007 	mov	r0, r7
    32dc:	ebfffffe 	bl	0 <_start>
    32e0:	e59f32f0 	ldr	r3, [pc, #2f0]	; 35d8 <do_ps+0x5fc>
    32e4:	e59f2304 	ldr	r2, [pc, #304]	; 35f0 <do_ps+0x614>
    32e8:	e5d3c000 	ldrb	ip, [r3]
    32ec:	e59f3300 	ldr	r3, [pc, #300]	; 35f4 <do_ps+0x618>
    32f0:	e1a01000 	mov	r1, r0
    32f4:	e5831000 	str	r1, [r3]
    32f8:	e1a00005 	mov	r0, r5
    32fc:	e582c000 	str	ip, [r2]
    3300:	ebfffffe 	bl	0 <_start>
    3304:	e59f22dc 	ldr	r2, [pc, #2dc]	; 35e8 <do_ps+0x60c>
    3308:	e8920003 	ldmia	r2, {r0, r1}
    330c:	e59f22e4 	ldr	r2, [pc, #2e4]	; 35f8 <do_ps+0x61c>
    3310:	ebfffffe 	bl	0 <_start>
    3314:	e59f12e0 	ldr	r1, [pc, #2e0]	; 35fc <do_ps+0x620>
    3318:	e1a02008 	mov	r2, r8
    331c:	e1a00007 	mov	r0, r7
    3320:	ebfffffe 	bl	0 <_start>
    3324:	e1a00007 	mov	r0, r7
    3328:	e59f12d0 	ldr	r1, [pc, #2d0]	; 3600 <do_ps+0x624>
    332c:	ebfffffe 	bl	0 <_start>
    3330:	e1a05000 	mov	r5, r0
    3334:	e3a09000 	mov	r9, #0	; 0x0
    3338:	e3550000 	cmp	r5, #0	; 0x0
    333c:	e1a0a009 	mov	sl, r9
    3340:	0a000cfc 	beq	33f8 <do_ps+0x41c>
    3344:	e1a04007 	mov	r4, r7
    3348:	e1a02005 	mov	r2, r5
    334c:	e3a010fa 	mov	r1, #250	; 0xfa
    3350:	e1a00004 	mov	r0, r4
    3354:	ebfffffe 	bl	0 <_start>
    3358:	e1a03000 	mov	r3, r0
    335c:	e3530000 	cmp	r3, #0	; 0x0
    3360:	e59f129c 	ldr	r1, [pc, #29c]	; 3604 <do_ps+0x628>
    3364:	e3a02004 	mov	r2, #4	; 0x4
    3368:	e1a00004 	mov	r0, r4
    336c:	0a000cfa 	beq	33f0 <do_ps+0x414>
    3370:	ebfffffe 	bl	0 <_start>
    3374:	e1a03000 	mov	r3, r0
    3378:	e3530000 	cmp	r3, #0	; 0x0
    337c:	e2840005 	add	r0, r4, #5	; 0x5
    3380:	e59f1280 	ldr	r1, [pc, #280]	; 3608 <do_ps+0x62c>
    3384:	e3a02007 	mov	r2, #7	; 0x7
    3388:	0a000cf6 	beq	33e0 <do_ps+0x404>
    338c:	e1a00004 	mov	r0, r4
    3390:	ebfffffe 	bl	0 <_start>
    3394:	e1a03000 	mov	r3, r0
    3398:	e3530000 	cmp	r3, #0	; 0x0
    339c:	e59f1268 	ldr	r1, [pc, #268]	; 360c <do_ps+0x630>
    33a0:	e2840008 	add	r0, r4, #8	; 0x8
    33a4:	e3a02007 	mov	r2, #7	; 0x7
    33a8:	0a000cf2 	beq	33d0 <do_ps+0x3f4>
    33ac:	e1a00004 	mov	r0, r4
    33b0:	ebfffffe 	bl	0 <_start>
    33b4:	e1a03000 	mov	r3, r0
    33b8:	e3530000 	cmp	r3, #0	; 0x0
    33bc:	e2840008 	add	r0, r4, #8	; 0x8
    33c0:	1a000cd0 	bne	3348 <do_ps+0x36c>
    33c4:	ebfffffe 	bl	0 <_start>
    33c8:	e1a0a000 	mov	sl, r0
    33cc:	ea000cd0 	b	3348 <do_ps+0x36c>
    33d0:	ebfffffe 	bl	0 <_start>
    33d4:	e1a09000 	mov	r9, r0
    33d8:	e1a09529 	mov	r9, r9, lsr #10
    33dc:	ea000cd0 	b	3348 <do_ps+0x36c>
    33e0:	ebfffffe 	bl	0 <_start>
    33e4:	e1a0a000 	mov	sl, r0
    33e8:	e1a0a52a 	mov	sl, sl, lsr #10
    33ec:	ea000cd0 	b	3348 <do_ps+0x36c>
    33f0:	e1a00005 	mov	r0, r5
    33f4:	ebfffffe 	bl	0 <_start>
    33f8:	e51b3030 	ldr	r3, [fp, -#48]
    33fc:	e0830103 	add	r0, r3, r3, lsl #2
    3400:	e0800100 	add	r0, r0, r0, lsl #2
    3404:	e59f3204 	ldr	r3, [pc, #204]	; 3610 <do_ps+0x634>
    3408:	e0660100 	rsb	r0, r6, r0, lsl #2
    340c:	e0c21093 	smull	r1, r2, r3, r0
    3410:	e1a00fc0 	mov	r0, r0, asr #31
    3414:	e06002c2 	rsb	r0, r0, r2, asr #5
    3418:	ebfffffe 	bl	0 <_start>
    341c:	e51b2034 	ldr	r2, [fp, -#52]
    3420:	e51b3038 	ldr	r3, [fp, -#56]
    3424:	e1a05000 	mov	r5, r0
    3428:	e0820003 	add	r0, r2, r3
    342c:	ebfffffe 	bl	0 <_start>
    3430:	e3a01000 	mov	r1, #0	; 0x0
    3434:	e1a04000 	mov	r4, r0
    3438:	e1a00005 	mov	r0, r5
    343c:	ebfffffe 	bl	0 <_start>
    3440:	e3500000 	cmp	r0, #0	; 0x0
    3444:	0a000d1d 	beq	347c <do_ps+0x4a0>
    3448:	e1a00004 	mov	r0, r4
    344c:	e3a01441 	mov	r1, #1090519040	; 0x41000000
    3450:	e3a04442 	mov	r4, #1107296256	; 0x42000000
    3454:	e2811602 	add	r1, r1, #2097152	; 0x200000
    3458:	e2844732 	add	r4, r4, #13107200	; 0xc80000
    345c:	ebfffffe 	bl	0 <_start>
    3460:	e1a01004 	mov	r1, r4
    3464:	ebfffffe 	bl	0 <_start>
    3468:	e1a01004 	mov	r1, r4
    346c:	ebfffffe 	bl	0 <_start>
    3470:	e1a01005 	mov	r1, r5
    3474:	ebfffffe 	bl	0 <_start>
    3478:	ebfffffe 	bl	0 <_start>
    347c:	e1a07000 	mov	r7, r0
    3480:	e59f4144 	ldr	r4, [pc, #144]	; 35cc <do_ps+0x5f0>
    3484:	e3a03ff9 	mov	r3, #996	; 0x3e4
    3488:	e2833003 	add	r3, r3, #3	; 0x3
    348c:	e59f1180 	ldr	r1, [pc, #180]	; 3614 <do_ps+0x638>
    3490:	e1a02008 	mov	r2, r8
    3494:	e1a00004 	mov	r0, r4
    3498:	e1570003 	cmp	r7, r3
    349c:	a1a07003 	movge	r7, r3
    34a0:	ebfffffe 	bl	0 <_start>
    34a4:	e1a00004 	mov	r0, r4
    34a8:	e3a01000 	mov	r1, #0	; 0x0
    34ac:	ebfffffe 	bl	0 <_start>
    34b0:	e1a05000 	mov	r5, r0
    34b4:	e3750001 	cmn	r5, #1	; 0x1
    34b8:	0a000d61 	beq	358c <do_ps+0x5b0>
    34bc:	e1a01004 	mov	r1, r4
    34c0:	e3a020ff 	mov	r2, #255	; 0xff
    34c4:	ebfffffe 	bl	0 <_start>
    34c8:	e1a06000 	mov	r6, r0
    34cc:	e3560000 	cmp	r6, #0	; 0x0
    34d0:	ba000d5f 	blt	3584 <do_ps+0x5a8>
    34d4:	e1a00005 	mov	r0, r5
    34d8:	ebfffffe 	bl	0 <_start>
    34dc:	e3a01000 	mov	r1, #0	; 0x0
    34e0:	e7c41006 	strb	r1, [r4, r6]
    34e4:	e1a00004 	mov	r0, r4
    34e8:	e1a05006 	mov	r5, r6
    34ec:	e2455001 	sub	r5, r5, #1	; 0x1
    34f0:	e7d03005 	ldrb	r3, [r0, r5]
    34f4:	e3530000 	cmp	r3, #0	; 0x0
    34f8:	0a000d39 	beq	34ec <do_ps+0x510>
    34fc:	e2455001 	sub	r5, r5, #1	; 0x1
    3500:	e3550000 	cmp	r5, #0	; 0x0
    3504:	da000d48 	ble	3528 <do_ps+0x54c>
    3508:	e59f20bc 	ldr	r2, [pc, #bc]	; 35cc <do_ps+0x5f0>
    350c:	e3a01020 	mov	r1, #32	; 0x20
    3510:	e7d23005 	ldrb	r3, [r2, r5]
    3514:	e3530000 	cmp	r3, #0	; 0x0
    3518:	07c21005 	streqb	r1, [r2, r5]
    351c:	e2455001 	sub	r5, r5, #1	; 0x1
    3520:	e3550000 	cmp	r5, #0	; 0x0
    3524:	ca000d42 	bgt	3510 <do_ps+0x534>
    3528:	e59f30e8 	ldr	r3, [pc, #e8]	; 3618 <do_ps+0x63c>
    352c:	e0c21793 	smull	r1, r2, r3, r7
    3530:	e59fc0b8 	ldr	ip, [pc, #b8]	; 35f0 <do_ps+0x614>
    3534:	e1a04fc7 	mov	r4, r7, asr #31
    3538:	e0644142 	rsb	r4, r4, r2, asr #2
    353c:	e59f00b0 	ldr	r0, [pc, #b0]	; 35f4 <do_ps+0x618>
    3540:	e59f2084 	ldr	r2, [pc, #84]	; 35cc <do_ps+0x5f0>
    3544:	e59c3000 	ldr	r3, [ip]
    3548:	e59fe09c 	ldr	lr, [pc, #9c]	; 35ec <do_ps+0x610>
    354c:	e084c104 	add	ip, r4, r4, lsl #2
    3550:	e3560000 	cmp	r6, #0	; 0x0
    3554:	e5901000 	ldr	r1, [r0]
    3558:	11a0e002 	movne	lr, r2
    355c:	e047c08c 	sub	ip, r7, ip, lsl #1
    3560:	e59f00b4 	ldr	r0, [pc, #b4]	; 361c <do_ps+0x640>
    3564:	e59f208c 	ldr	r2, [pc, #8c]	; 35f8 <do_ps+0x61c>
    3568:	e58da000 	str	sl, [sp]
    356c:	e58d9004 	str	r9, [sp, #4]
    3570:	e58dc00c 	str	ip, [sp, #12]
    3574:	e58de010 	str	lr, [sp, #16]
    3578:	e58d4008 	str	r4, [sp, #8]
    357c:	ebfffffe 	bl	0 <_start>
    3580:	ea000c18 	b	3068 <do_ps+0x8c>
    3584:	e59f0094 	ldr	r0, [pc, #94]	; 3620 <do_ps+0x644>
    3588:	ea000d65 	b	359c <do_ps+0x5c0>
    358c:	e59f0090 	ldr	r0, [pc, #90]	; 3624 <do_ps+0x648>
    3590:	ebfffffe 	bl	0 <_start>
    3594:	ea000c18 	b	3068 <do_ps+0x8c>
    3598:	e59f0088 	ldr	r0, [pc, #88]	; 3628 <do_ps+0x64c>
    359c:	ebfffffe 	bl	0 <_start>
    35a0:	e1a00005 	mov	r0, r5
    35a4:	ebfffffe 	bl	0 <_start>
    35a8:	ea000c18 	b	3068 <do_ps+0x8c>
    35ac:	e59f0078 	ldr	r0, [pc, #78]	; 362c <do_ps+0x650>
    35b0:	e91b6ff0 	ldmdb	fp, {r4, r5, r6, r7, r8, r9, sl, fp, sp, lr}
    35b4:	eafffffe 	b	0 <_start>
    35b8:	e59f0070 	ldr	r0, [pc, #70]	; 3630 <do_ps+0x654>
    35bc:	e91b6ff0 	ldmdb	fp, {r4, r5, r6, r7, r8, r9, sl, fp, sp, lr}
    35c0:	eafffffe 	b	0 <_start>
    35c4:	00000638 	andeq	r0, r0, r8, lsr r6
    35c8:	00000664 	andeq	r0, r0, r4, ror #12
    35cc:	00000000 	andeq	r0, r0, r0
    35d0:	00000674 	andeq	r0, r0, r4, ror r6
    35d4:	0000067c 	andeq	r0, r0, ip, ror r6
	...
    35fc:	0000068c 	andeq	r0, r0, ip, lsl #13
    3600:	0000069c 	muleq	r0, ip, r6
    3604:	000006a0 	andeq	r0, r0, r0, lsr #13
    3608:	000006a8 	andeq	r0, r0, r8, lsr #13
    360c:	000006b0 	streqh	r0, [r0], -r0
    3610:	51eb851f 	mvnpl	r8, pc, lsl r5
    3614:	000006b8 	streqh	r0, [r0], -r8
    3618:	66666667 	strvsbt	r6, [r6], -r7, ror #12
    361c:	000006cc 	andeq	r0, r0, ip, asr #13
    3620:	000006f4 	streqd	r0, [r0], -r4
    3624:	0000070c 	andeq	r0, r0, ip, lsl #14
    3628:	00000724 	andeq	r0, r0, r4, lsr #14
    362c:	0000073c 	andeq	r0, r0, ip, lsr r7
    3630:	00000754 	andeq	r0, r0, r4, asr r7

00003634 <do_hexdump>:
    3634:	e1a0c00d 	mov	ip, sp
    3638:	e92ddff0 	stmdb	sp!, {r4, r5, r6, r7, r8, r9, sl, fp, ip, lr, pc}
    363c:	e1a05000 	mov	r5, r0
    3640:	e24cb004 	sub	fp, ip, #4	; 0x4
    3644:	e24dd09c 	sub	sp, sp, #156	; 0x9c
    3648:	e3550002 	cmp	r5, #2	; 0x2
    364c:	e1a04001 	mov	r4, r1
    3650:	e3a09000 	mov	r9, #0	; 0x0
    3654:	da000d99 	ble	366c <do_hexdump+0x38>
    3658:	e5940004 	ldr	r0, [r4, #4]
    365c:	e59f1280 	ldr	r1, [pc, #280]	; 38e4 <do_hexdump+0x2b0>
    3660:	ebfffffe 	bl	0 <_start>
    3664:	e1500009 	cmp	r0, r9
    3668:	0a000e2f 	beq	38c4 <do_hexdump+0x290>
    366c:	e3550001 	cmp	r5, #1	; 0x1
    3670:	ca000da0 	bgt	3688 <do_hexdump+0x54>
    3674:	e59f326c 	ldr	r3, [pc, #26c]	; 38e8 <do_hexdump+0x2b4>
    3678:	e59f126c 	ldr	r1, [pc, #26c]	; 38ec <do_hexdump+0x2b8>
    367c:	e5930000 	ldr	r0, [r3]
    3680:	ebfffffe 	bl	0 <_start>
    3684:	e91baff0 	ldmdb	fp, {r4, r5, r6, r7, r8, r9, sl, fp, sp, pc}
    3688:	e5944004 	ldr	r4, [r4, #4]
    368c:	e59f125c 	ldr	r1, [pc, #25c]	; 38f0 <do_hexdump+0x2bc>
    3690:	e1a00004 	mov	r0, r4
    3694:	ebfffffe 	bl	0 <_start>
    3698:	e3500000 	cmp	r0, #0	; 0x0
    369c:	e50b00c4 	str	r0, [fp, -#196]
    36a0:	0a000e25 	beq	389c <do_hexdump+0x268>
    36a4:	e3590000 	cmp	r9, #0	; 0x0
    36a8:	0a000dac 	beq	36b8 <do_hexdump+0x84>
    36ac:	e1a01009 	mov	r1, r9
    36b0:	e3a02000 	mov	r2, #0	; 0x0
    36b4:	ebfffffe 	bl	0 <_start>
    36b8:	e3a05000 	mov	r5, #0	; 0x0
    36bc:	e54b502c 	strb	r5, [fp, -#44]
    36c0:	e51b00c4 	ldr	r0, [fp, -#196]
    36c4:	ebfffffe 	bl	0 <_start>
    36c8:	e3500000 	cmp	r0, #0	; 0x0
    36cc:	0a000dba 	beq	36f0 <do_hexdump+0xbc>
    36d0:	e59f321c 	ldr	r3, [pc, #21c]	; 38f4 <do_hexdump+0x2c0>
    36d4:	e5932000 	ldr	r2, [r3]
    36d8:	e51b30c4 	ldr	r3, [fp, -#196]
    36dc:	e1530002 	cmp	r3, r2
    36e0:	091baff0 	ldmeqdb	fp, {r4, r5, r6, r7, r8, r9, sl, fp, sp, pc}
    36e4:	e1a00003 	mov	r0, r3
    36e8:	ebfffffe 	bl	0 <_start>
    36ec:	e91baff0 	ldmdb	fp, {r4, r5, r6, r7, r8, r9, sl, fp, sp, pc}
    36f0:	e209400f 	and	r4, r9, #15	; 0xf
    36f4:	e1550004 	cmp	r5, r4
    36f8:	e24b803c 	sub	r8, fp, #60	; 0x3c
    36fc:	e1a06004 	mov	r6, r4
    3700:	2a000dce 	bcs	3740 <do_hexdump+0x10c>
    3704:	e59fa1ec 	ldr	sl, [pc, #1ec]	; 38f8 <do_hexdump+0x2c4>
    3708:	e59f71ec 	ldr	r7, [pc, #1ec]	; 38fc <do_hexdump+0x2c8>
    370c:	e3550000 	cmp	r5, #0	; 0x0
    3710:	e3c9100f 	bic	r1, r9, #15	; 0xf
    3714:	e59f01e4 	ldr	r0, [pc, #1e4]	; 3900 <do_hexdump+0x2cc>
    3718:	0a000e23 	beq	3894 <do_hexdump+0x260>
    371c:	e3550008 	cmp	r5, #8	; 0x8
    3720:	11a0000a 	movne	r0, sl
    3724:	01a00007 	moveq	r0, r7
    3728:	ebfffffe 	bl	0 <_start>
    372c:	e3a03020 	mov	r3, #32	; 0x20
    3730:	e7c83005 	strb	r3, [r8, r5]
    3734:	e2855001 	add	r5, r5, #1	; 0x1
    3738:	e1550006 	cmp	r5, r6
    373c:	3a000dc1 	bcc	370c <do_hexdump+0xd8>
    3740:	e24ba0c0 	sub	sl, fp, #192	; 0xc0
    3744:	e2662080 	rsb	r2, r6, #128	; 0x80
    3748:	e1a0000a 	mov	r0, sl
    374c:	e3a01001 	mov	r1, #1	; 0x1
    3750:	e51b30c4 	ldr	r3, [fp, -#196]
    3754:	ebfffffe 	bl	0 <_start>
    3758:	e1a07000 	mov	r7, r0
    375c:	e3570000 	cmp	r7, #0	; 0x0
    3760:	e3a06000 	mov	r6, #0	; 0x0
    3764:	da000db2 	ble	36d0 <do_hexdump+0x9c>
    3768:	e1560007 	cmp	r6, r7
    376c:	aa000df4 	bge	37d8 <do_hexdump+0x1a4>
    3770:	e2545000 	subs	r5, r4, #0	; 0x0
    3774:	0a000e1f 	beq	3884 <do_hexdump+0x250>
    3778:	e7da2006 	ldrb	r2, [sl, r6]
    377c:	e28230e0 	add	r3, r2, #224	; 0xe0
    3780:	e20330ff 	and	r3, r3, #255	; 0xff
    3784:	e353005e 	cmp	r3, #94	; 0x5e
    3788:	83a0302e 	movhi	r3, #46	; 0x2e
    378c:	87c83005 	strhib	r3, [r8, r5]
    3790:	97c82005 	strlsb	r2, [r8, r5]
    3794:	e354000f 	cmp	r4, #15	; 0xf
    3798:	0a000e1d 	beq	387c <do_hexdump+0x248>
    379c:	e59f2160 	ldr	r2, [pc, #160]	; 3904 <do_hexdump+0x2d0>
    37a0:	e59f3160 	ldr	r3, [pc, #160]	; 3908 <do_hexdump+0x2d4>
    37a4:	e3540008 	cmp	r4, #8	; 0x8
    37a8:	11a00002 	movne	r0, r2
    37ac:	01a00003 	moveq	r0, r3
    37b0:	e7da1006 	ldrb	r1, [sl, r6]
    37b4:	ebfffffe 	bl	0 <_start>
    37b8:	e354000f 	cmp	r4, #15	; 0xf
    37bc:	0a000e19 	beq	386c <do_hexdump+0x238>
    37c0:	e2866001 	add	r6, r6, #1	; 0x1
    37c4:	e1560007 	cmp	r6, r7
    37c8:	e2899001 	add	r9, r9, #1	; 0x1
    37cc:	b209400f 	andlt	r4, r9, #15	; 0xf
    37d0:	ba000dda 	blt	3770 <do_hexdump+0x13c>
    37d4:	e209400f 	and	r4, r9, #15	; 0xf
    37d8:	e2545000 	subs	r5, r4, #0	; 0x0
    37dc:	0a000e06 	beq	3820 <do_hexdump+0x1ec>
    37e0:	e355000f 	cmp	r5, #15	; 0xf
    37e4:	ca000e03 	bgt	3814 <do_hexdump+0x1e0>
    37e8:	e59f7108 	ldr	r7, [pc, #108]	; 38f8 <do_hexdump+0x2c4>
    37ec:	e59f6108 	ldr	r6, [pc, #108]	; 38fc <do_hexdump+0x2c8>
    37f0:	e3a04020 	mov	r4, #32	; 0x20
    37f4:	e3550008 	cmp	r5, #8	; 0x8
    37f8:	11a00007 	movne	r0, r7
    37fc:	01a00006 	moveq	r0, r6
    3800:	ebfffffe 	bl	0 <_start>
    3804:	e7c84005 	strb	r4, [r8, r5]
    3808:	e2855001 	add	r5, r5, #1	; 0x1
    380c:	e355000f 	cmp	r5, #15	; 0xf
    3810:	da000dfb 	ble	37f4 <do_hexdump+0x1c0>
    3814:	e1a01008 	mov	r1, r8
    3818:	e59f00ec 	ldr	r0, [pc, #ec]	; 390c <do_hexdump+0x2d8>
    381c:	ebfffffe 	bl	0 <_start>
    3820:	e51b00c4 	ldr	r0, [fp, -#196]
    3824:	ebfffffe 	bl	0 <_start>
    3828:	e3500000 	cmp	r0, #0	; 0x0
    382c:	1a000db2 	bne	36d0 <do_hexdump+0x9c>
    3830:	e59f00d8 	ldr	r0, [pc, #d8]	; 3910 <do_hexdump+0x2dc>
    3834:	ebfffffe 	bl	0 <_start>
    3838:	e59f30d4 	ldr	r3, [pc, #d4]	; 3914 <do_hexdump+0x2e0>
    383c:	e5930000 	ldr	r0, [r3]
    3840:	ebfffffe 	bl	0 <_start>
    3844:	e59f30a8 	ldr	r3, [pc, #a8]	; 38f4 <do_hexdump+0x2c0>
    3848:	e3a01050 	mov	r1, #80	; 0x50
    384c:	e5932000 	ldr	r2, [r3]
    3850:	e1a0000a 	mov	r0, sl
    3854:	ebfffffe 	bl	0 <_start>
    3858:	e55b00c0 	ldrb	r0, [fp, -#192]
    385c:	ebfffffe 	bl	0 <_start>
    3860:	e3500051 	cmp	r0, #81	; 0x51
    3864:	1a000dae 	bne	36c0 <do_hexdump+0x8c>
    3868:	ea000db2 	b	36d0 <do_hexdump+0x9c>
    386c:	e59f0098 	ldr	r0, [pc, #98]	; 390c <do_hexdump+0x2d8>
    3870:	e1a01008 	mov	r1, r8
    3874:	ebfffffe 	bl	0 <_start>
    3878:	ea000dee 	b	37c0 <do_hexdump+0x18c>
    387c:	e59f0080 	ldr	r0, [pc, #80]	; 3904 <do_hexdump+0x2d0>
    3880:	ea000dea 	b	37b0 <do_hexdump+0x17c>
    3884:	e3c9100f 	bic	r1, r9, #15	; 0xf
    3888:	e59f0070 	ldr	r0, [pc, #70]	; 3900 <do_hexdump+0x2cc>
    388c:	ebfffffe 	bl	0 <_start>
    3890:	ea000ddc 	b	3778 <do_hexdump+0x144>
    3894:	ebfffffe 	bl	0 <_start>
    3898:	ea000dc5 	b	371c <do_hexdump+0xe8>
    389c:	ebfffffe 	bl	0 <_start>
    38a0:	e5900000 	ldr	r0, [r0]
    38a4:	ebfffffe 	bl	0 <_start>
    38a8:	e59f2038 	ldr	r2, [pc, #38]	; 38e8 <do_hexdump+0x2b4>
    38ac:	e1a03000 	mov	r3, r0
    38b0:	e59f1060 	ldr	r1, [pc, #60]	; 3918 <do_hexdump+0x2e4>
    38b4:	e5920000 	ldr	r0, [r2]
    38b8:	e1a02004 	mov	r2, r4
    38bc:	ebfffffe 	bl	0 <_start>
    38c0:	e91baff0 	ldmdb	fp, {r4, r5, r6, r7, r8, r9, sl, fp, sp, pc}
    38c4:	e1a01009 	mov	r1, r9
    38c8:	e5940008 	ldr	r0, [r4, #8]
    38cc:	e1a02001 	mov	r2, r1
    38d0:	ebfffffe 	bl	0 <_start>
    38d4:	e2455002 	sub	r5, r5, #2	; 0x2
    38d8:	e1a09000 	mov	r9, r0
    38dc:	e2844008 	add	r4, r4, #8	; 0x8
    38e0:	ea000d99 	b	366c <do_hexdump+0x38>
    38e4:	00000774 	andeq	r0, r0, r4, ror r7
    38e8:	00000000 	andeq	r0, r0, r0
    38ec:	00000778 	andeq	r0, r0, r8, ror r7
    38f0:	00000790 	muleq	r0, r0, r7
    38f4:	00000000 	andeq	r0, r0, r0
    38f8:	00000794 	muleq	r0, r4, r7
    38fc:	00000798 	muleq	r0, r8, r7
    3900:	0000079c 	muleq	r0, ip, r7
    3904:	000007a4 	andeq	r0, r0, r4, lsr #15
    3908:	000007ac 	andeq	r0, r0, ip, lsr #15
    390c:	000007b4 	streqh	r0, [r0], -r4
    3910:	000007bc 	streqh	r0, [r0], -ip
    3914:	00000000 	andeq	r0, r0, r0
    3918:	000007c8 	andeq	r0, r0, r8, asr #15

0000391c <do_df>:
    391c:	e1a0c00d 	mov	ip, sp
    3920:	e92dd810 	stmdb	sp!, {r4, fp, ip, lr, pc}
    3924:	e3500001 	cmp	r0, #1	; 0x1
    3928:	e24cb004 	sub	fp, ip, #4	; 0x4
    392c:	e24dd040 	sub	sp, sp, #64	; 0x40
    3930:	e59f409c 	ldr	r4, [pc, #9c]	; 39d4 <do_df+0xb8>
    3934:	c5914004 	ldrgt	r4, [r1, #4]
    3938:	e24b1050 	sub	r1, fp, #80	; 0x50
    393c:	e1a00004 	mov	r0, r4
    3940:	ebfffffe 	bl	0 <_start>
    3944:	e1a03000 	mov	r3, r0
    3948:	e3730001 	cmn	r3, #1	; 0x1
    394c:	e59f0084 	ldr	r0, [pc, #84]	; 39d8 <do_df+0xbc>
    3950:	0a000e6b 	beq	39b4 <do_df+0x98>
    3954:	e51b204c 	ldr	r2, [fp, -#76]
    3958:	e1a03fc2 	mov	r3, r2, asr #31
    395c:	e0822c23 	add	r2, r2, r3, lsr #24
    3960:	e51b3048 	ldr	r3, [fp, -#72]
    3964:	e1a02442 	mov	r2, r2, asr #8
    3968:	e1a03123 	mov	r3, r3, lsr #2
    396c:	e0010293 	mul	r1, r3, r2
    3970:	ebfffffe 	bl	0 <_start>
    3974:	e51b204c 	ldr	r2, [fp, -#76]
    3978:	e1a03fc2 	mov	r3, r2, asr #31
    397c:	e0822c23 	add	r2, r2, r3, lsr #24
    3980:	e51b3044 	ldr	r3, [fp, -#68]
    3984:	e1a02442 	mov	r2, r2, asr #8
    3988:	e1a03123 	mov	r3, r3, lsr #2
    398c:	e0010293 	mul	r1, r3, r2
    3990:	e59f0044 	ldr	r0, [pc, #44]	; 39dc <do_df+0xc0>
    3994:	ebfffffe 	bl	0 <_start>
    3998:	e59f0040 	ldr	r0, [pc, #40]	; 39e0 <do_df+0xc4>
    399c:	e51b103c 	ldr	r1, [fp, -#60]
    39a0:	ebfffffe 	bl	0 <_start>
    39a4:	e59f0038 	ldr	r0, [pc, #38]	; 39e4 <do_df+0xc8>
    39a8:	e51b1038 	ldr	r1, [fp, -#56]
    39ac:	ebfffffe 	bl	0 <_start>
    39b0:	e91ba810 	ldmdb	fp, {r4, fp, sp, pc}
    39b4:	ebfffffe 	bl	0 <_start>
    39b8:	e5900000 	ldr	r0, [r0]
    39bc:	ebfffffe 	bl	0 <_start>
    39c0:	e1a01004 	mov	r1, r4
    39c4:	e1a02000 	mov	r2, r0
    39c8:	e59f0018 	ldr	r0, [pc, #18]	; 39e8 <do_df+0xcc>
    39cc:	ebfffffe 	bl	0 <_start>
    39d0:	e91ba810 	ldmdb	fp, {r4, fp, sp, pc}
    39d4:	000007e8 	andeq	r0, r0, r8, ror #15
    39d8:	000007ec 	andeq	r0, r0, ip, ror #15
    39dc:	00000800 	andeq	r0, r0, r0, lsl #16
    39e0:	00000814 	andeq	r0, r0, r4, lsl r8
    39e4:	00000828 	andeq	r0, r0, r8, lsr #16
    39e8:	0000083c 	andeq	r0, r0, ip, lsr r8

000039ec <do_free>:
    39ec:	e1a0c00d 	mov	ip, sp
    39f0:	e92dd8f0 	stmdb	sp!, {r4, r5, r6, r7, fp, ip, lr, pc}
    39f4:	e59f0060 	ldr	r0, [pc, #60]	; 3a5c <do_free+0x70>
    39f8:	e24cb004 	sub	fp, ip, #4	; 0x4
    39fc:	e24ddc01 	sub	sp, sp, #256	; 0x100
    3a00:	e59f1058 	ldr	r1, [pc, #58]	; 3a60 <do_free+0x74>
    3a04:	ebfffffe 	bl	0 <_start>
    3a08:	e1a04000 	mov	r4, r0
    3a0c:	e3540000 	cmp	r4, #0	; 0x0
    3a10:	159f704c 	ldrne	r7, [pc, #4c]	; 3a64 <do_free+0x78>
    3a14:	124b6f47 	subne	r6, fp, #284	; 0x11c
    3a18:	13a05002 	movne	r5, #2	; 0x2
    3a1c:	1a000e89 	bne	3a2c <do_free+0x40>
    3a20:	e59f0040 	ldr	r0, [pc, #40]	; 3a68 <do_free+0x7c>
    3a24:	ebfffffe 	bl	0 <_start>
    3a28:	e91ba8f0 	ldmdb	fp, {r4, r5, r6, r7, fp, sp, pc}
    3a2c:	e3a010fa 	mov	r1, #250	; 0xfa
    3a30:	e1a02004 	mov	r2, r4
    3a34:	e1a00006 	mov	r0, r6
    3a38:	ebfffffe 	bl	0 <_start>
    3a3c:	e5971000 	ldr	r1, [r7]
    3a40:	e1a00006 	mov	r0, r6
    3a44:	ebfffffe 	bl	0 <_start>
    3a48:	e2555001 	subs	r5, r5, #1	; 0x1
    3a4c:	5a000e89 	bpl	3a2c <do_free+0x40>
    3a50:	e1a00004 	mov	r0, r4
    3a54:	ebfffffe 	bl	0 <_start>
    3a58:	e91ba8f0 	ldmdb	fp, {r4, r5, r6, r7, fp, sp, pc}
    3a5c:	00000860 	andeq	r0, r0, r0, ror #16
    3a60:	00000870 	andeq	r0, r0, r0, ror r8
    3a64:	00000000 	andeq	r0, r0, r0
    3a68:	00000874 	andeq	r0, r0, r4, ror r8

00003a6c <do_hostname>:
    3a6c:	e1a0c00d 	mov	ip, sp
    3a70:	e92dd810 	stmdb	sp!, {r4, fp, ip, lr, pc}
    3a74:	e1a03000 	mov	r3, r0
    3a78:	e24cb004 	sub	fp, ip, #4	; 0x4
    3a7c:	e24ddf41 	sub	sp, sp, #260	; 0x104
    3a80:	e24b4f45 	sub	r4, fp, #276	; 0x114
    3a84:	e3530001 	cmp	r3, #1	; 0x1
    3a88:	e1a03001 	mov	r3, r1
    3a8c:	e1a00004 	mov	r0, r4
    3a90:	e3a01c01 	mov	r1, #256	; 0x100
    3a94:	da000eb1 	ble	3acc <do_hostname+0x60>
    3a98:	e5934004 	ldr	r4, [r3, #4]
    3a9c:	e1a00004 	mov	r0, r4
    3aa0:	ebfffffe 	bl	0 <_start>
    3aa4:	e1a03000 	mov	r3, r0
    3aa8:	e3530c01 	cmp	r3, #256	; 0x100
    3aac:	e1a00004 	mov	r0, r4
    3ab0:	e1a01003 	mov	r1, r3
    3ab4:	9a000eaf 	bls	3ac4 <do_hostname+0x58>
    3ab8:	e59f0020 	ldr	r0, [pc, #20]	; 3ae0 <do_hostname+0x74>
    3abc:	ebfffffe 	bl	0 <_start>
    3ac0:	e91ba810 	ldmdb	fp, {r4, fp, sp, pc}
    3ac4:	ebfffffe 	bl	0 <_start>
    3ac8:	e91ba810 	ldmdb	fp, {r4, fp, sp, pc}
    3acc:	ebfffffe 	bl	0 <_start>
    3ad0:	e1a01004 	mov	r1, r4
    3ad4:	e59f0008 	ldr	r0, [pc, #8]	; 3ae4 <do_hostname+0x78>
    3ad8:	ebfffffe 	bl	0 <_start>
    3adc:	e91ba810 	ldmdb	fp, {r4, fp, sp, pc}
    3ae0:	00000894 	muleq	r0, r4, r8
    3ae4:	000008ac 	andeq	r0, r0, ip, lsr #17

00003ae8 <do_date>:
    3ae8:	e1a0c00d 	mov	ip, sp
    3aec:	e92dd8f0 	stmdb	sp!, {r4, r5, r6, r7, fp, ip, lr, pc}
    3af0:	e24cb004 	sub	fp, ip, #4	; 0x4
    3af4:	e24b7044 	sub	r7, fp, #68	; 0x44
    3af8:	e24dd034 	sub	sp, sp, #52	; 0x34
    3afc:	e1a04000 	mov	r4, r0
    3b00:	e1a00007 	mov	r0, r7
    3b04:	e1a05001 	mov	r5, r1
    3b08:	ebfffffe 	bl	0 <_start>
    3b0c:	e1a00007 	mov	r0, r7
    3b10:	ebfffffe 	bl	0 <_start>
    3b14:	e24b6040 	sub	r6, fp, #64	; 0x40
    3b18:	e1a01000 	mov	r1, r0
    3b1c:	e3a02024 	mov	r2, #36	; 0x24
    3b20:	e1a00006 	mov	r0, r6
    3b24:	ebfffffe 	bl	0 <_start>
    3b28:	e3540001 	cmp	r4, #1	; 0x1
    3b2c:	da000efa 	ble	3bf0 <do_date+0x108>
    3b30:	e24bc038 	sub	ip, fp, #56	; 0x38
    3b34:	e5950004 	ldr	r0, [r5, #4]
    3b38:	e24be03c 	sub	lr, fp, #60	; 0x3c
    3b3c:	e58dc000 	str	ip, [sp]
    3b40:	e59f10c4 	ldr	r1, [pc, #c4]	; 3c0c <do_date+0x124>
    3b44:	e24bc02c 	sub	ip, fp, #44	; 0x2c
    3b48:	e24b2030 	sub	r2, fp, #48	; 0x30
    3b4c:	e24b3034 	sub	r3, fp, #52	; 0x34
    3b50:	e58de004 	str	lr, [sp, #4]
    3b54:	e58dc008 	str	ip, [sp, #8]
    3b58:	ebfffffe 	bl	0 <_start>
    3b5c:	e2400004 	sub	r0, r0, #4	; 0x4
    3b60:	e3500001 	cmp	r0, #1	; 0x1
    3b64:	8a000ef3 	bhi	3bd4 <do_date+0xec>
    3b68:	e51b202c 	ldr	r2, [fp, -#44]
    3b6c:	e3a03e76 	mov	r3, #1888	; 0x760
    3b70:	e283300b 	add	r3, r3, #11	; 0xb
    3b74:	e1520003 	cmp	r2, r3
    3b78:	c2423e76 	subgt	r3, r2, #1888	; 0x760
    3b7c:	c243300c 	subgt	r3, r3, #12	; 0xc
    3b80:	c50b302c 	strgt	r3, [fp, -#44]
    3b84:	e51b3030 	ldr	r3, [fp, -#48]
    3b88:	e1a00006 	mov	r0, r6
    3b8c:	e2433001 	sub	r3, r3, #1	; 0x1
    3b90:	e50b3030 	str	r3, [fp, -#48]
    3b94:	ebfffffe 	bl	0 <_start>
    3b98:	e3500000 	cmp	r0, #0	; 0x0
    3b9c:	e50b0044 	str	r0, [fp, -#68]
    3ba0:	ba000ef3 	blt	3bd4 <do_date+0xec>
    3ba4:	e1a00007 	mov	r0, r7
    3ba8:	ebfffffe 	bl	0 <_start>
    3bac:	e3500000 	cmp	r0, #0	; 0x0
    3bb0:	ba000eed 	blt	3bbc <do_date+0xd4>
    3bb4:	e3a00000 	mov	r0, #0	; 0x0
    3bb8:	e91ba8f0 	ldmdb	fp, {r4, r5, r6, r7, fp, sp, pc}
    3bbc:	e59f304c 	ldr	r3, [pc, #4c]	; 3c10 <do_date+0x128>
    3bc0:	e59f104c 	ldr	r1, [pc, #4c]	; 3c14 <do_date+0x12c>
    3bc4:	e5930000 	ldr	r0, [r3]
    3bc8:	ebfffffe 	bl	0 <_start>
    3bcc:	e3a00000 	mov	r0, #0	; 0x0
    3bd0:	e91ba8f0 	ldmdb	fp, {r4, r5, r6, r7, fp, sp, pc}
    3bd4:	e59f3034 	ldr	r3, [pc, #34]	; 3c10 <do_date+0x128>
    3bd8:	e5952004 	ldr	r2, [r5, #4]
    3bdc:	e5930000 	ldr	r0, [r3]
    3be0:	e59f1030 	ldr	r1, [pc, #30]	; 3c18 <do_date+0x130>
    3be4:	ebfffffe 	bl	0 <_start>
    3be8:	e3a00000 	mov	r0, #0	; 0x0
    3bec:	e91ba8f0 	ldmdb	fp, {r4, r5, r6, r7, fp, sp, pc}
    3bf0:	e1a00006 	mov	r0, r6
    3bf4:	ebfffffe 	bl	0 <_start>
    3bf8:	e1a01000 	mov	r1, r0
    3bfc:	e59f0018 	ldr	r0, [pc, #18]	; 3c1c <do_date+0x134>
    3c00:	ebfffffe 	bl	0 <_start>
    3c04:	e3a00000 	mov	r0, #0	; 0x0
    3c08:	e91ba8f0 	ldmdb	fp, {r4, r5, r6, r7, fp, sp, pc}
    3c0c:	000008c4 	andeq	r0, r0, r4, asr #17
    3c10:	00000000 	andeq	r0, r0, r0
    3c14:	000008d4 	ldreqd	r0, [r0], -r4
    3c18:	000008b0 	streqh	r0, [r0], -r0
    3c1c:	000008e8 	andeq	r0, r0, r8, ror #17

00003c20 <modestring>:
    3c20:	e1a0c00d 	mov	ip, sp
    3c24:	e92dd830 	stmdb	sp!, {r4, r5, fp, ip, lr, pc}
    3c28:	e59f5144 	ldr	r5, [pc, #144]	; 3d74 <modestring+0x154>
    3c2c:	e1a04000 	mov	r4, r0
    3c30:	e59f1140 	ldr	r1, [pc, #140]	; 3d78 <modestring+0x158>
    3c34:	e1a00005 	mov	r0, r5
    3c38:	e24cb004 	sub	fp, ip, #4	; 0x4
    3c3c:	ebfffffe 	bl	0 <_start>
    3c40:	e2042a0f 	and	r2, r4, #61440	; 0xf000
    3c44:	e3520901 	cmp	r2, #16384	; 0x4000
    3c48:	03a03064 	moveq	r3, #100	; 0x64
    3c4c:	05c53000 	streqb	r3, [r5]
    3c50:	e3520a02 	cmp	r2, #8192	; 0x2000
    3c54:	03a03063 	moveq	r3, #99	; 0x63
    3c58:	05c53000 	streqb	r3, [r5]
    3c5c:	e3520a06 	cmp	r2, #24576	; 0x6000
    3c60:	03a03062 	moveq	r3, #98	; 0x62
    3c64:	05c53000 	streqb	r3, [r5]
    3c68:	e3520a01 	cmp	r2, #4096	; 0x1000
    3c6c:	03a03070 	moveq	r3, #112	; 0x70
    3c70:	05c53000 	streqb	r3, [r5]
    3c74:	e3520a0a 	cmp	r2, #40960	; 0xa000
    3c78:	03a0306c 	moveq	r3, #108	; 0x6c
    3c7c:	05c53000 	streqb	r3, [r5]
    3c80:	e3520903 	cmp	r2, #49152	; 0xc000
    3c84:	03a03073 	moveq	r3, #115	; 0x73
    3c88:	05c53000 	streqb	r3, [r5]
    3c8c:	e3140c01 	tst	r4, #256	; 0x100
    3c90:	13a03072 	movne	r3, #114	; 0x72
    3c94:	15c53001 	strneb	r3, [r5, #1]
    3c98:	e3140080 	tst	r4, #128	; 0x80
    3c9c:	13a03077 	movne	r3, #119	; 0x77
    3ca0:	15c53002 	strneb	r3, [r5, #2]
    3ca4:	e214c040 	ands	ip, r4, #64	; 0x40
    3ca8:	13a03078 	movne	r3, #120	; 0x78
    3cac:	15c53003 	strneb	r3, [r5, #3]
    3cb0:	e3140020 	tst	r4, #32	; 0x20
    3cb4:	13a03072 	movne	r3, #114	; 0x72
    3cb8:	15c53004 	strneb	r3, [r5, #4]
    3cbc:	e3140010 	tst	r4, #16	; 0x10
    3cc0:	159f30ac 	ldrne	r3, [pc, #ac]	; 3d74 <modestring+0x154>
    3cc4:	13a02077 	movne	r2, #119	; 0x77
    3cc8:	15c32005 	strneb	r2, [r3, #5]
    3ccc:	e2140008 	ands	r0, r4, #8	; 0x8
    3cd0:	159f309c 	ldrne	r3, [pc, #9c]	; 3d74 <modestring+0x154>
    3cd4:	13a02078 	movne	r2, #120	; 0x78
    3cd8:	15c32006 	strneb	r2, [r3, #6]
    3cdc:	e3140004 	tst	r4, #4	; 0x4
    3ce0:	159f308c 	ldrne	r3, [pc, #8c]	; 3d74 <modestring+0x154>
    3ce4:	13a02072 	movne	r2, #114	; 0x72
    3ce8:	15c32007 	strneb	r2, [r3, #7]
    3cec:	e3140002 	tst	r4, #2	; 0x2
    3cf0:	159f307c 	ldrne	r3, [pc, #7c]	; 3d74 <modestring+0x154>
    3cf4:	13a02077 	movne	r2, #119	; 0x77
    3cf8:	15c32008 	strneb	r2, [r3, #8]
    3cfc:	e2141001 	ands	r1, r4, #1	; 0x1
    3d00:	159f306c 	ldrne	r3, [pc, #6c]	; 3d74 <modestring+0x154>
    3d04:	13a02078 	movne	r2, #120	; 0x78
    3d08:	15c32009 	strneb	r2, [r3, #9]
    3d0c:	e3140b02 	tst	r4, #2048	; 0x800
    3d10:	0a000f49 	beq	3d2c <modestring+0x10c>
    3d14:	e35c0000 	cmp	ip, #0	; 0x0
    3d18:	e59f2054 	ldr	r2, [pc, #54]	; 3d74 <modestring+0x154>
    3d1c:	13a03073 	movne	r3, #115	; 0x73
    3d20:	03a03053 	moveq	r3, #83	; 0x53
    3d24:	15c23003 	strneb	r3, [r2, #3]
    3d28:	05c23003 	streqb	r3, [r2, #3]
    3d2c:	e3140b01 	tst	r4, #1024	; 0x400
    3d30:	0a000f51 	beq	3d4c <modestring+0x12c>
    3d34:	e3500000 	cmp	r0, #0	; 0x0
    3d38:	e59f2034 	ldr	r2, [pc, #34]	; 3d74 <modestring+0x154>
    3d3c:	13a03073 	movne	r3, #115	; 0x73
    3d40:	03a03053 	moveq	r3, #83	; 0x53
    3d44:	15c23006 	strneb	r3, [r2, #6]
    3d48:	05c23006 	streqb	r3, [r2, #6]
    3d4c:	e3140c02 	tst	r4, #512	; 0x200
    3d50:	0a000f59 	beq	3d6c <modestring+0x14c>
    3d54:	e3510000 	cmp	r1, #0	; 0x0
    3d58:	e59f2014 	ldr	r2, [pc, #14]	; 3d74 <modestring+0x154>
    3d5c:	13a03074 	movne	r3, #116	; 0x74
    3d60:	03a03054 	moveq	r3, #84	; 0x54
    3d64:	15c23009 	strneb	r3, [r2, #9]
    3d68:	05c23009 	streqb	r3, [r2, #9]
    3d6c:	e59f0000 	ldr	r0, [pc, #0]	; 3d74 <modestring+0x154>
    3d70:	e91ba830 	ldmdb	fp, {r4, r5, fp, sp, pc}
    3d74:	00000170 	andeq	r0, r0, r0, ror r1
    3d78:	000008ec 	andeq	r0, r0, ip, ror #17

00003d7c <timestring>:
    3d7c:	e1a0c00d 	mov	ip, sp
    3d80:	e92dd830 	stmdb	sp!, {r4, r5, fp, ip, lr, pc}
    3d84:	e24cb004 	sub	fp, ip, #4	; 0x4
    3d88:	e24dd008 	sub	sp, sp, #8	; 0x8
    3d8c:	e50b001c 	str	r0, [fp, -#28]
    3d90:	e24b0018 	sub	r0, fp, #24	; 0x18
    3d94:	ebfffffe 	bl	0 <_start>
    3d98:	e24b001c 	sub	r0, fp, #28	; 0x1c
    3d9c:	ebfffffe 	bl	0 <_start>
    3da0:	e59f5054 	ldr	r5, [pc, #54]	; 3dfc <timestring+0x80>
    3da4:	e1a04000 	mov	r4, r0
    3da8:	e2841004 	add	r1, r4, #4	; 0x4
    3dac:	e1a00005 	mov	r0, r5
    3db0:	ebfffffe 	bl	0 <_start>
    3db4:	e51b3018 	ldr	r3, [fp, -#24]
    3db8:	e51bc01c 	ldr	ip, [fp, -#28]
    3dbc:	e2844014 	add	r4, r4, #20	; 0x14
    3dc0:	e28324fe 	add	r2, r3, #-33554432	; 0xfe000000
    3dc4:	e1a01004 	mov	r1, r4
    3dc8:	e282297b 	add	r2, r2, #2015232	; 0x1ec000
    3dcc:	e3a04000 	mov	r4, #0	; 0x0
    3dd0:	e15c0003 	cmp	ip, r3
    3dd4:	e2850007 	add	r0, r5, #7	; 0x7
    3dd8:	e2822d32 	add	r2, r2, #3200	; 0xc80
    3ddc:	e5c5400c 	strb	r4, [r5, #12]
    3de0:	ca000f79 	bgt	3dec <timestring+0x70>
    3de4:	e15c0002 	cmp	ip, r2
    3de8:	aa000f7b 	bge	3df4 <timestring+0x78>
    3dec:	ebfffffe 	bl	0 <_start>
    3df0:	e5c5400b 	strb	r4, [r5, #11]
    3df4:	e59f0000 	ldr	r0, [pc, #0]	; 3dfc <timestring+0x80>
    3df8:	e91ba830 	ldmdb	fp, {r4, r5, fp, sp, pc}
    3dfc:	0000017c 	andeq	r0, r0, ip, ror r1

00003e00 <isadir>:
    3e00:	e1a0c00d 	mov	ip, sp
    3e04:	e92dd800 	stmdb	sp!, {fp, ip, lr, pc}
    3e08:	e24cb004 	sub	fp, ip, #4	; 0x4
    3e0c:	e24dd058 	sub	sp, sp, #88	; 0x58
    3e10:	e24b1064 	sub	r1, fp, #100	; 0x64
    3e14:	ebfffffe 	bl	0 <_start>
    3e18:	e3500000 	cmp	r0, #0	; 0x0
    3e1c:	e3a00000 	mov	r0, #0	; 0x0
    3e20:	b91ba800 	ldmltdb	fp, {fp, sp, pc}
    3e24:	e51b0054 	ldr	r0, [fp, -#84]
    3e28:	e2000a0f 	and	r0, r0, #61440	; 0xf000
    3e2c:	e3500901 	cmp	r0, #16384	; 0x4000
    3e30:	13a00000 	movne	r0, #0	; 0x0
    3e34:	03a00001 	moveq	r0, #1	; 0x1
    3e38:	e91ba800 	ldmdb	fp, {fp, sp, pc}

00003e3c <copyfile>:
    3e3c:	e1a0c00d 	mov	ip, sp
    3e40:	e92ddff0 	stmdb	sp!, {r4, r5, r6, r7, r8, r9, sl, fp, ip, lr, pc}
    3e44:	e24cb004 	sub	fp, ip, #4	; 0x4
    3e48:	e24dd0c0 	sub	sp, sp, #192	; 0xc0
    3e4c:	e1a08001 	mov	r8, r1
    3e50:	e24b1080 	sub	r1, fp, #128	; 0x80
    3e54:	e50b20e4 	str	r2, [fp, -#228]
    3e58:	e1a09000 	mov	r9, r0
    3e5c:	ebfffffe 	bl	0 <_start>
    3e60:	e3a02d7f 	mov	r2, #8128	; 0x1fc0
    3e64:	e2822030 	add	r2, r2, #48	; 0x30
    3e68:	e3500000 	cmp	r0, #0	; 0x0
    3e6c:	e50b20e8 	str	r2, [fp, -#232]
    3e70:	e3a0a000 	mov	sl, #0	; 0x0
    3e74:	ba001024 	blt	4098 <copyfile+0x25c>
    3e78:	e24b40d8 	sub	r4, fp, #216	; 0xd8
    3e7c:	e1a00008 	mov	r0, r8
    3e80:	e1a01004 	mov	r1, r4
    3e84:	ebfffffe 	bl	0 <_start>
    3e88:	e3500000 	cmp	r0, #0	; 0x0
    3e8c:	ba00101e 	blt	4080 <copyfile+0x244>
    3e90:	e51b2080 	ldr	r2, [fp, -#128]
    3e94:	e51b30d8 	ldr	r3, [fp, -#216]
    3e98:	e1520003 	cmp	r2, r3
    3e9c:	0a00100f 	beq	4044 <copyfile+0x208>
    3ea0:	e1a00009 	mov	r0, r9
    3ea4:	e3a01000 	mov	r1, #0	; 0x0
    3ea8:	ebfffffe 	bl	0 <_start>
    3eac:	e1a07000 	mov	r7, r0
    3eb0:	e3570000 	cmp	r7, #0	; 0x0
    3eb4:	ba001024 	blt	4098 <copyfile+0x25c>
    3eb8:	e3a01d09 	mov	r1, #576	; 0x240
    3ebc:	e2811001 	add	r1, r1, #1	; 0x1
    3ec0:	e51b2070 	ldr	r2, [fp, -#112]
    3ec4:	e1a00008 	mov	r0, r8
    3ec8:	ebfffffe 	bl	0 <_start>
    3ecc:	e1a06000 	mov	r6, r0
    3ed0:	e3560000 	cmp	r6, #0	; 0x0
    3ed4:	ba001009 	blt	402c <copyfile+0x1f0>
    3ed8:	e51b00e8 	ldr	r0, [fp, -#232]
    3edc:	ebfffffe 	bl	0 <_start>
    3ee0:	e1a0a000 	mov	sl, r0
    3ee4:	e35a0000 	cmp	sl, #0	; 0x0
    3ee8:	0a001004 	beq	4018 <copyfile+0x1dc>
    3eec:	e1a00007 	mov	r0, r7
    3ef0:	e1a0100a 	mov	r1, sl
    3ef4:	e51b20e8 	ldr	r2, [fp, -#232]
    3ef8:	ebfffffe 	bl	0 <_start>
    3efc:	e1a04000 	mov	r4, r0
    3f00:	e3540000 	cmp	r4, #0	; 0x0
    3f04:	da000fe2 	ble	3f90 <copyfile+0x154>
    3f08:	e59f3198 	ldr	r3, [pc, #198]	; 40a8 <copyfile+0x26c>
    3f0c:	e5932000 	ldr	r2, [r3]
    3f10:	e3520000 	cmp	r2, #0	; 0x0
    3f14:	0a000fcc 	beq	3f38 <copyfile+0xfc>
    3f18:	e1a00007 	mov	r0, r7
    3f1c:	ebfffffe 	bl	0 <_start>
    3f20:	e1a00006 	mov	r0, r6
    3f24:	ebfffffe 	bl	0 <_start>
    3f28:	e1a0000a 	mov	r0, sl
    3f2c:	ebfffffe 	bl	0 <_start>
    3f30:	e3a00000 	mov	r0, #0	; 0x0
    3f34:	e91baff0 	ldmdb	fp, {r4, r5, r6, r7, r8, r9, sl, fp, sp, pc}
    3f38:	e1a0500a 	mov	r5, sl
    3f3c:	e1a01005 	mov	r1, r5
    3f40:	e1a02004 	mov	r2, r4
    3f44:	e1a00006 	mov	r0, r6
    3f48:	ebfffffe 	bl	0 <_start>
    3f4c:	e3500000 	cmp	r0, #0	; 0x0
    3f50:	e0604004 	rsb	r4, r0, r4
    3f54:	e0855000 	add	r5, r5, r0
    3f58:	ba000fd8 	blt	3f68 <copyfile+0x12c>
    3f5c:	e3540000 	cmp	r4, #0	; 0x0
    3f60:	ca000fcd 	bgt	3f3c <copyfile+0x100>
    3f64:	ea000fb9 	b	3eec <copyfile+0xb0>
    3f68:	e1a00008 	mov	r0, r8
    3f6c:	ebfffffe 	bl	0 <_start>
    3f70:	e1a0000a 	mov	r0, sl
    3f74:	ebfffffe 	bl	0 <_start>
    3f78:	e1a00007 	mov	r0, r7
    3f7c:	ebfffffe 	bl	0 <_start>
    3f80:	e1a00006 	mov	r0, r6
    3f84:	ebfffffe 	bl	0 <_start>
    3f88:	e3a00000 	mov	r0, #0	; 0x0
    3f8c:	e91baff0 	ldmdb	fp, {r4, r5, r6, r7, r8, r9, sl, fp, sp, pc}
    3f90:	e1a0000a 	mov	r0, sl
    3f94:	ebfffffe 	bl	0 <_start>
    3f98:	e3540000 	cmp	r4, #0	; 0x0
    3f9c:	ba001001 	blt	400c <copyfile+0x1d0>
    3fa0:	e1a00007 	mov	r0, r7
    3fa4:	ebfffffe 	bl	0 <_start>
    3fa8:	e1a00006 	mov	r0, r6
    3fac:	ebfffffe 	bl	0 <_start>
    3fb0:	e3500000 	cmp	r0, #0	; 0x0
    3fb4:	ba000fff 	blt	4004 <copyfile+0x1c8>
    3fb8:	e51b30e4 	ldr	r3, [fp, -#228]
    3fbc:	e3530000 	cmp	r3, #0	; 0x0
    3fc0:	0a000ffd 	beq	3ffc <copyfile+0x1c0>
    3fc4:	e51b1070 	ldr	r1, [fp, -#112]
    3fc8:	e1a00008 	mov	r0, r8
    3fcc:	ebfffffe 	bl	0 <_start>
    3fd0:	e1a00008 	mov	r0, r8
    3fd4:	e24b1068 	sub	r1, fp, #104	; 0x68
    3fd8:	e8910006 	ldmia	r1, {r1, r2}
    3fdc:	ebfffffe 	bl	0 <_start>
    3fe0:	e51b3048 	ldr	r3, [fp, -#72]
    3fe4:	e51b2040 	ldr	r2, [fp, -#64]
    3fe8:	e1a00008 	mov	r0, r8
    3fec:	e24b10e0 	sub	r1, fp, #224	; 0xe0
    3ff0:	e50b30e0 	str	r3, [fp, -#224]
    3ff4:	e50b20dc 	str	r2, [fp, -#220]
    3ff8:	ebfffffe 	bl	0 <_start>
    3ffc:	e3a00001 	mov	r0, #1	; 0x1
    4000:	e91baff0 	ldmdb	fp, {r4, r5, r6, r7, r8, r9, sl, fp, sp, pc}
    4004:	e1a00008 	mov	r0, r8
    4008:	ea001025 	b	409c <copyfile+0x260>
    400c:	e1a00009 	mov	r0, r9
    4010:	ebfffffe 	bl	0 <_start>
    4014:	ea000fdc 	b	3f78 <copyfile+0x13c>
    4018:	e59f308c 	ldr	r3, [pc, #8c]	; 40ac <copyfile+0x270>
    401c:	e59f108c 	ldr	r1, [pc, #8c]	; 40b0 <copyfile+0x274>
    4020:	e5930000 	ldr	r0, [r3]
    4024:	e51b20e8 	ldr	r2, [fp, -#232]
    4028:	ea00101b 	b	4074 <copyfile+0x238>
    402c:	e1a00008 	mov	r0, r8
    4030:	ebfffffe 	bl	0 <_start>
    4034:	e1a00007 	mov	r0, r7
    4038:	ebfffffe 	bl	0 <_start>
    403c:	e3a00000 	mov	r0, #0	; 0x0
    4040:	e91baff0 	ldmdb	fp, {r4, r5, r6, r7, r8, r9, sl, fp, sp, pc}
    4044:	e51b207c 	ldr	r2, [fp, -#124]
    4048:	e51b30d4 	ldr	r3, [fp, -#212]
    404c:	e1520003 	cmp	r2, r3
    4050:	1a000fa6 	bne	3ea0 <copyfile+0x64>
    4054:	e51b2074 	ldr	r2, [fp, -#116]
    4058:	e51b30cc 	ldr	r3, [fp, -#204]
    405c:	e1520003 	cmp	r2, r3
    4060:	1a000fa6 	bne	3ea0 <copyfile+0x64>
    4064:	e59f3040 	ldr	r3, [pc, #40]	; 40ac <copyfile+0x270>
    4068:	e59f1044 	ldr	r1, [pc, #44]	; 40b4 <copyfile+0x278>
    406c:	e5930000 	ldr	r0, [r3]
    4070:	e1a02009 	mov	r2, r9
    4074:	ebfffffe 	bl	0 <_start>
    4078:	e3a00000 	mov	r0, #0	; 0x0
    407c:	e91baff0 	ldmdb	fp, {r4, r5, r6, r7, r8, r9, sl, fp, sp, pc}
    4080:	e3e03000 	mvn	r3, #0	; 0x0
    4084:	e50b30cc 	str	r3, [fp, -#204]
    4088:	e3e03000 	mvn	r3, #0	; 0x0
    408c:	e3e02000 	mvn	r2, #0	; 0x0
    4090:	e884000c 	stmia	r4, {r2, r3}
    4094:	ea000fa2 	b	3e90 <copyfile+0x54>
    4098:	e1a00009 	mov	r0, r9
    409c:	ebfffffe 	bl	0 <_start>
    40a0:	e3a00000 	mov	r0, #0	; 0x0
    40a4:	e91baff0 	ldmdb	fp, {r4, r5, r6, r7, r8, r9, sl, fp, sp, pc}
	...
    40b0:	000008f8 	streqd	r0, [r0], -r8
    40b4:	00000920 	andeq	r0, r0, r0, lsr #18

000040b8 <buildname>:
    40b8:	e1a0c00d 	mov	ip, sp
    40bc:	e92dd870 	stmdb	sp!, {r4, r5, r6, fp, ip, lr, pc}
    40c0:	e1a04000 	mov	r4, r0
    40c4:	e1a05001 	mov	r5, r1
    40c8:	e3540000 	cmp	r4, #0	; 0x0
    40cc:	e24cb004 	sub	fp, ip, #4	; 0x4
    40d0:	e1a00005 	mov	r0, r5
    40d4:	091ba870 	ldmeqdb	fp, {r4, r5, r6, fp, sp, pc}
    40d8:	e5d43000 	ldrb	r3, [r4]
    40dc:	e3530000 	cmp	r3, #0	; 0x0
    40e0:	e59f6040 	ldr	r6, [pc, #40]	; 4128 <buildname+0x70>
    40e4:	e3a0102f 	mov	r1, #47	; 0x2f
    40e8:	091ba870 	ldmeqdb	fp, {r4, r5, r6, fp, sp, pc}
    40ec:	ebfffffe 	bl	0 <_start>
    40f0:	e1a03000 	mov	r3, r0
    40f4:	e3530000 	cmp	r3, #0	; 0x0
    40f8:	e1a01004 	mov	r1, r4
    40fc:	e1a00006 	mov	r0, r6
    4100:	12835001 	addne	r5, r3, #1	; 0x1
    4104:	ebfffffe 	bl	0 <_start>
    4108:	e59f101c 	ldr	r1, [pc, #1c]	; 412c <buildname+0x74>
    410c:	e1a00006 	mov	r0, r6
    4110:	ebfffffe 	bl	0 <_start>
    4114:	e1a00006 	mov	r0, r6
    4118:	e1a01005 	mov	r1, r5
    411c:	ebfffffe 	bl	0 <_start>
    4120:	e1a00006 	mov	r0, r6
    4124:	e91ba870 	ldmdb	fp, {r4, r5, r6, fp, sp, pc}
    4128:	00000196 	muleq	r0, r6, r1
    412c:	00000940 	andeq	r0, r0, r0, asr #18

00004130 <expandwildcards>:
    4130:	e1a0c00d 	mov	ip, sp
    4134:	e92ddff0 	stmdb	sp!, {r4, r5, r6, r7, r8, r9, sl, fp, ip, lr, pc}
    4138:	e24cb004 	sub	fp, ip, #4	; 0x4
    413c:	e24ddf42 	sub	sp, sp, #264	; 0x108
    4140:	e50b112c 	str	r1, [fp, -#300]
    4144:	e50b2130 	str	r2, [fp, -#304]
    4148:	e3a0102f 	mov	r1, #47	; 0x2f
    414c:	e1a07000 	mov	r7, r0
    4150:	ebfffffe 	bl	0 <_start>
    4154:	e1a08000 	mov	r8, r0
    4158:	e3580000 	cmp	r8, #0	; 0x0
    415c:	e3a0102a 	mov	r1, #42	; 0x2a
    4160:	e1a00007 	mov	r0, r7
    4164:	12888001 	addne	r8, r8, #1	; 0x1
    4168:	01a08007 	moveq	r8, r7
    416c:	ebfffffe 	bl	0 <_start>
    4170:	e3a0103f 	mov	r1, #63	; 0x3f
    4174:	e1a05000 	mov	r5, r0
    4178:	e1a00007 	mov	r0, r7
    417c:	ebfffffe 	bl	0 <_start>
    4180:	e3a0105b 	mov	r1, #91	; 0x5b
    4184:	e1a04000 	mov	r4, r0
    4188:	e1a00007 	mov	r0, r7
    418c:	ebfffffe 	bl	0 <_start>
    4190:	e3550000 	cmp	r5, #0	; 0x0
    4194:	03540000 	cmpeq	r4, #0	; 0x0
    4198:	1a001067 	bne	41a4 <expandwildcards+0x74>
    419c:	e3500000 	cmp	r0, #0	; 0x0
    41a0:	091baff0 	ldmeqdb	fp, {r4, r5, r6, r7, r8, r9, sl, fp, sp, pc}
    41a4:	e3550000 	cmp	r5, #0	; 0x0
    41a8:	11550008 	cmpne	r5, r8
    41ac:	2a00106d 	bcs	41bc <expandwildcards+0x8c>
    41b0:	e59f3238 	ldr	r3, [pc, #238]	; 43f0 <expandwildcards+0x2c0>
    41b4:	e59f1238 	ldr	r1, [pc, #238]	; 43f4 <expandwildcards+0x2c4>
    41b8:	ea0010ea 	b	43b0 <expandwildcards+0x280>
    41bc:	e3540000 	cmp	r4, #0	; 0x0
    41c0:	11540008 	cmpne	r4, r8
    41c4:	3a00106a 	bcc	41b0 <expandwildcards+0x80>
    41c8:	e1500008 	cmp	r0, r8
    41cc:	23a03000 	movcs	r3, #0	; 0x0
    41d0:	33a03001 	movcc	r3, #1	; 0x1
    41d4:	e3500000 	cmp	r0, #0	; 0x0
    41d8:	03a05000 	moveq	r5, #0	; 0x0
    41dc:	12035001 	andne	r5, r3, #1	; 0x1
    41e0:	e3550000 	cmp	r5, #0	; 0x0
    41e4:	1a00106a 	bne	41b0 <expandwildcards+0x80>
    41e8:	e3e060ff 	mvn	r6, #255	; 0xff
    41ec:	e3a0302e 	mov	r3, #46	; 0x2e
    41f0:	e24b1028 	sub	r1, fp, #40	; 0x28
    41f4:	e08b2006 	add	r2, fp, r6
    41f8:	e1580007 	cmp	r8, r7
    41fc:	e7c13006 	strb	r3, [r1, r6]
    4200:	e5425027 	strb	r5, [r2, -#39]
    4204:	0a0010f8 	beq	43e8 <expandwildcards+0x2b8>
    4208:	e24b9f4a 	sub	r9, fp, #296	; 0x128
    420c:	e0674008 	rsb	r4, r7, r8
    4210:	e1a02004 	mov	r2, r4
    4214:	e1a00009 	mov	r0, r9
    4218:	e1a01007 	mov	r1, r7
    421c:	ebfffffe 	bl	0 <_start>
    4220:	e2444001 	sub	r4, r4, #1	; 0x1
    4224:	e7c95004 	strb	r5, [r9, r4]
    4228:	e24b3028 	sub	r3, fp, #40	; 0x28
    422c:	e7d32006 	ldrb	r2, [r3, r6]
    4230:	e3520000 	cmp	r2, #0	; 0x0
    4234:	0a0010f2 	beq	43d0 <expandwildcards+0x2a0>
    4238:	e1a00009 	mov	r0, r9
    423c:	ebfffffe 	bl	0 <_start>
    4240:	e1a0a000 	mov	sl, r0
    4244:	e35a0000 	cmp	sl, #0	; 0x0
    4248:	0a0010ee 	beq	43c0 <expandwildcards+0x290>
    424c:	e1a00009 	mov	r0, r9
    4250:	ebfffffe 	bl	0 <_start>
    4254:	e1580007 	cmp	r8, r7
    4258:	e1a06000 	mov	r6, r0
    425c:	03e030ff 	mvneq	r3, #255	; 0xff
    4260:	03a06000 	moveq	r6, #0	; 0x0
    4264:	024b1028 	subeq	r1, fp, #40	; 0x28
    4268:	07c16003 	streqb	r6, [r1, r3]
    426c:	0a0010a2 	beq	4290 <expandwildcards+0x160>
    4270:	e2463001 	sub	r3, r6, #1	; 0x1
    4274:	e7d92003 	ldrb	r2, [r9, r3]
    4278:	e352002f 	cmp	r2, #47	; 0x2f
    427c:	13a0302f 	movne	r3, #47	; 0x2f
    4280:	17c93006 	strneb	r3, [r9, r6]
    4284:	12866001 	addne	r6, r6, #1	; 0x1
    4288:	1243302f 	subne	r3, r3, #47	; 0x2f
    428c:	17c93006 	strneb	r3, [r9, r6]
    4290:	e3a07000 	mov	r7, #0	; 0x0
    4294:	e1a0000a 	mov	r0, sl
    4298:	ebfffffe 	bl	0 <_start>
    429c:	e1a03000 	mov	r3, r0
    42a0:	e283400b 	add	r4, r3, #11	; 0xb
    42a4:	e3530000 	cmp	r3, #0	; 0x0
    42a8:	e59f1148 	ldr	r1, [pc, #148]	; 43f8 <expandwildcards+0x2c8>
    42ac:	e1a00004 	mov	r0, r4
    42b0:	0a0010dd 	beq	437c <expandwildcards+0x24c>
    42b4:	ebfffffe 	bl	0 <_start>
    42b8:	e1a03000 	mov	r3, r0
    42bc:	e3530000 	cmp	r3, #0	; 0x0
    42c0:	e59f1134 	ldr	r1, [pc, #134]	; 43fc <expandwildcards+0x2cc>
    42c4:	e1a00004 	mov	r0, r4
    42c8:	0a0010a3 	beq	4294 <expandwildcards+0x164>
    42cc:	ebfffffe 	bl	0 <_start>
    42d0:	e1a03000 	mov	r3, r0
    42d4:	e3530000 	cmp	r3, #0	; 0x0
    42d8:	e1a01008 	mov	r1, r8
    42dc:	e1a00004 	mov	r0, r4
    42e0:	0a0010a3 	beq	4294 <expandwildcards+0x164>
    42e4:	ebfffffe 	bl	0 <_start>
    42e8:	e1a03000 	mov	r3, r0
    42ec:	e3530000 	cmp	r3, #0	; 0x0
    42f0:	e1a00004 	mov	r0, r4
    42f4:	0a0010a3 	beq	4294 <expandwildcards+0x164>
    42f8:	e51b212c 	ldr	r2, [fp, -#300]
    42fc:	e1570002 	cmp	r7, r2
    4300:	aa0010d5 	bge	435c <expandwildcards+0x22c>
    4304:	ebfffffe 	bl	0 <_start>
    4308:	e0860000 	add	r0, r6, r0
    430c:	e2800001 	add	r0, r0, #1	; 0x1
    4310:	ebfffffe 	bl	0 <_start>
    4314:	e1a05000 	mov	r5, r0
    4318:	e3550000 	cmp	r5, #0	; 0x0
    431c:	e1a01009 	mov	r1, r9
    4320:	e1a02006 	mov	r2, r6
    4324:	0a0010d2 	beq	4350 <expandwildcards+0x220>
    4328:	e3560000 	cmp	r6, #0	; 0x0
    432c:	0a0010cb 	beq	4334 <expandwildcards+0x204>
    4330:	ebfffffe 	bl	0 <_start>
    4334:	e0850006 	add	r0, r5, r6
    4338:	e1a01004 	mov	r1, r4
    433c:	ebfffffe 	bl	0 <_start>
    4340:	e51b3130 	ldr	r3, [fp, -#304]
    4344:	e7835107 	str	r5, [r3, r7, lsl #2]
    4348:	e2877001 	add	r7, r7, #1	; 0x1
    434c:	ea0010a3 	b	4294 <expandwildcards+0x164>
    4350:	e59f3098 	ldr	r3, [pc, #98]	; 43f0 <expandwildcards+0x2c0>
    4354:	e59f10a4 	ldr	r1, [pc, #a4]	; 4400 <expandwildcards+0x2d0>
    4358:	ea0010d7 	b	4364 <expandwildcards+0x234>
    435c:	e59f308c 	ldr	r3, [pc, #8c]	; 43f0 <expandwildcards+0x2c0>
    4360:	e59f109c 	ldr	r1, [pc, #9c]	; 4404 <expandwildcards+0x2d4>
    4364:	e5930000 	ldr	r0, [r3]
    4368:	ebfffffe 	bl	0 <_start>
    436c:	e1a0000a 	mov	r0, sl
    4370:	ebfffffe 	bl	0 <_start>
    4374:	e3e00000 	mvn	r0, #0	; 0x0
    4378:	e91baff0 	ldmdb	fp, {r4, r5, r6, r7, r8, r9, sl, fp, sp, pc}
    437c:	e1a0000a 	mov	r0, sl
    4380:	ebfffffe 	bl	0 <_start>
    4384:	e3570000 	cmp	r7, #0	; 0x0
    4388:	0a0010e8 	beq	43a8 <expandwildcards+0x278>
    438c:	e51b0130 	ldr	r0, [fp, -#304]
    4390:	e59f3070 	ldr	r3, [pc, #70]	; 4408 <expandwildcards+0x2d8>
    4394:	e1a01007 	mov	r1, r7
    4398:	e3a02004 	mov	r2, #4	; 0x4
    439c:	ebfffffe 	bl	0 <_start>
    43a0:	e1a00007 	mov	r0, r7
    43a4:	e91baff0 	ldmdb	fp, {r4, r5, r6, r7, r8, r9, sl, fp, sp, pc}
    43a8:	e59f3040 	ldr	r3, [pc, #40]	; 43f0 <expandwildcards+0x2c0>
    43ac:	e59f1058 	ldr	r1, [pc, #58]	; 440c <expandwildcards+0x2dc>
    43b0:	e5930000 	ldr	r0, [r3]
    43b4:	ebfffffe 	bl	0 <_start>
    43b8:	e3e00000 	mvn	r0, #0	; 0x0
    43bc:	e91baff0 	ldmdb	fp, {r4, r5, r6, r7, r8, r9, sl, fp, sp, pc}
    43c0:	e1a00009 	mov	r0, r9
    43c4:	ebfffffe 	bl	0 <_start>
    43c8:	e3e00000 	mvn	r0, #0	; 0x0
    43cc:	e91baff0 	ldmdb	fp, {r4, r5, r6, r7, r8, r9, sl, fp, sp, pc}
    43d0:	e3a0302f 	mov	r3, #47	; 0x2f
    43d4:	e24b1028 	sub	r1, fp, #40	; 0x28
    43d8:	e7c13006 	strb	r3, [r1, r6]
    43dc:	e08b3006 	add	r3, fp, r6
    43e0:	e5432027 	strb	r2, [r3, -#39]
    43e4:	ea00108c 	b	4238 <expandwildcards+0x108>
    43e8:	e24b9f4a 	sub	r9, fp, #296	; 0x128
    43ec:	ea00108c 	b	4238 <expandwildcards+0x108>
    43f0:	00000000 	andeq	r0, r0, r0
    43f4:	00000944 	andeq	r0, r0, r4, asr #18
    43f8:	0000097c 	andeq	r0, r0, ip, ror r9
    43fc:	00000980 	andeq	r0, r0, r0, lsl #19
    4400:	00000984 	andeq	r0, r0, r4, lsl #19
    4404:	0000099c 	muleq	r0, ip, r9
    4408:	00000000 	andeq	r0, r0, r0
    440c:	000009b8 	streqh	r0, [r0], -r8

00004410 <namesort>:
    4410:	e52de004 	str	lr, [sp, -#4]!
    4414:	e5900000 	ldr	r0, [r0]
    4418:	e5911000 	ldr	r1, [r1]
    441c:	e49de004 	ldr	lr, [sp], #4
    4420:	eafffffe 	b	0 <_start>

00004424 <match>:
    4424:	e92d4030 	stmdb	sp!, {r4, r5, lr}
    4428:	e1a02000 	mov	r2, r0
    442c:	e5d2e000 	ldrb	lr, [r2]
    4430:	e3a04000 	mov	r4, #0	; 0x0
    4434:	e35e0000 	cmp	lr, #0	; 0x0
    4438:	e1a05004 	mov	r5, r4
    443c:	0a00114e 	beq	4540 <match+0x11c>
    4440:	e4d10001 	ldrb	r0, [r1], #1
    4444:	e350003f 	cmp	r0, #63	; 0x3f
    4448:	0a001149 	beq	452c <match+0x108>
    444c:	ca00112e 	bgt	44c0 <match+0x9c>
    4450:	e350002a 	cmp	r0, #42	; 0x2a
    4454:	0a00112c 	beq	44b8 <match+0x94>
    4458:	e5d23000 	ldrb	r3, [r2]
    445c:	e1530000 	cmp	r3, r0
    4460:	0a001129 	beq	44ac <match+0x88>
    4464:	e20300ff 	and	r0, r3, #255	; 0xff
    4468:	e3500000 	cmp	r0, #0	; 0x0
    446c:	08bd8030 	ldmeqia	sp!, {r4, r5, pc}
    4470:	e2842001 	add	r2, r4, #1	; 0x1
    4474:	e1a01005 	mov	r1, r5
    4478:	e1a04002 	mov	r4, r2
    447c:	e3510000 	cmp	r1, #0	; 0x0
    4480:	01a00001 	moveq	r0, r1
    4484:	08bd8030 	ldmeqia	sp!, {r4, r5, pc}
    4488:	e5d23000 	ldrb	r3, [r2]
    448c:	e1a0e003 	mov	lr, r3
    4490:	e35e0000 	cmp	lr, #0	; 0x0
    4494:	1a00110e 	bne	4440 <match+0x1c>
    4498:	e5d13000 	ldrb	r3, [r1]
    449c:	e3530000 	cmp	r3, #0	; 0x0
    44a0:	1a00110e 	bne	4440 <match+0x1c>
    44a4:	e3a00001 	mov	r0, #1	; 0x1
    44a8:	e8bd8030 	ldmia	sp!, {r4, r5, pc}
    44ac:	e3530000 	cmp	r3, #0	; 0x0
    44b0:	12822001 	addne	r2, r2, #1	; 0x1
    44b4:	ea00111d 	b	447c <match+0x58>
    44b8:	e1a05001 	mov	r5, r1
    44bc:	ea00111c 	b	4478 <match+0x54>
    44c0:	e350005b 	cmp	r0, #91	; 0x5b
    44c4:	0a001136 	beq	44e0 <match+0xbc>
    44c8:	e350005c 	cmp	r0, #92	; 0x5c
    44cc:	1a001114 	bne	4458 <match+0x34>
    44d0:	e4d10001 	ldrb	r0, [r1], #1
    44d4:	e3500000 	cmp	r0, #0	; 0x0
    44d8:	08bd8030 	ldmeqia	sp!, {r4, r5, pc}
    44dc:	ea001114 	b	4458 <match+0x34>
    44e0:	e4d10001 	ldrb	r0, [r1], #1
    44e4:	e350005d 	cmp	r0, #93	; 0x5d
    44e8:	e3a0c000 	mov	ip, #0	; 0x0
    44ec:	0a001144 	beq	4518 <match+0xf4>
    44f0:	e350005c 	cmp	r0, #92	; 0x5c
    44f4:	04d10001 	ldreqb	r0, [r1], #1
    44f8:	e3500000 	cmp	r0, #0	; 0x0
    44fc:	08bd8030 	ldmeqia	sp!, {r4, r5, pc}
    4500:	e5d23000 	ldrb	r3, [r2]
    4504:	e1530000 	cmp	r3, r0
    4508:	e4d10001 	ldrb	r0, [r1], #1
    450c:	03a0c001 	moveq	ip, #1	; 0x1
    4510:	e350005d 	cmp	r0, #93	; 0x5d
    4514:	1a00113a 	bne	44f0 <match+0xcc>
    4518:	e35c0000 	cmp	ip, #0	; 0x0
    451c:	02842001 	addeq	r2, r4, #1	; 0x1
    4520:	05d2e000 	ldreqb	lr, [r2]
    4524:	01a01005 	moveq	r1, r5
    4528:	01a04002 	moveq	r4, r2
    452c:	e20e00ff 	and	r0, lr, #255	; 0xff
    4530:	e3500000 	cmp	r0, #0	; 0x0
    4534:	e2822001 	add	r2, r2, #1	; 0x1
    4538:	1a00111d 	bne	447c <match+0x58>
    453c:	e8bd8030 	ldmia	sp!, {r4, r5, pc}
    4540:	e5d13000 	ldrb	r3, [r1]
    4544:	e1530004 	cmp	r3, r4
    4548:	ea001126 	b	44a0 <match+0x7c>

0000454c <makeargs>:
    454c:	e59f317c 	ldr	r3, [pc, #17c]	; 46d0 <makeargs+0x184>
    4550:	e1a0c00d 	mov	ip, sp
    4554:	e92dddf0 	stmdb	sp!, {r4, r5, r6, r7, r8, sl, fp, ip, lr, pc}
    4558:	e1a04003 	mov	r4, r3
    455c:	e1a0a001 	mov	sl, r1
    4560:	e1a01000 	mov	r1, r0
    4564:	e1a00003 	mov	r0, r3
    4568:	e24cb004 	sub	fp, ip, #4	; 0x4
    456c:	e1a08002 	mov	r8, r2
    4570:	ebfffffe 	bl	0 <_start>
    4574:	e5d43000 	ldrb	r3, [r4]
    4578:	e3530000 	cmp	r3, #0	; 0x0
    457c:	e3a06000 	mov	r6, #0	; 0x0
    4580:	0a0011b0 	beq	46c8 <makeargs+0x17c>
    4584:	e3560031 	cmp	r6, #49	; 0x31
    4588:	ca0011aa 	bgt	46b0 <makeargs+0x164>
    458c:	e59f7140 	ldr	r7, [pc, #140]	; 46d4 <makeargs+0x188>
    4590:	e7874106 	str	r4, [r7, r6, lsl #2]
    4594:	e5d40000 	ldrb	r0, [r4]
    4598:	e3500000 	cmp	r0, #0	; 0x0
    459c:	e2866001 	add	r6, r6, #1	; 0x1
    45a0:	ea00117e 	b	4600 <makeargs+0xb4>
    45a4:	e3520027 	cmp	r2, #39	; 0x27
    45a8:	13520022 	cmpne	r2, #34	; 0x22
    45ac:	1a0011a8 	bne	46a8 <makeargs+0x15c>
    45b0:	e1a03004 	mov	r3, r4
    45b4:	e1a01004 	mov	r1, r4
    45b8:	e5f40001 	ldrb	r0, [r4, #1]!
    45bc:	e20020ff 	and	r2, r0, #255	; 0xff
    45c0:	e3520000 	cmp	r2, #0	; 0x0
    45c4:	0a0011a6 	beq	46a0 <makeargs+0x154>
    45c8:	e5d33000 	ldrb	r3, [r3]
    45cc:	e1520003 	cmp	r2, r3
    45d0:	0a001197 	beq	4664 <makeargs+0x118>
    45d4:	e1a02003 	mov	r2, r3
    45d8:	e202c0ff 	and	ip, r2, #255	; 0xff
    45dc:	e5f40001 	ldrb	r0, [r4, #1]!
    45e0:	e20030ff 	and	r3, r0, #255	; 0xff
    45e4:	e3530000 	cmp	r3, #0	; 0x0
    45e8:	0a00117b 	beq	45f4 <makeargs+0xa8>
    45ec:	e153000c 	cmp	r3, ip
    45f0:	1a001175 	bne	45dc <makeargs+0x90>
    45f4:	e1500002 	cmp	r0, r2
    45f8:	0a001197 	beq	4664 <makeargs+0x118>
    45fc:	e3500000 	cmp	r0, #0	; 0x0
    4600:	05d43000 	ldreqb	r3, [r4]
    4604:	0a001185 	beq	461c <makeargs+0xd0>
    4608:	e5d43000 	ldrb	r3, [r4]
    460c:	e3530020 	cmp	r3, #32	; 0x20
    4610:	13530009 	cmpne	r3, #9	; 0x9
    4614:	e1a02003 	mov	r2, r3
    4618:	1a001167 	bne	45a4 <makeargs+0x58>
    461c:	e3530009 	cmp	r3, #9	; 0x9
    4620:	13530020 	cmpne	r3, #32	; 0x20
    4624:	1a00118f 	bne	4644 <makeargs+0xf8>
    4628:	e3a02000 	mov	r2, #0	; 0x0
    462c:	e5c42000 	strb	r2, [r4]
    4630:	e5f43001 	ldrb	r3, [r4, #1]!
    4634:	e3530009 	cmp	r3, #9	; 0x9
    4638:	13530020 	cmpne	r3, #32	; 0x20
    463c:	0a001189 	beq	462c <makeargs+0xe0>
    4640:	e1a00003 	mov	r0, r3
    4644:	e3500000 	cmp	r0, #0	; 0x0
    4648:	1a00115f 	bne	4584 <makeargs+0x38>
    464c:	e3a03000 	mov	r3, #0	; 0x0
    4650:	e7873106 	str	r3, [r7, r6, lsl #2]
    4654:	e3a00001 	mov	r0, #1	; 0x1
    4658:	e58a6000 	str	r6, [sl]
    465c:	e5887000 	str	r7, [r8]
    4660:	e91badf0 	ldmdb	fp, {r4, r5, r6, r7, r8, sl, fp, sp, pc}
    4664:	e0612004 	rsb	r2, r1, r4
    4668:	e2810001 	add	r0, r1, #1	; 0x1
    466c:	e2422001 	sub	r2, r2, #1	; 0x1
    4670:	e2845001 	add	r5, r4, #1	; 0x1
    4674:	ebfffffe 	bl	0 <_start>
    4678:	e1a00005 	mov	r0, r5
    467c:	ebfffffe 	bl	0 <_start>
    4680:	e2444001 	sub	r4, r4, #1	; 0x1
    4684:	e1a02000 	mov	r2, r0
    4688:	e2822001 	add	r2, r2, #1	; 0x1
    468c:	e1a00005 	mov	r0, r5
    4690:	e1a01004 	mov	r1, r4
    4694:	ebfffffe 	bl	0 <_start>
    4698:	e5d40000 	ldrb	r0, [r4]
    469c:	ea00117d 	b	45fc <makeargs+0xb0>
    46a0:	e5d32000 	ldrb	r2, [r3]
    46a4:	ea00117b 	b	45f4 <makeargs+0xa8>
    46a8:	e5f40001 	ldrb	r0, [r4, #1]!
    46ac:	ea00117d 	b	45fc <makeargs+0xb0>
    46b0:	e59f3020 	ldr	r3, [pc, #20]	; 46d8 <makeargs+0x18c>
    46b4:	e59f1020 	ldr	r1, [pc, #20]	; 46dc <makeargs+0x190>
    46b8:	e5930000 	ldr	r0, [r3]
    46bc:	ebfffffe 	bl	0 <_start>
    46c0:	e3a00000 	mov	r0, #0	; 0x0
    46c4:	e91badf0 	ldmdb	fp, {r4, r5, r6, r7, r8, sl, fp, sp, pc}
    46c8:	e59f7004 	ldr	r7, [pc, #4]	; 46d4 <makeargs+0x188>
    46cc:	ea001191 	b	464c <makeargs+0x100>
    46d0:	00000298 	muleq	r0, r8, r2
    46d4:	0000039c 	muleq	r0, ip, r3
    46d8:	00000000 	andeq	r0, r0, r0
    46dc:	000009c4 	andeq	r0, r0, r4, asr #19

000046e0 <getchunk>:
    46e0:	e3500003 	cmp	r0, #3	; 0x3
    46e4:	d3a00004 	movle	r0, #4	; 0x4
    46e8:	e1a0c00d 	mov	ip, sp
    46ec:	e2800004 	add	r0, r0, #4	; 0x4
    46f0:	e92dd800 	stmdb	sp!, {fp, ip, lr, pc}
    46f4:	e24cb004 	sub	fp, ip, #4	; 0x4
    46f8:	ebfffffe 	bl	0 <_start>
    46fc:	e1a02000 	mov	r2, r0
    4700:	e3520000 	cmp	r2, #0	; 0x0
    4704:	e59fc018 	ldr	ip, [pc, #18]	; 4724 <getchunk+0x44>
    4708:	e2821004 	add	r1, r2, #4	; 0x4
    470c:	091ba800 	ldmeqdb	fp, {fp, sp, pc}
    4710:	e59c3000 	ldr	r3, [ip]
    4714:	e1a00001 	mov	r0, r1
    4718:	e5823000 	str	r3, [r2]
    471c:	e58c2000 	str	r2, [ip]
    4720:	e91ba800 	ldmdb	fp, {fp, sp, pc}
    4724:	00000468 	andeq	r0, r0, r8, ror #8

00004728 <freechunks>:
    4728:	e1a0c00d 	mov	ip, sp
    472c:	e92dd810 	stmdb	sp!, {r4, fp, ip, lr, pc}
    4730:	e59f0030 	ldr	r0, [pc, #30]	; 4768 <freechunks+0x40>
    4734:	e5903000 	ldr	r3, [r0]
    4738:	e3530000 	cmp	r3, #0	; 0x0
    473c:	e24cb004 	sub	fp, ip, #4	; 0x4
    4740:	091ba810 	ldmeqdb	fp, {r4, fp, sp, pc}
    4744:	e1a04000 	mov	r4, r0
    4748:	e5940000 	ldr	r0, [r4]
    474c:	e5903000 	ldr	r3, [r0]
    4750:	e5843000 	str	r3, [r4]
    4754:	ebfffffe 	bl	0 <_start>
    4758:	e5943000 	ldr	r3, [r4]
    475c:	e3530000 	cmp	r3, #0	; 0x0
    4760:	1a0011d0 	bne	4748 <freechunks+0x20>
    4764:	e91ba810 	ldmdb	fp, {r4, fp, sp, pc}
    4768:	00000468 	andeq	r0, r0, r8, ror #8

0000476c <expandenvvar>:
    476c:	e1a0c00d 	mov	ip, sp
    4770:	e92dddf0 	stmdb	sp!, {r4, r5, r6, r7, r8, sl, fp, ip, lr, pc}
    4774:	e1a05000 	mov	r5, r0
    4778:	e24cb004 	sub	fp, ip, #4	; 0x4
    477c:	e24ddf41 	sub	sp, sp, #260	; 0x104
    4780:	e3550000 	cmp	r5, #0	; 0x0
    4784:	e59fa11c 	ldr	sl, [pc, #11c]	; 48a8 <expandenvvar+0x13c>
    4788:	e3a08c01 	mov	r8, #256	; 0x100
    478c:	091badf0 	ldmeqdb	fp, {r4, r5, r6, r7, r8, sl, fp, sp, pc}
    4790:	ebfffffe 	bl	0 <_start>
    4794:	e1500008 	cmp	r0, r8
    4798:	9a0011f0 	bls	47c8 <expandenvvar+0x5c>
    479c:	ea00121f 	b	4884 <expandenvvar+0x118>
    47a0:	e5d53000 	ldrb	r3, [r5]
    47a4:	e3530024 	cmp	r3, #36	; 0x24
    47a8:	0a0011fd 	beq	47fc <expandenvvar+0x90>
    47ac:	e353005c 	cmp	r3, #92	; 0x5c
    47b0:	0a0011f7 	beq	47e4 <expandenvvar+0x78>
    47b4:	e3580000 	cmp	r8, #0	; 0x0
    47b8:	da00121f 	ble	4884 <expandenvvar+0x118>
    47bc:	e4ca3001 	strb	r3, [sl], #1
    47c0:	e2855001 	add	r5, r5, #1	; 0x1
    47c4:	e2488001 	sub	r8, r8, #1	; 0x1
    47c8:	e5d53000 	ldrb	r3, [r5]
    47cc:	e3530000 	cmp	r3, #0	; 0x0
    47d0:	1a0011e6 	bne	47a0 <expandenvvar+0x34>
    47d4:	e3a03000 	mov	r3, #0	; 0x0
    47d8:	e59f00c8 	ldr	r0, [pc, #c8]	; 48a8 <expandenvvar+0x13c>
    47dc:	e5ca3000 	strb	r3, [sl]
    47e0:	e91badf0 	ldmdb	fp, {r4, r5, r6, r7, r8, sl, fp, sp, pc}
    47e4:	e3580000 	cmp	r8, #0	; 0x0
    47e8:	da00121f 	ble	4884 <expandenvvar+0x118>
    47ec:	e2855001 	add	r5, r5, #1	; 0x1
    47f0:	e4d53001 	ldrb	r3, [r5], #1
    47f4:	e4ca3001 	strb	r3, [sl], #1
    47f8:	ea0011ef 	b	47c4 <expandenvvar+0x58>
    47fc:	e24b6f4a 	sub	r6, fp, #296	; 0x128
    4800:	e2855001 	add	r5, r5, #1	; 0x1
    4804:	e1a04006 	mov	r4, r6
    4808:	e5d50000 	ldrb	r0, [r5]
    480c:	ebfffffe 	bl	0 <_start>
    4810:	e1a07000 	mov	r7, r0
    4814:	e3570000 	cmp	r7, #0	; 0x0
    4818:	15d53000 	ldrneb	r3, [r5]
    481c:	1a001225 	bne	489c <expandenvvar+0x130>
    4820:	e5d53000 	ldrb	r3, [r5]
    4824:	e353005f 	cmp	r3, #95	; 0x5f
    4828:	0a001225 	beq	489c <expandenvvar+0x130>
    482c:	e5c47000 	strb	r7, [r4]
    4830:	e3a034bf 	mov	r3, #-1090519040	; 0xbf000000
    4834:	e24b1024 	sub	r1, fp, #36	; 0x24
    4838:	e7d12b43 	ldrb	r2, [r1, r3, asr #22]
    483c:	e3520000 	cmp	r2, #0	; 0x0
    4840:	0a0011f0 	beq	47c8 <expandenvvar+0x5c>
    4844:	e1a00006 	mov	r0, r6
    4848:	ebfffffe 	bl	0 <_start>
    484c:	e1a06000 	mov	r6, r0
    4850:	e3560000 	cmp	r6, #0	; 0x0
    4854:	0a0011f0 	beq	47c8 <expandenvvar+0x5c>
    4858:	ebfffffe 	bl	0 <_start>
    485c:	e1a04000 	mov	r4, r0
    4860:	e1540008 	cmp	r4, r8
    4864:	ca00121f 	bgt	4884 <expandenvvar+0x118>
    4868:	e1a0000a 	mov	r0, sl
    486c:	e1a01006 	mov	r1, r6
    4870:	e1a02004 	mov	r2, r4
    4874:	ebfffffe 	bl	0 <_start>
    4878:	e0648008 	rsb	r8, r4, r8
    487c:	e08aa004 	add	sl, sl, r4
    4880:	ea0011f0 	b	47c8 <expandenvvar+0x5c>
    4884:	e59f3020 	ldr	r3, [pc, #20]	; 48ac <expandenvvar+0x140>
    4888:	e59f1020 	ldr	r1, [pc, #20]	; 48b0 <expandenvvar+0x144>
    488c:	e5930000 	ldr	r0, [r3]
    4890:	ebfffffe 	bl	0 <_start>
    4894:	e3a00000 	mov	r0, #0	; 0x0
    4898:	e91badf0 	ldmdb	fp, {r4, r5, r6, r7, r8, sl, fp, sp, pc}
    489c:	e4c43001 	strb	r3, [r4], #1
    48a0:	e2855001 	add	r5, r5, #1	; 0x1
    48a4:	ea001200 	b	4808 <expandenvvar+0x9c>
    48a8:	0000046c 	andeq	r0, r0, ip, ror #8
    48ac:	00000000 	andeq	r0, r0, r0
    48b0:	000009d8 	ldreqd	r0, [r0], -r8

000048b4 <isalnum>:
    48b4:	e2403030 	sub	r3, r0, #48	; 0x30
    48b8:	e3800020 	orr	r0, r0, #32	; 0x20
    48bc:	e2400061 	sub	r0, r0, #97	; 0x61
    48c0:	e3500019 	cmp	r0, #25	; 0x19
    48c4:	e3a00000 	mov	r0, #0	; 0x0
    48c8:	9a001233 	bls	48d4 <isalnum+0x20>
    48cc:	e3530009 	cmp	r3, #9	; 0x9
    48d0:	81a0f00e 	movhi	pc, lr
    48d4:	e3a00001 	mov	r0, #1	; 0x1
    48d8:	e1a0f00e 	mov	pc, lr

000048dc <isdigit>:
    48dc:	e2400030 	sub	r0, r0, #48	; 0x30
    48e0:	e3500009 	cmp	r0, #9	; 0x9
    48e4:	83a00000 	movhi	r0, #0	; 0x0
    48e8:	93a00001 	movls	r0, #1	; 0x1
    48ec:	e1a0f00e 	mov	pc, lr

000048f0 <isspace>:
    48f0:	e1a03000 	mov	r3, r0
    48f4:	e2430009 	sub	r0, r3, #9	; 0x9
    48f8:	e3500004 	cmp	r0, #4	; 0x4
    48fc:	83a00000 	movhi	r0, #0	; 0x0
    4900:	93a00001 	movls	r0, #1	; 0x1
    4904:	e3530020 	cmp	r3, #32	; 0x20
    4908:	03800001 	orreq	r0, r0, #1	; 0x1
    490c:	e1a0f00e 	mov	pc, lr

00004910 <toupper>:
    4910:	e2403061 	sub	r3, r0, #97	; 0x61
    4914:	e3530019 	cmp	r3, #25	; 0x19
    4918:	83a03000 	movhi	r3, #0	; 0x0
    491c:	93a03001 	movls	r3, #1	; 0x1
    4920:	e0200283 	eor	r0, r0, r3, lsl #5
    4924:	e1a0f00e 	mov	pc, lr

00004928 <closedir>:
    4928:	e1a0c00d 	mov	ip, sp
    492c:	e92dd870 	stmdb	sp!, {r4, r5, r6, fp, ip, lr, pc}
    4930:	e1a05000 	mov	r5, r0
    4934:	e3550000 	cmp	r5, #0	; 0x0
    4938:	e24cb004 	sub	fp, ip, #4	; 0x4
    493c:	0a001265 	beq	499c <closedir+0x74>
    4940:	e5954000 	ldr	r4, [r5]
    4944:	e2856018 	add	r6, r5, #24	; 0x18
    4948:	e3740001 	cmn	r4, #1	; 0x1
    494c:	e1a00006 	mov	r0, r6
    4950:	0a001260 	beq	4988 <closedir+0x60>
    4954:	ebfffffe 	bl	0 <_start>
    4958:	e3e03000 	mvn	r3, #0	; 0x0
    495c:	e5954000 	ldr	r4, [r5]
    4960:	e1a00006 	mov	r0, r6
    4964:	e5853000 	str	r3, [r5]
    4968:	ebfffffe 	bl	0 <_start>
    496c:	e595000c 	ldr	r0, [r5, #12]
    4970:	ebfffffe 	bl	0 <_start>
    4974:	e1a00005 	mov	r0, r5
    4978:	ebfffffe 	bl	0 <_start>
    497c:	e1a00004 	mov	r0, r4
    4980:	e91b6870 	ldmdb	fp, {r4, r5, r6, fp, sp, lr}
    4984:	eafffffe 	b	0 <_start>
    4988:	ebfffffe 	bl	0 <_start>
    498c:	e3a03009 	mov	r3, #9	; 0x9
    4990:	e5803000 	str	r3, [r0]
    4994:	e1a00004 	mov	r0, r4
    4998:	e91ba870 	ldmdb	fp, {r4, r5, r6, fp, sp, pc}
    499c:	ebfffffe 	bl	0 <_start>
    49a0:	e3a03009 	mov	r3, #9	; 0x9
    49a4:	e1a02000 	mov	r2, r0
    49a8:	e3e00000 	mvn	r0, #0	; 0x0
    49ac:	e5823000 	str	r3, [r2]
    49b0:	e91ba870 	ldmdb	fp, {r4, r5, r6, fp, sp, pc}

000049b4 <opendir>:
    49b4:	e1a0c00d 	mov	ip, sp
    49b8:	e92dd870 	stmdb	sp!, {r4, r5, r6, fp, ip, lr, pc}
    49bc:	e24cb004 	sub	fp, ip, #4	; 0x4
    49c0:	e24dd058 	sub	sp, sp, #88	; 0x58
    49c4:	e24b1070 	sub	r1, fp, #112	; 0x70
    49c8:	e1a04000 	mov	r4, r0
    49cc:	ebfffffe 	bl	0 <_start>
    49d0:	e1a05000 	mov	r5, r0
    49d4:	e3550000 	cmp	r5, #0	; 0x0
    49d8:	13a00000 	movne	r0, #0	; 0x0
    49dc:	191ba870 	ldmnedb	fp, {r4, r5, r6, fp, sp, pc}
    49e0:	e51b3060 	ldr	r3, [fp, -#96]
    49e4:	e2033a0f 	and	r3, r3, #61440	; 0xf000
    49e8:	e3530901 	cmp	r3, #16384	; 0x4000
    49ec:	0a00127d 	beq	49fc <opendir+0x48>
    49f0:	ebfffffe 	bl	0 <_start>
    49f4:	e3a03014 	mov	r3, #20	; 0x14
    49f8:	ea0012ad 	b	4abc <opendir+0x108>
    49fc:	e1a00004 	mov	r0, r4
    4a00:	e1a01005 	mov	r1, r5
    4a04:	ebfffffe 	bl	0 <_start>
    4a08:	e1a06000 	mov	r6, r0
    4a0c:	e3560000 	cmp	r6, #0	; 0x0
    4a10:	b1a00005 	movlt	r0, r5
    4a14:	b91ba870 	ldmltdb	fp, {r4, r5, r6, fp, sp, pc}
    4a18:	e3a01002 	mov	r1, #2	; 0x2
    4a1c:	e3a02001 	mov	r2, #1	; 0x1
    4a20:	ebfffffe 	bl	0 <_start>
    4a24:	e3500000 	cmp	r0, #0	; 0x0
    4a28:	b1a00005 	movlt	r0, r5
    4a2c:	b91ba870 	ldmltdb	fp, {r4, r5, r6, fp, sp, pc}
    4a30:	e3a00030 	mov	r0, #48	; 0x30
    4a34:	ebfffffe 	bl	0 <_start>
    4a38:	e1a04000 	mov	r4, r0
    4a3c:	e3540000 	cmp	r4, #0	; 0x0
    4a40:	0a0012a9 	beq	4aac <opendir+0xf8>
    4a44:	e51b3040 	ldr	r3, [fp, -#64]
    4a48:	e3530c02 	cmp	r3, #512	; 0x200
    4a4c:	e5843014 	str	r3, [r4, #20]
    4a50:	33a03c02 	movcc	r3, #512	; 0x200
    4a54:	35843014 	strcc	r3, [r4, #20]
    4a58:	e5846000 	str	r6, [r4]
    4a5c:	e5845010 	str	r5, [r4, #16]
    4a60:	e5845008 	str	r5, [r4, #8]
    4a64:	e5845004 	str	r5, [r4, #4]
    4a68:	e5941014 	ldr	r1, [r4, #20]
    4a6c:	e3a00001 	mov	r0, #1	; 0x1
    4a70:	ebfffffe 	bl	0 <_start>
    4a74:	e1a03000 	mov	r3, r0
    4a78:	e3530000 	cmp	r3, #0	; 0x0
    4a7c:	0a0012a4 	beq	4a98 <opendir+0xe4>
    4a80:	e2840018 	add	r0, r4, #24	; 0x18
    4a84:	e1a01005 	mov	r1, r5
    4a88:	e584300c 	str	r3, [r4, #12]
    4a8c:	ebfffffe 	bl	0 <_start>
    4a90:	e1a00004 	mov	r0, r4
    4a94:	e91ba870 	ldmdb	fp, {r4, r5, r6, fp, sp, pc}
    4a98:	e1a00006 	mov	r0, r6
    4a9c:	ebfffffe 	bl	0 <_start>
    4aa0:	e1a00004 	mov	r0, r4
    4aa4:	ebfffffe 	bl	0 <_start>
    4aa8:	ea0012ab 	b	4ab4 <opendir+0x100>
    4aac:	e1a00006 	mov	r0, r6
    4ab0:	ebfffffe 	bl	0 <_start>
    4ab4:	ebfffffe 	bl	0 <_start>
    4ab8:	e3a0300c 	mov	r3, #12	; 0xc
    4abc:	e1a02000 	mov	r2, r0
    4ac0:	e3a00000 	mov	r0, #0	; 0x0
    4ac4:	e5823000 	str	r3, [r2]
    4ac8:	e91ba870 	ldmdb	fp, {r4, r5, r6, fp, sp, pc}

00004acc <readdir>:
    4acc:	e1a0c00d 	mov	ip, sp
    4ad0:	e92dd870 	stmdb	sp!, {r4, r5, r6, fp, ip, lr, pc}
    4ad4:	e1a04000 	mov	r4, r0
    4ad8:	e3540000 	cmp	r4, #0	; 0x0
    4adc:	e24cb004 	sub	fp, ip, #4	; 0x4
    4ae0:	0a0012d6 	beq	4b60 <readdir+0x94>
    4ae4:	e2846018 	add	r6, r4, #24	; 0x18
    4ae8:	e1a00006 	mov	r0, r6
    4aec:	ebfffffe 	bl	0 <_start>
    4af0:	e9940009 	ldmib	r4, {r0, r3}
    4af4:	e1530000 	cmp	r3, r0
    4af8:	8a0012c8 	bhi	4b28 <readdir+0x5c>
    4afc:	e5940000 	ldr	r0, [r4]
    4b00:	e594100c 	ldr	r1, [r4, #12]
    4b04:	e5942014 	ldr	r2, [r4, #20]
    4b08:	ebfffffe 	bl	0 <_start>
    4b0c:	e3500000 	cmp	r0, #0	; 0x0
    4b10:	e3a03000 	mov	r3, #0	; 0x0
    4b14:	d3a05000 	movle	r5, #0	; 0x0
    4b18:	da0012d2 	ble	4b50 <readdir+0x84>
    4b1c:	e5843004 	str	r3, [r4, #4]
    4b20:	e5840008 	str	r0, [r4, #8]
    4b24:	e1a00003 	mov	r0, r3
    4b28:	e594100c 	ldr	r1, [r4, #12]
    4b2c:	e0815000 	add	r5, r1, r0
    4b30:	e1d530b8 	ldrh	r3, [r5, #8]
    4b34:	e0803003 	add	r3, r0, r3
    4b38:	e5843004 	str	r3, [r4, #4]
    4b3c:	e5952004 	ldr	r2, [r5, #4]
    4b40:	e5842010 	str	r2, [r4, #16]
    4b44:	e7913000 	ldr	r3, [r1, r0]
    4b48:	e3530000 	cmp	r3, #0	; 0x0
    4b4c:	0a0012ba 	beq	4af0 <readdir+0x24>
    4b50:	e1a00006 	mov	r0, r6
    4b54:	ebfffffe 	bl	0 <_start>
    4b58:	e1a00005 	mov	r0, r5
    4b5c:	e91ba870 	ldmdb	fp, {r4, r5, r6, fp, sp, pc}
    4b60:	ebfffffe 	bl	0 <_start>
    4b64:	e3a03009 	mov	r3, #9	; 0x9
    4b68:	e1a02000 	mov	r2, r0
    4b6c:	e1a00004 	mov	r0, r4
    4b70:	e5823000 	str	r3, [r2]
    4b74:	e91ba870 	ldmdb	fp, {r4, r5, r6, fp, sp, pc}

00004b78 <__uClibc_init>:
    4b78:	e1a0c00d 	mov	ip, sp
    4b7c:	e92dd800 	stmdb	sp!, {fp, ip, lr, pc}
    4b80:	e59f2040 	ldr	r2, [pc, #40]	; 4bc8 <__uClibc_init+0x50>
    4b84:	e5923000 	ldr	r3, [r2]
    4b88:	e3530000 	cmp	r3, #0	; 0x0
    4b8c:	e24cb004 	sub	fp, ip, #4	; 0x4
    4b90:	e59f1034 	ldr	r1, [pc, #34]	; 4bcc <__uClibc_init+0x54>
    4b94:	e2833001 	add	r3, r3, #1	; 0x1
    4b98:	191ba800 	ldmnedb	fp, {fp, sp, pc}
    4b9c:	e3510000 	cmp	r1, #0	; 0x0
    4ba0:	e5823000 	str	r3, [r2]
    4ba4:	0a0012ea 	beq	4bb0 <__uClibc_init+0x38>
    4ba8:	e1a0e00f 	mov	lr, pc
    4bac:	e1a0f001 	mov	pc, r1
    4bb0:	e59f3018 	ldr	r3, [pc, #18]	; 4bd0 <__uClibc_init+0x58>
    4bb4:	e3530000 	cmp	r3, #0	; 0x0
    4bb8:	091ba800 	ldmeqdb	fp, {fp, sp, pc}
    4bbc:	e1a0e00f 	mov	lr, pc
    4bc0:	e1a0f003 	mov	pc, r3
    4bc4:	e91ba800 	ldmdb	fp, {fp, sp, pc}
    4bc8:	00001f90 	muleq	r0, r0, pc
	...

00004bd4 <__uClibc_start_main>:
    4bd4:	e1a0c00d 	mov	ip, sp
    4bd8:	e92dd9f0 	stmdb	sp!, {r4, r5, r6, r7, r8, fp, ip, lr, pc}
    4bdc:	e59fe090 	ldr	lr, [pc, #90]	; 4c74 <__uClibc_start_main+0xa0>
    4be0:	e24cb004 	sub	fp, ip, #4	; 0x4
    4be4:	e59ec000 	ldr	ip, [lr]
    4be8:	e1a06002 	mov	r6, r2
    4bec:	e35c0000 	cmp	ip, #0	; 0x0
    4bf0:	e59b5004 	ldr	r5, [fp, #4]
    4bf4:	058e6000 	streq	r6, [lr]
    4bf8:	e1a08000 	mov	r8, r0
    4bfc:	e1a07001 	mov	r7, r1
    4c00:	e1a04003 	mov	r4, r3
    4c04:	ebfffffe 	bl	0 <_start>
    4c08:	e3550000 	cmp	r5, #0	; 0x0
    4c0c:	0a001304 	beq	4c18 <__uClibc_start_main+0x44>
    4c10:	e1a00005 	mov	r0, r5
    4c14:	ebfffffe 	bl	0 <_start>
    4c18:	e3540000 	cmp	r4, #0	; 0x0
    4c1c:	0a001308 	beq	4c28 <__uClibc_start_main+0x54>
    4c20:	e1a0e00f 	mov	lr, pc
    4c24:	e1a0f004 	mov	pc, r4
    4c28:	e59f3048 	ldr	r3, [pc, #48]	; 4c78 <__uClibc_start_main+0xa4>
    4c2c:	e3530000 	cmp	r3, #0	; 0x0
    4c30:	0a00130f 	beq	4c44 <__uClibc_start_main+0x70>
    4c34:	e1a0e00f 	mov	lr, pc
    4c38:	e1a0f003 	mov	pc, r3
    4c3c:	e3a03000 	mov	r3, #0	; 0x0
    4c40:	e5803000 	str	r3, [r0]
    4c44:	e59f3030 	ldr	r3, [pc, #30]	; 4c7c <__uClibc_start_main+0xa8>
    4c48:	e3530000 	cmp	r3, #0	; 0x0
    4c4c:	0a001316 	beq	4c60 <__uClibc_start_main+0x8c>
    4c50:	e1a0e00f 	mov	lr, pc
    4c54:	e1a0f003 	mov	pc, r3
    4c58:	e3a03000 	mov	r3, #0	; 0x0
    4c5c:	e5803000 	str	r3, [r0]
    4c60:	e1a01007 	mov	r1, r7
    4c64:	e1a02006 	mov	r2, r6
    4c68:	e1a00008 	mov	r0, r8
    4c6c:	ebfffffe 	bl	0 <_start>
    4c70:	ebfffffe 	bl	0 <_start>
	...

00004c80 <__uClibc_main>:
    4c80:	e1a0c00d 	mov	ip, sp
    4c84:	e92dd800 	stmdb	sp!, {fp, ip, lr, pc}
    4c88:	e24cb004 	sub	fp, ip, #4	; 0x4
    4c8c:	e3a0c000 	mov	ip, #0	; 0x0
    4c90:	e24dd004 	sub	sp, sp, #4	; 0x4
    4c94:	e1a0300c 	mov	r3, ip
    4c98:	e58dc000 	str	ip, [sp]
    4c9c:	ebfffffe 	bl	0 <_start>

00004ca0 <__errno_location>:
    4ca0:	e59f0000 	ldr	r0, [pc, #0]	; 4ca8 <__errno_location+0x8>
    4ca4:	e1a0f00e 	mov	pc, lr
    4ca8:	00000000 	andeq	r0, r0, r0

00004cac <__h_errno_location>:
    4cac:	e59f0000 	ldr	r0, [pc, #0]	; 4cb4 <__h_errno_location+0x8>
    4cb0:	e1a0f00e 	mov	pc, lr
    4cb4:	00000000 	andeq	r0, r0, r0

00004cb8 <asctime>:
    4cb8:	e52de004 	str	lr, [sp, -#4]!
    4cbc:	e59f1004 	ldr	r1, [pc, #4]	; 4cc8 <asctime+0x10>
    4cc0:	e49de004 	ldr	lr, [sp], #4
    4cc4:	eafffffe 	b	0 <_start>
    4cc8:	0000056d 	andeq	r0, r0, sp, ror #10

00004ccc <asctime_r>:
    4ccc:	e1a0c00d 	mov	ip, sp
    4cd0:	e92dd870 	stmdb	sp!, {r4, r5, r6, fp, ip, lr, pc}
    4cd4:	e59f5124 	ldr	r5, [pc, #124]	; 4e00 <asctime_r+0x134>
    4cd8:	e1a04001 	mov	r4, r1
    4cdc:	e1a06000 	mov	r6, r0
    4ce0:	e1a01005 	mov	r1, r5
    4ce4:	e1a00004 	mov	r0, r4
    4ce8:	e3a0201a 	mov	r2, #26	; 0x1a
    4cec:	e24cb004 	sub	fp, ip, #4	; 0x4
    4cf0:	ebfffffe 	bl	0 <_start>
    4cf4:	e5963018 	ldr	r3, [r6, #24]
    4cf8:	e3530006 	cmp	r3, #6	; 0x6
    4cfc:	8a001344 	bhi	4d18 <asctime_r+0x4c>
    4d00:	e0831083 	add	r1, r3, r3, lsl #1
    4d04:	e2453039 	sub	r3, r5, #57	; 0x39
    4d08:	e0811003 	add	r1, r1, r3
    4d0c:	e1a00004 	mov	r0, r4
    4d10:	e3a02003 	mov	r2, #3	; 0x3
    4d14:	ebfffffe 	bl	0 <_start>
    4d18:	e5963010 	ldr	r3, [r6, #16]
    4d1c:	e353000b 	cmp	r3, #11	; 0xb
    4d20:	8a00134d 	bhi	4d3c <asctime_r+0x70>
    4d24:	e0831083 	add	r1, r3, r3, lsl #1
    4d28:	e2453024 	sub	r3, r5, #36	; 0x24
    4d2c:	e0811003 	add	r1, r1, r3
    4d30:	e2840004 	add	r0, r4, #4	; 0x4
    4d34:	e3a02003 	mov	r2, #3	; 0x3
    4d38:	ebfffffe 	bl	0 <_start>
    4d3c:	e5962014 	ldr	r2, [r6, #20]
    4d40:	e3a03c27 	mov	r3, #9984	; 0x2700
    4d44:	e2820e76 	add	r0, r2, #1888	; 0x760
    4d48:	e280000c 	add	r0, r0, #12	; 0xc
    4d4c:	e283300f 	add	r3, r3, #15	; 0xf
    4d50:	e1500003 	cmp	r0, r3
    4d54:	e2844013 	add	r4, r4, #19	; 0x13
    4d58:	8a001362 	bhi	4d90 <asctime_r+0xc4>
    4d5c:	e59fc0a0 	ldr	ip, [pc, #a0]	; 4e04 <asctime_r+0x138>
    4d60:	e2844004 	add	r4, r4, #4	; 0x4
    4d64:	e0c2109c 	smull	r1, r2, ip, r0
    4d68:	e1a01fc0 	mov	r1, r0, asr #31
    4d6c:	e0611142 	rsb	r1, r1, r2, asr #2
    4d70:	e0813101 	add	r3, r1, r1, lsl #2
    4d74:	e0403083 	sub	r3, r0, r3, lsl #1
    4d78:	e2833030 	add	r3, r3, #48	; 0x30
    4d7c:	e5c43000 	strb	r3, [r4]
    4d80:	e5742001 	ldrb	r2, [r4, -#1]!
    4d84:	e352003f 	cmp	r2, #63	; 0x3f
    4d88:	e1a00001 	mov	r0, r1
    4d8c:	0a001357 	beq	4d64 <asctime_r+0x98>
    4d90:	e59fe06c 	ldr	lr, [pc, #6c]	; 4e04 <asctime_r+0x138>
    4d94:	e3a0c03f 	mov	ip, #63	; 0x3f
    4d98:	e5743001 	ldrb	r3, [r4, -#1]!
    4d9c:	e7960003 	ldr	r0, [r6, r3]
    4da0:	e3500063 	cmp	r0, #99	; 0x63
    4da4:	e1a02fc0 	mov	r2, r0, asr #31
    4da8:	85c4c000 	strhib	ip, [r4]
    4dac:	8544c001 	strhib	ip, [r4, -#1]
    4db0:	8a001374 	bhi	4dd8 <asctime_r+0x10c>
    4db4:	e0c3109e 	smull	r1, r3, lr, r0
    4db8:	e0623143 	rsb	r3, r2, r3, asr #2
    4dbc:	e5541001 	ldrb	r1, [r4, -#1]
    4dc0:	e0832103 	add	r2, r3, r3, lsl #2
    4dc4:	e0402082 	sub	r2, r0, r2, lsl #1
    4dc8:	e0811003 	add	r1, r1, r3
    4dcc:	e2822030 	add	r2, r2, #48	; 0x30
    4dd0:	e5c42000 	strb	r2, [r4]
    4dd4:	e5441001 	strb	r1, [r4, -#1]
    4dd8:	e2444002 	sub	r4, r4, #2	; 0x2
    4ddc:	e5543002 	ldrb	r3, [r4, -#2]
    4de0:	e3530030 	cmp	r3, #48	; 0x30
    4de4:	0a001364 	beq	4d98 <asctime_r+0xcc>
    4de8:	e5f43001 	ldrb	r3, [r4, #1]!
    4dec:	e3530030 	cmp	r3, #48	; 0x30
    4df0:	03a03020 	moveq	r3, #32	; 0x20
    4df4:	e2440008 	sub	r0, r4, #8	; 0x8
    4df8:	05c43000 	streqb	r3, [r4]
    4dfc:	e91ba870 	ldmdb	fp, {r4, r5, r6, fp, sp, pc}
    4e00:	00000a31 	andeq	r0, r0, r1, lsr sl
    4e04:	66666667 	strvsbt	r6, [r6], -r7, ror #12

00004e08 <ctime>:
    4e08:	e1a0c00d 	mov	ip, sp
    4e0c:	e92dd800 	stmdb	sp!, {fp, ip, lr, pc}
    4e10:	e24cb004 	sub	fp, ip, #4	; 0x4
    4e14:	ebfffffe 	bl	0 <_start>
    4e18:	e91b6800 	ldmdb	fp, {fp, sp, lr}
    4e1c:	eafffffe 	b	0 <_start>

00004e20 <localtime>:
    4e20:	e1a0c00d 	mov	ip, sp
    4e24:	e92dd810 	stmdb	sp!, {r4, fp, ip, lr, pc}
    4e28:	e59f4010 	ldr	r4, [pc, #10]	; 4e40 <localtime+0x20>
    4e2c:	e1a01004 	mov	r1, r4
    4e30:	e24cb004 	sub	fp, ip, #4	; 0x4
    4e34:	ebfffffe 	bl	0 <_start>
    4e38:	e1a00004 	mov	r0, r4
    4e3c:	e91ba810 	ldmdb	fp, {r4, fp, sp, pc}
    4e40:	00000000 	andeq	r0, r0, r0

00004e44 <tm_isdst>:
    4e44:	e92d47f0 	stmdb	sp!, {r4, r5, r6, r7, r8, r9, sl, lr}
    4e48:	e59f6224 	ldr	r6, [pc, #224]	; 5074 <tm_isdst+0x230>
    4e4c:	e5d63028 	ldrb	r3, [r6, #40]
    4e50:	e24dd004 	sub	sp, sp, #4	; 0x4
    4e54:	e3a08000 	mov	r8, #0	; 0x0
    4e58:	e3530000 	cmp	r3, #0	; 0x0
    4e5c:	e1a0c000 	mov	ip, r0
    4e60:	e58d8000 	str	r8, [sp]
    4e64:	0a0013de 	beq	4f80 <tm_isdst+0x13c>
    4e68:	e59c0014 	ldr	r0, [ip, #20]
    4e6c:	e59f4204 	ldr	r4, [pc, #204]	; 5078 <tm_isdst+0x234>
    4e70:	e0c12094 	smull	r2, r1, r4, r0
    4e74:	e1a03fc0 	mov	r3, r0, asr #31
    4e78:	e06333c1 	rsb	r3, r3, r1, asr #7
    4e7c:	e59c201c 	ldr	r2, [ip, #28]
    4e80:	e0833103 	add	r3, r3, r3, lsl #2
    4e84:	e59c1008 	ldr	r1, [ip, #8]
    4e88:	e0822082 	add	r2, r2, r2, lsl #1
    4e8c:	e0833103 	add	r3, r3, r3, lsl #2
    4e90:	e0811182 	add	r1, r1, r2, lsl #3
    4e94:	e0400203 	sub	r0, r0, r3, lsl #4
    4e98:	e59c2004 	ldr	r2, [ip, #4]
    4e9c:	e0611201 	rsb	r1, r1, r1, lsl #4
    4ea0:	e280ee76 	add	lr, r0, #1888	; 0x760
    4ea4:	e0822101 	add	r2, r2, r1, lsl #2
    4ea8:	e59c3000 	ldr	r3, [ip]
    4eac:	e28ee00c 	add	lr, lr, #12	; 0xc
    4eb0:	e0622202 	rsb	r2, r2, r2, lsl #4
    4eb4:	e31e0003 	tst	lr, #3	; 0x3
    4eb8:	e083a102 	add	sl, r3, r2, lsl #2
    4ebc:	e1a09008 	mov	r9, r8
    4ec0:	0a00140c 	beq	5038 <tm_isdst+0x1f4>
    4ec4:	e59f31ac 	ldr	r3, [pc, #1ac]	; 5078 <tm_isdst+0x234>
    4ec8:	e24ee001 	sub	lr, lr, #1	; 0x1
    4ecc:	e0c04e93 	smull	r4, r0, r3, lr
    4ed0:	e1a02fce 	mov	r2, lr, asr #31
    4ed4:	e08e3f22 	add	r3, lr, r2, lsr #30
    4ed8:	e06212c0 	rsb	r1, r2, r0, asr #5
    4edc:	e08e3143 	add	r3, lr, r3, asr #2
    4ee0:	e06223c0 	rsb	r2, r2, r0, asr #7
    4ee4:	e0613003 	rsb	r3, r1, r3
    4ee8:	e0833002 	add	r3, r3, r2
    4eec:	e59f1188 	ldr	r1, [pc, #188]	; 507c <tm_isdst+0x238>
    4ef0:	e2833001 	add	r3, r3, #1	; 0x1
    4ef4:	e0c20391 	smull	r0, r2, r1, r3
    4ef8:	e1a01fc3 	mov	r1, r3, asr #31
    4efc:	e0822003 	add	r2, r2, r3
    4f00:	e0617142 	rsb	r7, r1, r2, asr #2
    4f04:	e0670187 	rsb	r0, r7, r7, lsl #3
    4f08:	e0607003 	rsb	r7, r0, r3
    4f0c:	e3a0e000 	mov	lr, #0	; 0x0
    4f10:	e1d630fe 	ldrsh	r3, [r6, #14]
    4f14:	e1d600f8 	ldrsh	r0, [r6, #8]
    4f18:	e353004a 	cmp	r3, #74	; 0x4a
    4f1c:	e1a05000 	mov	r5, r0
    4f20:	0a001406 	beq	5020 <tm_isdst+0x1dc>
    4f24:	e353004d 	cmp	r3, #77	; 0x4d
    4f28:	0a0013e2 	beq	4f90 <tm_isdst+0x14c>
    4f2c:	e35e0000 	cmp	lr, #0	; 0x0
    4f30:	0a0013d2 	beq	4f50 <tm_isdst+0x10c>
    4f34:	e5163018 	ldr	r3, [r6, -#24]
    4f38:	e5962000 	ldr	r2, [r6]
    4f3c:	e59d1000 	ldr	r1, [sp]
    4f40:	e0623003 	rsb	r3, r2, r3
    4f44:	e1510000 	cmp	r1, r0
    4f48:	e08aa003 	add	sl, sl, r3
    4f4c:	c2888001 	addgt	r8, r8, #1	; 0x1
    4f50:	e0803080 	add	r3, r0, r0, lsl #1
    4f54:	e5962004 	ldr	r2, [r6, #4]
    4f58:	e0633203 	rsb	r3, r3, r3, lsl #4
    4f5c:	e0633203 	rsb	r3, r3, r3, lsl #4
    4f60:	e0822383 	add	r2, r2, r3, lsl #7
    4f64:	e15a0002 	cmp	sl, r2
    4f68:	e28ee001 	add	lr, lr, #1	; 0x1
    4f6c:	a2888001 	addge	r8, r8, #1	; 0x1
    4f70:	e35e0001 	cmp	lr, #1	; 0x1
    4f74:	e58d0000 	str	r0, [sp]
    4f78:	e2866018 	add	r6, r6, #24	; 0x18
    4f7c:	da0013c2 	ble	4f10 <tm_isdst+0xcc>
    4f80:	e2080001 	and	r0, r8, #1	; 0x1
    4f84:	e28dd004 	add	sp, sp, #4	; 0x4
    4f88:	e8bd87f0 	ldmia	sp!, {r4, r5, r6, r7, r8, r9, sl, pc}
    4f8c:	e1a0f00e 	mov	pc, lr
    4f90:	e1d610fc 	ldrsh	r1, [r6, #12]
    4f94:	e59f40e4 	ldr	r4, [pc, #e4]	; 5080 <tm_isdst+0x23c>
    4f98:	e2413001 	sub	r3, r1, #1	; 0x1
    4f9c:	e7d4c003 	ldrb	ip, [r4, r3]
    4fa0:	e0612281 	rsb	r2, r1, r1, lsl #5
    4fa4:	e06c0002 	rsb	r0, ip, r2
    4fa8:	e350003a 	cmp	r0, #58	; 0x3a
    4fac:	d3a03000 	movle	r3, #0	; 0x0
    4fb0:	c2093001 	andgt	r3, r9, #1	; 0x1
    4fb4:	e3530000 	cmp	r3, #0	; 0x0
    4fb8:	e7d43001 	ldrb	r3, [r4, r1]
    4fbc:	12800001 	addne	r0, r0, #1	; 0x1
    4fc0:	e063200c 	rsb	r2, r3, ip
    4fc4:	e3590000 	cmp	r9, #0	; 0x0
    4fc8:	e282c01f 	add	ip, r2, #31	; 0x1f
    4fcc:	0a0013f5 	beq	4fdc <tm_isdst+0x198>
    4fd0:	e1d630fc 	ldrsh	r3, [r6, #12]
    4fd4:	e3530001 	cmp	r3, #1	; 0x1
    4fd8:	c282c020 	addgt	ip, r2, #32	; 0x20
    4fdc:	e59f3098 	ldr	r3, [pc, #98]	; 507c <tm_isdst+0x238>
    4fe0:	e0872000 	add	r2, r7, r0
    4fe4:	e0c14293 	smull	r4, r1, r3, r2
    4fe8:	e1a03fc2 	mov	r3, r2, asr #31
    4fec:	e0811002 	add	r1, r1, r2
    4ff0:	e0633141 	rsb	r3, r3, r1, asr #2
    4ff4:	e0633183 	rsb	r3, r3, r3, lsl #3
    4ff8:	e0632002 	rsb	r2, r3, r2
    4ffc:	e1d630fa 	ldrsh	r3, [r6, #10]
    5000:	e0552002 	subs	r2, r5, r2
    5004:	52422007 	subpl	r2, r2, #7	; 0x7
    5008:	e0633183 	rsb	r3, r3, r3, lsl #3
    500c:	e0822003 	add	r2, r2, r3
    5010:	e152000c 	cmp	r2, ip
    5014:	a2422007 	subge	r2, r2, #7	; 0x7
    5018:	e0800002 	add	r0, r0, r2
    501c:	ea0013c9 	b	4f2c <tm_isdst+0xe8>
    5020:	e2293001 	eor	r3, r9, #1	; 0x1
    5024:	e350003b 	cmp	r0, #59	; 0x3b
    5028:	d3833001 	orrle	r3, r3, #1	; 0x1
    502c:	e3530000 	cmp	r3, #0	; 0x0
    5030:	12400001 	subne	r0, r0, #1	; 0x1
    5034:	ea0013c9 	b	4f2c <tm_isdst+0xe8>
    5038:	e0c13e94 	smull	r3, r1, r4, lr
    503c:	e1a02fce 	mov	r2, lr, asr #31
    5040:	e06232c1 	rsb	r3, r2, r1, asr #5
    5044:	e0833103 	add	r3, r3, r3, lsl #2
    5048:	e0833103 	add	r3, r3, r3, lsl #2
    504c:	e15e0103 	cmp	lr, r3, lsl #2
    5050:	0a001415 	beq	505c <tm_isdst+0x218>
    5054:	e3a09001 	mov	r9, #1	; 0x1
    5058:	ea0013af 	b	4ec4 <tm_isdst+0x80>
    505c:	e06233c1 	rsb	r3, r2, r1, asr #7
    5060:	e0833103 	add	r3, r3, r3, lsl #2
    5064:	e0833103 	add	r3, r3, r3, lsl #2
    5068:	e15e0203 	cmp	lr, r3, lsl #4
    506c:	1a0013af 	bne	4ec4 <tm_isdst+0x80>
    5070:	ea001413 	b	5054 <tm_isdst+0x210>
    5074:	00000000 	andeq	r0, r0, r0
    5078:	51eb851f 	mvnpl	r8, pc, lsl r5
    507c:	92492493 	subls	r2, r9, #-1828716544	; 0x93000000
    5080:	00000a4b 	andeq	r0, r0, fp, asr #20

00005084 <localtime_r>:
    5084:	e1a0c00d 	mov	ip, sp
    5088:	e92dd9f0 	stmdb	sp!, {r4, r5, r6, r7, r8, fp, ip, lr, pc}
    508c:	e24cb004 	sub	fp, ip, #4	; 0x4
    5090:	e24dd004 	sub	sp, sp, #4	; 0x4
    5094:	e1a07000 	mov	r7, r0
    5098:	e59f008c 	ldr	r0, [pc, #8c]	; 512c <localtime_r+0xa8>
    509c:	e1a04001 	mov	r4, r1
    50a0:	ebfffffe 	bl	0 <_start>
    50a4:	ebfffffe 	bl	0 <_start>
    50a8:	e59f6080 	ldr	r6, [pc, #80]	; 5130 <localtime_r+0xac>
    50ac:	e3a05000 	mov	r5, #0	; 0x0
    50b0:	e24b8024 	sub	r8, fp, #36	; 0x24
    50b4:	e3e03102 	mvn	r3, #-2147483648	; 0x80000000
    50b8:	e5961000 	ldr	r1, [r6]
    50bc:	e597c000 	ldr	ip, [r7]
    50c0:	e2433a93 	sub	r3, r3, #602112	; 0x93000
    50c4:	e2433d2a 	sub	r3, r3, #2688	; 0xa80
    50c8:	e15c0003 	cmp	ip, r3
    50cc:	e2613a93 	rsb	r3, r1, #602112	; 0x93000
    50d0:	e2833d2a 	add	r3, r3, #2688	; 0xa80
    50d4:	c2633000 	rsbgt	r3, r3, #0	; 0x0
    50d8:	e3e01006 	mvn	r1, #6	; 0x6
    50dc:	c2611000 	rsbgt	r1, r1, #0	; 0x0
    50e0:	e08c3003 	add	r3, ip, r3
    50e4:	e1a02004 	mov	r2, r4
    50e8:	e1a00008 	mov	r0, r8
    50ec:	e50b3024 	str	r3, [fp, -#36]
    50f0:	ebfffffe 	bl	0 <_start>
    50f4:	e3550000 	cmp	r5, #0	; 0x0
    50f8:	e2866018 	add	r6, r6, #24	; 0x18
    50fc:	e1a00004 	mov	r0, r4
    5100:	15845020 	strne	r5, [r4, #32]
    5104:	1a001445 	bne	511c <localtime_r+0x98>
    5108:	eb00138f 	bl	4e44 <tm_isdst>
    510c:	e3500000 	cmp	r0, #0	; 0x0
    5110:	e5840020 	str	r0, [r4, #32]
    5114:	e2855001 	add	r5, r5, #1	; 0x1
    5118:	1a00142b 	bne	50b4 <localtime_r+0x30>
    511c:	e59f0008 	ldr	r0, [pc, #8]	; 512c <localtime_r+0xa8>
    5120:	ebfffffe 	bl	0 <_start>
    5124:	e1a00004 	mov	r0, r4
    5128:	e91ba9f0 	ldmdb	fp, {r4, r5, r6, r7, r8, fp, sp, pc}
	...

00005134 <mktime>:
    5134:	e52de004 	str	lr, [sp, -#4]!
    5138:	e3a01001 	mov	r1, #1	; 0x1
    513c:	e49de004 	ldr	lr, [sp], #4
    5140:	eafffffe 	b	0 <_start>

00005144 <getoffset>:
    5144:	e1a0c00d 	mov	ip, sp
    5148:	e92dd9f0 	stmdb	sp!, {r4, r5, r6, r7, r8, fp, ip, lr, pc}
    514c:	e59f6080 	ldr	r6, [pc, #80]	; 51d4 <getoffset+0x90>
    5150:	e24cb004 	sub	fp, ip, #4	; 0x4
    5154:	e1a04000 	mov	r4, r0
    5158:	e1a08001 	mov	r8, r1
    515c:	e3a07000 	mov	r7, #0	; 0x0
    5160:	e3e05000 	mvn	r5, #0	; 0x0
    5164:	e5d40000 	ldrb	r0, [r4]
    5168:	ebfffffe 	bl	0 <_start>
    516c:	e3500000 	cmp	r0, #0	; 0x0
    5170:	14d43001 	ldrneb	r3, [r4], #1
    5174:	e5d40000 	ldrb	r0, [r4]
    5178:	12435030 	subne	r5, r3, #48	; 0x30
    517c:	ebfffffe 	bl	0 <_start>
    5180:	e3500000 	cmp	r0, #0	; 0x0
    5184:	14d43001 	ldrneb	r3, [r4], #1
    5188:	e0852105 	add	r2, r5, r5, lsl #2
    518c:	e2866001 	add	r6, r6, #1	; 0x1
    5190:	10833082 	addne	r3, r3, r2, lsl #1
    5194:	e5d62000 	ldrb	r2, [r6]
    5198:	12435030 	subne	r5, r3, #48	; 0x30
    519c:	e1550002 	cmp	r5, r2
    51a0:	23a00000 	movcs	r0, #0	; 0x0
    51a4:	291ba9f0 	ldmcsdb	fp, {r4, r5, r6, r7, r8, fp, sp, pc}
    51a8:	e5d43000 	ldrb	r3, [r4]
    51ac:	e0275792 	mla	r7, r2, r7, r5
    51b0:	e353003a 	cmp	r3, #58	; 0x3a
    51b4:	e3a05000 	mov	r5, #0	; 0x0
    51b8:	02844001 	addeq	r4, r4, #1	; 0x1
    51bc:	02455001 	subeq	r5, r5, #1	; 0x1
    51c0:	e3520001 	cmp	r2, #1	; 0x1
    51c4:	8a001457 	bhi	5164 <getoffset+0x20>
    51c8:	e5887000 	str	r7, [r8]
    51cc:	e1a00004 	mov	r0, r4
    51d0:	e91ba9f0 	ldmdb	fp, {r4, r5, r6, r7, r8, fp, sp, pc}
    51d4:	00000a5e 	andeq	r0, r0, lr, asr sl

000051d8 <getnumber>:
    51d8:	e1a0c00d 	mov	ip, sp
    51dc:	e92dd8f0 	stmdb	sp!, {r4, r5, r6, r7, fp, ip, lr, pc}
    51e0:	e24cb004 	sub	fp, ip, #4	; 0x4
    51e4:	e1a04000 	mov	r4, r0
    51e8:	e1a07001 	mov	r7, r1
    51ec:	e3a06003 	mov	r6, #3	; 0x3
    51f0:	e3a05000 	mov	r5, #0	; 0x0
    51f4:	e3560000 	cmp	r6, #0	; 0x0
    51f8:	0a001487 	beq	5224 <getnumber+0x4c>
    51fc:	e5d40000 	ldrb	r0, [r4]
    5200:	ebfffffe 	bl	0 <_start>
    5204:	e3500000 	cmp	r0, #0	; 0x0
    5208:	e0852105 	add	r2, r5, r5, lsl #2
    520c:	0a001487 	beq	5224 <getnumber+0x4c>
    5210:	e4d43001 	ldrb	r3, [r4], #1
    5214:	e0833082 	add	r3, r3, r2, lsl #1
    5218:	e2466001 	sub	r6, r6, #1	; 0x1
    521c:	e2435030 	sub	r5, r3, #48	; 0x30
    5220:	ea00147b 	b	51f4 <getnumber+0x1c>
    5224:	e3560003 	cmp	r6, #3	; 0x3
    5228:	11a00004 	movne	r0, r4
    522c:	03a00000 	moveq	r0, #0	; 0x0
    5230:	e5875000 	str	r5, [r7]
    5234:	e91ba8f0 	ldmdb	fp, {r4, r5, r6, r7, fp, sp, pc}

00005238 <read_TZ_file>:
    5238:	e1a0c00d 	mov	ip, sp
    523c:	e92dd8f0 	stmdb	sp!, {r4, r5, r6, r7, fp, ip, lr, pc}
    5240:	e3a05000 	mov	r5, #0	; 0x0
    5244:	e1a07000 	mov	r7, r0
    5248:	e1a01005 	mov	r1, r5
    524c:	e59f0074 	ldr	r0, [pc, #74]	; 52c8 <read_TZ_file+0x90>
    5250:	e24cb004 	sub	fp, ip, #4	; 0x4
    5254:	ebfffffe 	bl	0 <_start>
    5258:	e1a06000 	mov	r6, r0
    525c:	e1560005 	cmp	r6, r5
    5260:	ba0014ae 	blt	52c0 <read_TZ_file+0x88>
    5264:	e3a04044 	mov	r4, #68	; 0x44
    5268:	e1a05007 	mov	r5, r7
    526c:	e1a01005 	mov	r1, r5
    5270:	e1a02004 	mov	r2, r4
    5274:	e1a00006 	mov	r0, r6
    5278:	ebfffffe 	bl	0 <_start>
    527c:	e3500000 	cmp	r0, #0	; 0x0
    5280:	ba0014ab 	blt	52b4 <read_TZ_file+0x7c>
    5284:	0a0014a3 	beq	5294 <read_TZ_file+0x5c>
    5288:	e0544000 	subs	r4, r4, r0
    528c:	e0855000 	add	r5, r5, r0
    5290:	1a001499 	bne	526c <read_TZ_file+0x34>
    5294:	e1550007 	cmp	r5, r7
    5298:	9a0014ab 	bls	52b4 <read_TZ_file+0x7c>
    529c:	e5553001 	ldrb	r3, [r5, -#1]
    52a0:	e353000a 	cmp	r3, #10	; 0xa
    52a4:	03a03000 	moveq	r3, #0	; 0x0
    52a8:	05453001 	streqb	r3, [r5, -#1]
    52ac:	01a05007 	moveq	r5, r7
    52b0:	0a0014ac 	beq	52b8 <read_TZ_file+0x80>
    52b4:	e3a05000 	mov	r5, #0	; 0x0
    52b8:	e1a00006 	mov	r0, r6
    52bc:	ebfffffe 	bl	0 <_start>
    52c0:	e1a00005 	mov	r0, r5
    52c4:	e91ba8f0 	ldmdb	fp, {r4, r5, r6, r7, fp, sp, pc}
    52c8:	00000a80 	andeq	r0, r0, r0, lsl #21

000052cc <tzset>:
    52cc:	e1a0c00d 	mov	ip, sp
    52d0:	e92ddff0 	stmdb	sp!, {r4, r5, r6, r7, r8, r9, sl, fp, ip, lr, pc}
    52d4:	e59f039c 	ldr	r0, [pc, #39c]	; 5678 <tzset+0x3ac>
    52d8:	e24cb004 	sub	fp, ip, #4	; 0x4
    52dc:	e24dd07c 	sub	sp, sp, #124	; 0x7c
    52e0:	ebfffffe 	bl	0 <_start>
    52e4:	e59f0390 	ldr	r0, [pc, #390]	; 567c <tzset+0x3b0>
    52e8:	ebfffffe 	bl	0 <_start>
    52ec:	e1a04000 	mov	r4, r0
    52f0:	e3540000 	cmp	r4, #0	; 0x0
    52f4:	0a001596 	beq	5660 <tzset+0x394>
    52f8:	e5d43000 	ldrb	r3, [r4]
    52fc:	e3530000 	cmp	r3, #0	; 0x0
    5300:	0a0014f9 	beq	53ec <tzset+0x120>
    5304:	e353003a 	cmp	r3, #58	; 0x3a
    5308:	e59f5370 	ldr	r5, [pc, #370]	; 5680 <tzset+0x3b4>
    530c:	02844001 	addeq	r4, r4, #1	; 0x1
    5310:	e1a00004 	mov	r0, r4
    5314:	e1a01005 	mov	r1, r5
    5318:	ebfffffe 	bl	0 <_start>
    531c:	e3500000 	cmp	r0, #0	; 0x0
    5320:	0a001514 	beq	5458 <tzset+0x18c>
    5324:	e3a02044 	mov	r2, #68	; 0x44
    5328:	e1a00005 	mov	r0, r5
    532c:	e1a01004 	mov	r1, r4
    5330:	ebfffffe 	bl	0 <_start>
    5334:	e3a0a000 	mov	sl, #0	; 0x0
    5338:	e54ba030 	strb	sl, [fp, -#48]
    533c:	e5d42000 	ldrb	r2, [r4]
    5340:	e1a0808a 	mov	r8, sl, lsl #1
    5344:	e352003c 	cmp	r2, #60	; 0x3c
    5348:	e088300a 	add	r3, r8, sl
    534c:	e24b1058 	sub	r1, fp, #88	; 0x58
    5350:	e3a06000 	mov	r6, #0	; 0x0
    5354:	e0813183 	add	r3, r1, r3, lsl #3
    5358:	05f42001 	ldreqb	r2, [r4, #1]!
    535c:	0286603e 	addeq	r6, r6, #62	; 0x3e
    5360:	e2835010 	add	r5, r3, #16	; 0x10
    5364:	e3a07000 	mov	r7, #0	; 0x0
    5368:	e3520000 	cmp	r2, #0	; 0x0
    536c:	0a0014f0 	beq	53c8 <tzset+0xfc>
    5370:	e5d40000 	ldrb	r0, [r4]
    5374:	ebfffffe 	bl	0 <_start>
    5378:	e3500000 	cmp	r0, #0	; 0x0
    537c:	0a0014f0 	beq	53c8 <tzset+0xfc>
    5380:	e5d40000 	ldrb	r0, [r4]
    5384:	ebfffffe 	bl	0 <_start>
    5388:	e3500000 	cmp	r0, #0	; 0x0
    538c:	15d42000 	ldrneb	r2, [r4]
    5390:	1a00158f 	bne	5644 <tzset+0x378>
    5394:	e3560000 	cmp	r6, #0	; 0x0
    5398:	0a0014f0 	beq	53c8 <tzset+0xfc>
    539c:	e5d40000 	ldrb	r0, [r4]
    53a0:	ebfffffe 	bl	0 <_start>
    53a4:	e3500000 	cmp	r0, #0	; 0x0
    53a8:	15d42000 	ldrneb	r2, [r4]
    53ac:	1a00158f 	bne	5644 <tzset+0x378>
    53b0:	e5d42000 	ldrb	r2, [r4]
    53b4:	e20230ff 	and	r3, r2, #255	; 0xff
    53b8:	e353002b 	cmp	r3, #43	; 0x2b
    53bc:	0a00158f 	beq	5644 <tzset+0x378>
    53c0:	e353002d 	cmp	r3, #45	; 0x2d
    53c4:	0a00158f 	beq	5644 <tzset+0x378>
    53c8:	e3a03000 	mov	r3, #0	; 0x0
    53cc:	e3570002 	cmp	r7, #2	; 0x2
    53d0:	e5c53000 	strb	r3, [r5]
    53d4:	da0014f9 	ble	53ec <tzset+0x120>
    53d8:	e1560003 	cmp	r6, r3
    53dc:	0a001517 	beq	5464 <tzset+0x198>
    53e0:	e4d43001 	ldrb	r3, [r4], #1
    53e4:	e1530006 	cmp	r3, r6
    53e8:	0a001517 	beq	5464 <tzset+0x198>
    53ec:	e59f4290 	ldr	r4, [pc, #290]	; 5684 <tzset+0x3b8>
    53f0:	e59f3288 	ldr	r3, [pc, #288]	; 5680 <tzset+0x3b4>
    53f4:	e3a01000 	mov	r1, #0	; 0x0
    53f8:	e5c31000 	strb	r1, [r3]
    53fc:	e1a05004 	mov	r5, r4
    5400:	e3a03055 	mov	r3, #85	; 0x55
    5404:	e4c53001 	strb	r3, [r5], #1
    5408:	e3a02043 	mov	r2, #67	; 0x43
    540c:	e2855001 	add	r5, r5, #1	; 0x1
    5410:	e2433001 	sub	r3, r3, #1	; 0x1
    5414:	e5c43001 	strb	r3, [r4, #1]
    5418:	e4c52001 	strb	r2, [r5], #1
    541c:	e5051013 	str	r1, [r5, -#19]
    5420:	e5c51015 	strb	r1, [r5, #21]
    5424:	e5c51000 	strb	r1, [r5]
    5428:	e59f2258 	ldr	r2, [pc, #258]	; 5688 <tzset+0x3bc>
    542c:	e2843018 	add	r3, r4, #24	; 0x18
    5430:	e5824000 	str	r4, [r2]
    5434:	e5823004 	str	r3, [r2, #4]
    5438:	e5d43018 	ldrb	r3, [r4, #24]
    543c:	e5140010 	ldr	r0, [r4, -#16]
    5440:	e59f2244 	ldr	r2, [pc, #244]	; 568c <tzset+0x3c0>
    5444:	e59f1244 	ldr	r1, [pc, #244]	; 5690 <tzset+0x3c4>
    5448:	e2533000 	subs	r3, r3, #0	; 0x0
    544c:	13a03001 	movne	r3, #1	; 0x1
    5450:	e5823000 	str	r3, [r2]
    5454:	e5810000 	str	r0, [r1]
    5458:	e59f0218 	ldr	r0, [pc, #218]	; 5678 <tzset+0x3ac>
    545c:	ebfffffe 	bl	0 <_start>
    5460:	e91baff0 	ldmdb	fp, {r4, r5, r6, r7, r8, r9, sl, fp, sp, pc}
    5464:	e5d43000 	ldrb	r3, [r4]
    5468:	e353002d 	cmp	r3, #45	; 0x2d
    546c:	1353002b 	cmpne	r3, #43	; 0x2b
    5470:	e1a05004 	mov	r5, r4
    5474:	0a001526 	beq	54a0 <tzset+0x1d4>
    5478:	e35a0000 	cmp	sl, #0	; 0x0
    547c:	0a001525 	beq	549c <tzset+0x1d0>
    5480:	e1a00003 	mov	r0, r3
    5484:	ebfffffe 	bl	0 <_start>
    5488:	e3500000 	cmp	r0, #0	; 0x0
    548c:	051b30a0 	ldreq	r3, [fp, -#160]
    5490:	02433ee1 	subeq	r3, r3, #3600	; 0xe10
    5494:	050b30a0 	streq	r3, [fp, -#160]
    5498:	0a001532 	beq	54d0 <tzset+0x204>
    549c:	e2444001 	sub	r4, r4, #1	; 0x1
    54a0:	e2844001 	add	r4, r4, #1	; 0x1
    54a4:	e1a00004 	mov	r0, r4
    54a8:	e24b10a0 	sub	r1, fp, #160	; 0xa0
    54ac:	eb00144f 	bl	5144 <getoffset>
    54b0:	e1a04000 	mov	r4, r0
    54b4:	e3540000 	cmp	r4, #0	; 0x0
    54b8:	0a0014f9 	beq	53ec <tzset+0x120>
    54bc:	e5d53000 	ldrb	r3, [r5]
    54c0:	e353002d 	cmp	r3, #45	; 0x2d
    54c4:	051b30a0 	ldreq	r3, [fp, -#160]
    54c8:	02633000 	rsbeq	r3, r3, #0	; 0x0
    54cc:	050b30a0 	streq	r3, [fp, -#160]
    54d0:	e51b20a0 	ldr	r2, [fp, -#160]
    54d4:	e088300a 	add	r3, r8, sl
    54d8:	e24b1058 	sub	r1, fp, #88	; 0x58
    54dc:	e35a0000 	cmp	sl, #0	; 0x0
    54e0:	e7812183 	str	r2, [r1, r3, lsl #3]
    54e4:	0a001589 	beq	562c <tzset+0x360>
    54e8:	e5d42000 	ldrb	r2, [r4]
    54ec:	e59f31a0 	ldr	r3, [pc, #1a0]	; 5694 <tzset+0x3c8>
    54f0:	e3520000 	cmp	r2, #0	; 0x0
    54f4:	01a04003 	moveq	r4, r3
    54f8:	e24b3058 	sub	r3, fp, #88	; 0x58
    54fc:	e3a0a000 	mov	sl, #0	; 0x0
    5500:	e1a08003 	mov	r8, r3
    5504:	e4d43001 	ldrb	r3, [r4], #1
    5508:	e353002c 	cmp	r3, #44	; 0x2c
    550c:	1a0014f9 	bne	53ec <tzset+0x120>
    5510:	e4d46001 	ldrb	r6, [r4], #1
    5514:	e3a07f5b 	mov	r7, #364	; 0x16c
    5518:	e356004d 	cmp	r6, #77	; 0x4d
    551c:	e2877001 	add	r7, r7, #1	; 0x1
    5520:	e59f5170 	ldr	r5, [pc, #170]	; 5698 <tzset+0x3cc>
    5524:	03a0700c 	moveq	r7, #12	; 0xc
    5528:	0a00154e 	beq	5540 <tzset+0x274>
    552c:	e356004a 	cmp	r6, #74	; 0x4a
    5530:	02855008 	addeq	r5, r5, #8	; 0x8
    5534:	12444001 	subne	r4, r4, #1	; 0x1
    5538:	13a06000 	movne	r6, #0	; 0x0
    553c:	12855006 	addne	r5, r5, #6	; 0x6
    5540:	e356004d 	cmp	r6, #77	; 0x4d
    5544:	e1c860be 	strh	r6, [r8, #14]
    5548:	e24b90a4 	sub	r9, fp, #164	; 0xa4
    554c:	e288600e 	add	r6, r8, #14	; 0xe
    5550:	1288600a 	addne	r6, r8, #10	; 0xa
    5554:	e1a00004 	mov	r0, r4
    5558:	e1a01009 	mov	r1, r9
    555c:	eb001474 	bl	51d8 <getnumber>
    5560:	e1a04000 	mov	r4, r0
    5564:	e3540000 	cmp	r4, #0	; 0x0
    5568:	e2855001 	add	r5, r5, #1	; 0x1
    556c:	0a0014f9 	beq	53ec <tzset+0x120>
    5570:	e5d52001 	ldrb	r2, [r5, #1]
    5574:	e51b30a4 	ldr	r3, [fp, -#164]
    5578:	e0623003 	rsb	r3, r2, r3
    557c:	e1530007 	cmp	r3, r7
    5580:	8a0014f9 	bhi	53ec <tzset+0x120>
    5584:	e5d52000 	ldrb	r2, [r5]
    5588:	e3520000 	cmp	r2, #0	; 0x0
    558c:	0a001565 	beq	559c <tzset+0x2d0>
    5590:	e4d43001 	ldrb	r3, [r4], #1
    5594:	e1530002 	cmp	r3, r2
    5598:	1a0014f9 	bne	53ec <tzset+0x120>
    559c:	e15b1ab4 	ldrh	r1, [fp, -#164]
    55a0:	e16610b2 	strh	r1, [r6, -#2]!
    55a4:	e5f57002 	ldrb	r7, [r5, #2]!
    55a8:	e3570000 	cmp	r7, #0	; 0x0
    55ac:	ca001553 	bgt	5554 <tzset+0x288>
    55b0:	e3a03b07 	mov	r3, #7168	; 0x1c00
    55b4:	e2833020 	add	r3, r3, #32	; 0x20
    55b8:	e50b30a0 	str	r3, [fp, -#160]
    55bc:	e5d42000 	ldrb	r2, [r4]
    55c0:	e352002f 	cmp	r2, #47	; 0x2f
    55c4:	0a001581 	beq	560c <tzset+0x340>
    55c8:	e51b30a0 	ldr	r3, [fp, -#160]
    55cc:	e28aa001 	add	sl, sl, #1	; 0x1
    55d0:	e35a0001 	cmp	sl, #1	; 0x1
    55d4:	e5883004 	str	r3, [r8, #4]
    55d8:	e2888018 	add	r8, r8, #24	; 0x18
    55dc:	da00153f 	ble	5504 <tzset+0x238>
    55e0:	e5d43000 	ldrb	r3, [r4]
    55e4:	e3530000 	cmp	r3, #0	; 0x0
    55e8:	1a0014f9 	bne	53ec <tzset+0x120>
    55ec:	e59f40a8 	ldr	r4, [pc, #a8]	; 569c <tzset+0x3d0>
    55f0:	e24b3058 	sub	r3, fp, #88	; 0x58
    55f4:	e1a00004 	mov	r0, r4
    55f8:	e1a01003 	mov	r1, r3
    55fc:	e3a02030 	mov	r2, #48	; 0x30
    5600:	ebfffffe 	bl	0 <_start>
    5604:	e2844010 	add	r4, r4, #16	; 0x10
    5608:	ea001508 	b	5428 <tzset+0x15c>
    560c:	e2844001 	add	r4, r4, #1	; 0x1
    5610:	e1a00004 	mov	r0, r4
    5614:	e24b10a0 	sub	r1, fp, #160	; 0xa0
    5618:	eb00144f 	bl	5144 <getoffset>
    561c:	e1a04000 	mov	r4, r0
    5620:	e3540000 	cmp	r4, #0	; 0x0
    5624:	1a001570 	bne	55c8 <tzset+0x2fc>
    5628:	ea0014f9 	b	53ec <tzset+0x120>
    562c:	e5d43000 	ldrb	r3, [r4]
    5630:	e1a02003 	mov	r2, r3
    5634:	e3520000 	cmp	r2, #0	; 0x0
    5638:	0a001579 	beq	55ec <tzset+0x320>
    563c:	e28aa001 	add	sl, sl, #1	; 0x1
    5640:	ea0014ce 	b	5340 <tzset+0x74>
    5644:	e2877001 	add	r7, r7, #1	; 0x1
    5648:	e3570006 	cmp	r7, #6	; 0x6
    564c:	e4c52001 	strb	r2, [r5], #1
    5650:	e2844001 	add	r4, r4, #1	; 0x1
    5654:	ca0014f9 	bgt	53ec <tzset+0x120>
    5658:	e5d42000 	ldrb	r2, [r4]
    565c:	ea0014d8 	b	5368 <tzset+0x9c>
    5660:	e24b009c 	sub	r0, fp, #156	; 0x9c
    5664:	eb00148c 	bl	5238 <read_TZ_file>
    5668:	e1a04000 	mov	r4, r0
    566c:	e3540000 	cmp	r4, #0	; 0x0
    5670:	1a0014bc 	bne	52f8 <tzset+0x2c>
    5674:	ea0014f9 	b	53ec <tzset+0x120>
    5678:	00000000 	andeq	r0, r0, r0
    567c:	00000a58 	andeq	r0, r0, r8, asr sl
    5680:	00000587 	andeq	r0, r0, r7, lsl #11
    5684:	00000010 	andeq	r0, r0, r0, lsl r0
	...
    5694:	00000a6e 	andeq	r0, r0, lr, ror #20
    5698:	00000a62 	andeq	r0, r0, r2, ror #20
    569c:	00000000 	andeq	r0, r0, r0

000056a0 <_time_t2tm>:
    56a0:	e1a0c00d 	mov	ip, sp
    56a4:	e92ddff0 	stmdb	sp!, {r4, r5, r6, r7, r8, r9, sl, fp, ip, lr, pc}
    56a8:	e1a0a002 	mov	sl, r2
    56ac:	e3a07000 	mov	r7, #0	; 0x0
    56b0:	e5904000 	ldr	r4, [r0]
    56b4:	e58a701c 	str	r7, [sl, #28]
    56b8:	e59f81ac 	ldr	r8, [pc, #1ac]	; 586c <_time_t2tm+0x1cc>
    56bc:	e24cb004 	sub	fp, ip, #4	; 0x4
    56c0:	e1a09001 	mov	r9, r1
    56c4:	e1a0600a 	mov	r6, sl
    56c8:	e1d850b0 	ldrh	r5, [r8]
    56cc:	e3550007 	cmp	r5, #7	; 0x7
    56d0:	0a00160a 	beq	5830 <_time_t2tm+0x190>
    56d4:	e1a00004 	mov	r0, r4
    56d8:	e1a01005 	mov	r1, r5
    56dc:	ebfffffe 	bl	0 <_start>
    56e0:	e0030095 	mul	r3, r5, r0
    56e4:	e0544003 	subs	r4, r4, r3
    56e8:	e1d830b0 	ldrh	r3, [r8]
    56ec:	40844005 	addmi	r4, r4, r5
    56f0:	42400001 	submi	r0, r0, #1	; 0x1
    56f4:	e3530007 	cmp	r3, #7	; 0x7
    56f8:	0a001603 	beq	5814 <_time_t2tm+0x174>
    56fc:	e1f830b2 	ldrh	r3, [r8, #2]!
    5700:	e355003c 	cmp	r5, #60	; 0x3c
    5704:	d4864004 	strle	r4, [r6], #4
    5708:	c4860004 	strgt	r0, [r6], #4
    570c:	d1a04000 	movle	r4, r0
    5710:	e3530000 	cmp	r3, #0	; 0x0
    5714:	1a0015b0 	bne	56c8 <_time_t2tm+0x28>
    5718:	e5163004 	ldr	r3, [r6, -#4]
    571c:	e3530004 	cmp	r3, #4	; 0x4
    5720:	02433001 	subeq	r3, r3, #1	; 0x1
    5724:	05063004 	streq	r3, [r6, -#4]
    5728:	03a04f5b 	moveq	r4, #364	; 0x16c
    572c:	e5963000 	ldr	r3, [r6]
    5730:	02844001 	addeq	r4, r4, #1	; 0x1
    5734:	e0833004 	add	r3, r3, r4
    5738:	e4063008 	str	r3, [r6], -#8
    573c:	e916000c 	ldmdb	r6, {r2, r3}
    5740:	e0833102 	add	r3, r3, r2, lsl #2
    5744:	e5961000 	ldr	r1, [r6]
    5748:	e0833103 	add	r3, r3, r3, lsl #2
    574c:	e5962004 	ldr	r2, [r6, #4]
    5750:	e0833103 	add	r3, r3, r3, lsl #2
    5754:	e0833001 	add	r3, r3, r1
    5758:	e0822103 	add	r2, r2, r3, lsl #2
    575c:	e2422f4a 	sub	r2, r2, #296	; 0x128
    5760:	e2422003 	sub	r2, r2, #3	; 0x3
    5764:	e5867004 	str	r7, [r6, #4]
    5768:	e2827e76 	add	r7, r2, #1888	; 0x760
    576c:	e287700c 	add	r7, r7, #12	; 0xc
    5770:	e3170003 	tst	r7, #3	; 0x3
    5774:	e5862000 	str	r2, [r6]
    5778:	e59f10f0 	ldr	r1, [pc, #f0]	; 5870 <_time_t2tm+0x1d0>
    577c:	0a0015f3 	beq	57d4 <_time_t2tm+0x134>
    5780:	e3a03000 	mov	r3, #0	; 0x0
    5784:	e5962008 	ldr	r2, [r6, #8]
    5788:	e5263004 	str	r3, [r6, -#4]!
    578c:	e5d13000 	ldrb	r3, [r1]
    5790:	e2827001 	add	r7, r2, #1	; 0x1
    5794:	e1570003 	cmp	r7, r3
    5798:	da0015ee 	ble	57c0 <_time_t2tm+0x120>
    579c:	e353001d 	cmp	r3, #29	; 0x1d
    57a0:	e0637007 	rsb	r7, r3, r7
    57a4:	e5963000 	ldr	r3, [r6]
    57a8:	e2833001 	add	r3, r3, #1	; 0x1
    57ac:	e5863000 	str	r3, [r6]
    57b0:	0241100b 	subeq	r1, r1, #11	; 0xb
    57b4:	e5f13001 	ldrb	r3, [r1, #1]!
    57b8:	e1570003 	cmp	r7, r3
    57bc:	ca0015e5 	bgt	579c <_time_t2tm+0xfc>
    57c0:	e3a03000 	mov	r3, #0	; 0x0
    57c4:	e5863010 	str	r3, [r6, #16]
    57c8:	e5067004 	str	r7, [r6, -#4]
    57cc:	e1a0000a 	mov	r0, sl
    57d0:	e91baff0 	ldmdb	fp, {r4, r5, r6, r7, r8, r9, sl, fp, sp, pc}
    57d4:	e59f3098 	ldr	r3, [pc, #98]	; 5874 <_time_t2tm+0x1d4>
    57d8:	e0c02793 	smull	r2, r0, r3, r7
    57dc:	e1a02fc7 	mov	r2, r7, asr #31
    57e0:	e06232c0 	rsb	r3, r2, r0, asr #5
    57e4:	e0833103 	add	r3, r3, r3, lsl #2
    57e8:	e0833103 	add	r3, r3, r3, lsl #2
    57ec:	e1570103 	cmp	r7, r3, lsl #2
    57f0:	0a0015fd 	beq	57fc <_time_t2tm+0x15c>
    57f4:	e281100b 	add	r1, r1, #11	; 0xb
    57f8:	ea0015de 	b	5780 <_time_t2tm+0xe0>
    57fc:	e06233c0 	rsb	r3, r2, r0, asr #7
    5800:	e0833103 	add	r3, r3, r3, lsl #2
    5804:	e0833103 	add	r3, r3, r3, lsl #2
    5808:	e1570203 	cmp	r7, r3, lsl #4
    580c:	1a0015de 	bne	5780 <_time_t2tm+0xe0>
    5810:	ea0015fb 	b	57f4 <_time_t2tm+0x154>
    5814:	e2453001 	sub	r3, r5, #1	; 0x1
    5818:	e1540003 	cmp	r4, r3
    581c:	05963010 	ldreq	r3, [r6, #16]
    5820:	02833001 	addeq	r3, r3, #1	; 0x1
    5824:	05863010 	streq	r3, [r6, #16]
    5828:	02444001 	subeq	r4, r4, #1	; 0x1
    582c:	ea0015bd 	b	56fc <_time_t2tm+0x5c>
    5830:	e1a01005 	mov	r1, r5
    5834:	e1a00004 	mov	r0, r4
    5838:	ebfffffe 	bl	0 <_start>
    583c:	e1d810b0 	ldrh	r1, [r8]
    5840:	e280000b 	add	r0, r0, #11	; 0xb
    5844:	ebfffffe 	bl	0 <_start>
    5848:	e0843009 	add	r3, r4, r9
    584c:	e1d820b2 	ldrh	r2, [r8, #2]
    5850:	e2834b83 	add	r4, r3, #134144	; 0x20c00
    5854:	e1a05102 	mov	r5, r2, lsl #2
    5858:	e2844f9d 	add	r4, r4, #628	; 0x274
    585c:	e1a07000 	mov	r7, r0
    5860:	e2855001 	add	r5, r5, #1	; 0x1
    5864:	e2844002 	add	r4, r4, #2	; 0x2
    5868:	ea0015b3 	b	56d4 <_time_t2tm+0x34>
    586c:	00000a88 	andeq	r0, r0, r8, lsl #21
    5870:	00000a98 	muleq	r0, r8, sl
    5874:	51eb851f 	mvnpl	r8, pc, lsl r5

00005878 <_time_mktime>:
    5878:	e1a0c00d 	mov	ip, sp
    587c:	e92ddff0 	stmdb	sp!, {r4, r5, r6, r7, r8, r9, sl, fp, ip, lr, pc}
    5880:	e24cb004 	sub	fp, ip, #4	; 0x4
    5884:	e24dd050 	sub	sp, sp, #80	; 0x50
    5888:	e50b0054 	str	r0, [fp, -#84]
    588c:	e50b1058 	str	r1, [fp, -#88]
    5890:	ebfffffe 	bl	0 <_start>
    5894:	e24b204c 	sub	r2, fp, #76	; 0x4c
    5898:	e51b1054 	ldr	r1, [fp, -#84]
    589c:	e1a00002 	mov	r0, r2
    58a0:	e3a02024 	mov	r2, #36	; 0x24
    58a4:	ebfffffe 	bl	0 <_start>
    58a8:	e3a05e19 	mov	r5, #400	; 0x190
    58ac:	e1a01005 	mov	r1, r5
    58b0:	e51b0038 	ldr	r0, [fp, -#56]
    58b4:	ebfffffe 	bl	0 <_start>
    58b8:	e59f32bc 	ldr	r3, [pc, #2bc]	; 5b7c <_time_mktime+0x304>
    58bc:	e51bc03c 	ldr	ip, [fp, -#60]
    58c0:	e0ce4c93 	smull	r4, lr, r3, ip
    58c4:	e0040590 	mul	r4, r0, r5
    58c8:	e1a01fcc 	mov	r1, ip, asr #31
    58cc:	e06110ce 	rsb	r1, r1, lr, asr #1
    58d0:	e51b3038 	ldr	r3, [fp, -#56]
    58d4:	e0812081 	add	r2, r1, r1, lsl #1
    58d8:	e04cc102 	sub	ip, ip, r2, lsl #2
    58dc:	e0643003 	rsb	r3, r4, r3
    58e0:	e0832001 	add	r2, r3, r1
    58e4:	e35c0000 	cmp	ip, #0	; 0x0
    58e8:	e50b2038 	str	r2, [fp, -#56]
    58ec:	b2422001 	sublt	r2, r2, #1	; 0x1
    58f0:	b50b2038 	strlt	r2, [fp, -#56]
    58f4:	b28c300c 	addlt	r3, ip, #12	; 0xc
    58f8:	e50bc03c 	str	ip, [fp, -#60]
    58fc:	b50b303c 	strlt	r3, [fp, -#60]
    5900:	e51b3038 	ldr	r3, [fp, -#56]
    5904:	e2833e76 	add	r3, r3, #1888	; 0x760
    5908:	e283300c 	add	r3, r3, #12	; 0xc
    590c:	e1a05003 	mov	r5, r3
    5910:	e3150003 	tst	r5, #3	; 0x3
    5914:	e50b1030 	str	r1, [fp, -#48]
    5918:	e50b0034 	str	r0, [fp, -#52]
    591c:	e50b3038 	str	r3, [fp, -#56]
    5920:	e59f1258 	ldr	r1, [pc, #258]	; 5b80 <_time_mktime+0x308>
    5924:	0a0016c9 	beq	5b2c <_time_mktime+0x2b4>
    5928:	e51b503c 	ldr	r5, [fp, -#60]
    592c:	e3a03000 	mov	r3, #0	; 0x0
    5930:	e3550000 	cmp	r5, #0	; 0x0
    5934:	e50b3030 	str	r3, [fp, -#48]
    5938:	0a001656 	beq	5960 <_time_mktime+0xe8>
    593c:	e5d12000 	ldrb	r2, [r1]
    5940:	e51b3030 	ldr	r3, [fp, -#48]
    5944:	e352001d 	cmp	r2, #29	; 0x1d
    5948:	0241100b 	subeq	r1, r1, #11	; 0xb
    594c:	e0833002 	add	r3, r3, r2
    5950:	e2555001 	subs	r5, r5, #1	; 0x1
    5954:	e50b3030 	str	r3, [fp, -#48]
    5958:	e2811001 	add	r1, r1, #1	; 0x1
    595c:	1a00164d 	bne	593c <_time_mktime+0xc4>
    5960:	e59f021c 	ldr	r0, [pc, #21c]	; 5b84 <_time_mktime+0x30c>
    5964:	ebfffffe 	bl	0 <_start>
    5968:	e51b3038 	ldr	r3, [fp, -#56]
    596c:	e59f2214 	ldr	r2, [pc, #214]	; 5b88 <_time_mktime+0x310>
    5970:	e2435001 	sub	r5, r3, #1	; 0x1
    5974:	e0cc3592 	smull	r3, ip, r2, r5
    5978:	e0853185 	add	r3, r5, r5, lsl #3
    597c:	e1a00fc5 	mov	r0, r5, asr #31
    5980:	e0853183 	add	r3, r5, r3, lsl #3
    5984:	e0852f20 	add	r2, r5, r0, lsr #30
    5988:	e0833103 	add	r3, r3, r3, lsl #2
    598c:	e06012cc 	rsb	r1, r0, ip, asr #5
    5990:	e0833142 	add	r3, r3, r2, asr #2
    5994:	e06003cc 	rsb	r0, r0, ip, asr #7
    5998:	e0613003 	rsb	r3, r1, r3
    599c:	e0833000 	add	r3, r3, r0
    59a0:	e2435aaf 	sub	r5, r3, #716800	; 0xaf000
    59a4:	e2455e93 	sub	r5, r5, #2352	; 0x930
    59a8:	e51b2034 	ldr	r2, [fp, -#52]
    59ac:	e28f3f6e 	add	r3, pc, #440	; 0x1b8
    59b0:	e8930018 	ldmia	r3, {r3, r4}
    59b4:	e245500b 	sub	r5, r5, #11	; 0xb
    59b8:	e1a06fc5 	mov	r6, r5, asr #31
    59bc:	e0e65293 	smlal	r5, r6, r3, r2
    59c0:	e51b0040 	ldr	r0, [fp, -#64]
    59c4:	e51bc030 	ldr	ip, [fp, -#48]
    59c8:	e0953000 	adds	r3, r5, r0
    59cc:	e0a64fc0 	adc	r4, r6, r0, asr #31
    59d0:	e093100c 	adds	r1, r3, ip
    59d4:	e0a42fcc 	adc	r2, r4, ip, asr #31
    59d8:	e1a00082 	mov	r0, r2, lsl #1
    59dc:	e1a07081 	mov	r7, r1, lsl #1
    59e0:	e0977001 	adds	r7, r7, r1
    59e4:	e1808fa1 	orr	r8, r0, r1, lsr #31
    59e8:	e0a88002 	adc	r8, r8, r2
    59ec:	e1a03188 	mov	r3, r8, lsl #3
    59f0:	e1833ea7 	orr	r3, r3, r7, lsr #29
    59f4:	e1a07187 	mov	r7, r7, lsl #3
    59f8:	e50b305c 	str	r3, [fp, -#92]
    59fc:	e50b7060 	str	r7, [fp, -#96]
    5a00:	e24b6060 	sub	r6, fp, #96	; 0x60
    5a04:	e8960060 	ldmia	r6, {r5, r6}
    5a08:	e51b1044 	ldr	r1, [fp, -#68]
    5a0c:	e0953001 	adds	r3, r5, r1
    5a10:	e0a64fc1 	adc	r4, r6, r1, asr #31
    5a14:	e1a02204 	mov	r2, r4, lsl #4
    5a18:	e182ae23 	orr	sl, r2, r3, lsr #28
    5a1c:	e1a09203 	mov	r9, r3, lsl #4
    5a20:	e0599003 	subs	r9, r9, r3
    5a24:	e0caa004 	sbc	sl, sl, r4
    5a28:	e1a0210a 	mov	r2, sl, lsl #2
    5a2c:	e1822f29 	orr	r2, r2, r9, lsr #30
    5a30:	e1a09109 	mov	r9, r9, lsl #2
    5a34:	e50b2064 	str	r2, [fp, -#100]
    5a38:	e50b9068 	str	r9, [fp, -#104]
    5a3c:	e24b6060 	sub	r6, fp, #96	; 0x60
    5a40:	e9160060 	ldmdb	r6, {r5, r6}
    5a44:	e51b1048 	ldr	r1, [fp, -#72]
    5a48:	e0953001 	adds	r3, r5, r1
    5a4c:	e0a64fc1 	adc	r4, r6, r1, asr #31
    5a50:	e1a02204 	mov	r2, r4, lsl #4
    5a54:	e1822e23 	orr	r2, r2, r3, lsr #28
    5a58:	e50b206c 	str	r2, [fp, -#108]
    5a5c:	e1a05203 	mov	r5, r3, lsl #4
    5a60:	e51b2054 	ldr	r2, [fp, -#84]
    5a64:	e50b5070 	str	r5, [fp, -#112]
    5a68:	e5921020 	ldr	r1, [r2, #32]
    5a6c:	e24b2070 	sub	r2, fp, #112	; 0x70
    5a70:	e8920060 	ldmia	r2, {r5, r6}
    5a74:	e0555003 	subs	r5, r5, r3
    5a78:	e0c66004 	sbc	r6, r6, r4
    5a7c:	e3510000 	cmp	r1, #0	; 0x0
    5a80:	e59f3104 	ldr	r3, [pc, #104]	; 5b8c <_time_mktime+0x314>
    5a84:	c3a01018 	movgt	r1, #24	; 0x18
    5a88:	d3a01000 	movle	r1, #0	; 0x0
    5a8c:	e7930001 	ldr	r0, [r3, r1]
    5a90:	e1a03106 	mov	r3, r6, lsl #2
    5a94:	e1833f25 	orr	r3, r3, r5, lsr #30
    5a98:	e1a05105 	mov	r5, r5, lsl #2
    5a9c:	e50b5078 	str	r5, [fp, -#120]
    5aa0:	e50b3074 	str	r3, [fp, -#116]
    5aa4:	e51b204c 	ldr	r2, [fp, -#76]
    5aa8:	e24b4070 	sub	r4, fp, #112	; 0x70
    5aac:	e9140018 	ldmdb	r4, {r3, r4}
    5ab0:	e0822000 	add	r2, r2, r0
    5ab4:	e0935002 	adds	r5, r3, r2
    5ab8:	e59f00c4 	ldr	r0, [pc, #c4]	; 5b84 <_time_mktime+0x30c>
    5abc:	e0a46fc2 	adc	r6, r4, r2, asr #31
    5ac0:	ebfffffe 	bl	0 <_start>
    5ac4:	e28f30a8 	add	r3, pc, #168	; 0xa8
    5ac8:	e8930018 	ldmia	r3, {r3, r4}
    5acc:	e0933005 	adds	r3, r3, r5
    5ad0:	e0a44006 	adc	r4, r4, r6
    5ad4:	e3540000 	cmp	r4, #0	; 0x0
    5ad8:	83e00000 	mvnhi	r0, #0	; 0x0
    5adc:	891baff0 	ldmhidb	fp, {r4, r5, r6, r7, r8, r9, sl, fp, sp, pc}
    5ae0:	e24b204c 	sub	r2, fp, #76	; 0x4c
    5ae4:	e24b0050 	sub	r0, fp, #80	; 0x50
    5ae8:	e1a01002 	mov	r1, r2
    5aec:	e50b5050 	str	r5, [fp, -#80]
    5af0:	ebfffffe 	bl	0 <_start>
    5af4:	e51b0050 	ldr	r0, [fp, -#80]
    5af8:	e3500000 	cmp	r0, #0	; 0x0
    5afc:	b3e00000 	mvnlt	r0, #0	; 0x0
    5b00:	b91baff0 	ldmltdb	fp, {r4, r5, r6, r7, r8, r9, sl, fp, sp, pc}
    5b04:	e51b3058 	ldr	r3, [fp, -#88]
    5b08:	e3530000 	cmp	r3, #0	; 0x0
    5b0c:	091baff0 	ldmeqdb	fp, {r4, r5, r6, r7, r8, r9, sl, fp, sp, pc}
    5b10:	e24b404c 	sub	r4, fp, #76	; 0x4c
    5b14:	e51b0054 	ldr	r0, [fp, -#84]
    5b18:	e1a01004 	mov	r1, r4
    5b1c:	e3a02024 	mov	r2, #36	; 0x24
    5b20:	ebfffffe 	bl	0 <_start>
    5b24:	e51b0050 	ldr	r0, [fp, -#80]
    5b28:	e91baff0 	ldmdb	fp, {r4, r5, r6, r7, r8, r9, sl, fp, sp, pc}
    5b2c:	e59f3054 	ldr	r3, [pc, #54]	; 5b88 <_time_mktime+0x310>
    5b30:	e0c06593 	smull	r6, r0, r3, r5
    5b34:	e1a02fc5 	mov	r2, r5, asr #31
    5b38:	e06232c0 	rsb	r3, r2, r0, asr #5
    5b3c:	e0833103 	add	r3, r3, r3, lsl #2
    5b40:	e0833103 	add	r3, r3, r3, lsl #2
    5b44:	e1550103 	cmp	r5, r3, lsl #2
    5b48:	0a0016d3 	beq	5b54 <_time_mktime+0x2dc>
    5b4c:	e281100b 	add	r1, r1, #11	; 0xb
    5b50:	ea001648 	b	5928 <_time_mktime+0xb0>
    5b54:	e06233c0 	rsb	r3, r2, r0, asr #7
    5b58:	e0833103 	add	r3, r3, r3, lsl #2
    5b5c:	e0833103 	add	r3, r3, r3, lsl #2
    5b60:	e1550203 	cmp	r5, r3, lsl #4
    5b64:	1a001648 	bne	5928 <_time_mktime+0xb0>
    5b68:	ea0016d1 	b	5b4c <_time_mktime+0x2d4>
    5b6c:	00023a99 	muleq	r2, r9, sl
    5b70:	00000000 	andeq	r0, r0, r0
    5b74:	80000000 	andhi	r0, r0, r0
    5b78:	00000000 	andeq	r0, r0, r0
    5b7c:	2aaaaaab 	bcs	feab0630 <__bss_end__+0xfeaa1c28>
    5b80:	00000aa6 	andeq	r0, r0, r6, lsr #21
    5b84:	00000000 	andeq	r0, r0, r0
    5b88:	51eb851f 	mvnpl	r8, pc, lsl r5
    5b8c:	00000000 	andeq	r0, r0, r0

00005b90 <pthread_exit>:
    5b90:	e1a0c00d 	mov	ip, sp
    5b94:	e3a00000 	mov	r0, #0	; 0x0
    5b98:	e92dd800 	stmdb	sp!, {fp, ip, lr, pc}
    5b9c:	e24cb004 	sub	fp, ip, #4	; 0x4
    5ba0:	ebfffffe 	bl	0 <_start>

00005ba4 <__pthread_return_0>:
    5ba4:	e3a00000 	mov	r0, #0	; 0x0
    5ba8:	e1a0f00e 	mov	pc, lr

00005bac <__pthread_return_1>:
    5bac:	e3a00001 	mov	r0, #1	; 0x1
    5bb0:	e1a0f00e 	mov	pc, lr

00005bb4 <__pthread_return_void>:
    5bb4:	e1a0f00e 	mov	pc, lr

00005bb8 <getpwnam_r>:
    5bb8:	e1a0c00d 	mov	ip, sp
    5bbc:	e92dddf0 	stmdb	sp!, {r4, r5, r6, r7, r8, sl, fp, ip, lr, pc}
    5bc0:	e1a07000 	mov	r7, r0
    5bc4:	e3570000 	cmp	r7, #0	; 0x0
    5bc8:	e24cb004 	sub	fp, ip, #4	; 0x4
    5bcc:	e1a06001 	mov	r6, r1
    5bd0:	e1a0a002 	mov	sl, r2
    5bd4:	e1a08003 	mov	r8, r3
    5bd8:	0a001713 	beq	5c54 <getpwnam_r+0x9c>
    5bdc:	e59f0088 	ldr	r0, [pc, #88]	; 5c6c <getpwnam_r+0xb4>
    5be0:	e3a01000 	mov	r1, #0	; 0x0
    5be4:	ebfffffe 	bl	0 <_start>
    5be8:	e1a05000 	mov	r5, r0
    5bec:	e3550000 	cmp	r5, #0	; 0x0
    5bf0:	ba001711 	blt	5c4c <getpwnam_r+0x94>
    5bf4:	e1a0100a 	mov	r1, sl
    5bf8:	e1a02008 	mov	r2, r8
    5bfc:	e1a03005 	mov	r3, r5
    5c00:	e1a00006 	mov	r0, r6
    5c04:	ebfffffe 	bl	0 <_start>
    5c08:	e1a04000 	mov	r4, r0
    5c0c:	e3740001 	cmn	r4, #1	; 0x1
    5c10:	e1a01007 	mov	r1, r7
    5c14:	0a00170d 	beq	5c3c <getpwnam_r+0x84>
    5c18:	e5960000 	ldr	r0, [r6]
    5c1c:	ebfffffe 	bl	0 <_start>
    5c20:	e1a04000 	mov	r4, r0
    5c24:	e3540000 	cmp	r4, #0	; 0x0
    5c28:	1a0016fb 	bne	5bf4 <getpwnam_r+0x3c>
    5c2c:	e1a00005 	mov	r0, r5
    5c30:	ebfffffe 	bl	0 <_start>
    5c34:	e1a00004 	mov	r0, r4
    5c38:	e91badf0 	ldmdb	fp, {r4, r5, r6, r7, r8, sl, fp, sp, pc}
    5c3c:	e1a00005 	mov	r0, r5
    5c40:	ebfffffe 	bl	0 <_start>
    5c44:	e1a00004 	mov	r0, r4
    5c48:	e91badf0 	ldmdb	fp, {r4, r5, r6, r7, r8, sl, fp, sp, pc}
    5c4c:	e3e00000 	mvn	r0, #0	; 0x0
    5c50:	e91badf0 	ldmdb	fp, {r4, r5, r6, r7, r8, sl, fp, sp, pc}
    5c54:	ebfffffe 	bl	0 <_start>
    5c58:	e3a03016 	mov	r3, #22	; 0x16
    5c5c:	e1a02000 	mov	r2, r0
    5c60:	e3e00000 	mvn	r0, #0	; 0x0
    5c64:	e5823000 	str	r3, [r2]
    5c68:	e91badf0 	ldmdb	fp, {r4, r5, r6, r7, r8, sl, fp, sp, pc}
    5c6c:	00000ab4 	streqh	r0, [r0], -r4

00005c70 <getpwnam>:
    5c70:	e1a0c00d 	mov	ip, sp
    5c74:	e92dd870 	stmdb	sp!, {r4, r5, r6, fp, ip, lr, pc}
    5c78:	e59f505c 	ldr	r5, [pc, #5c]	; 5cdc <getpwnam+0x6c>
    5c7c:	e24dd004 	sub	sp, sp, #4	; 0x4
    5c80:	e24cb004 	sub	fp, ip, #4	; 0x4
    5c84:	e1a04000 	mov	r4, r0
    5c88:	e1a00005 	mov	r0, r5
    5c8c:	ebfffffe 	bl	0 <_start>
    5c90:	e59f6048 	ldr	r6, [pc, #48]	; 5ce0 <getpwnam+0x70>
    5c94:	e1a00004 	mov	r0, r4
    5c98:	e3a03c01 	mov	r3, #256	; 0x100
    5c9c:	e59f2040 	ldr	r2, [pc, #40]	; 5ce4 <getpwnam+0x74>
    5ca0:	e1a01006 	mov	r1, r6
    5ca4:	e3a04000 	mov	r4, #0	; 0x0
    5ca8:	e58d4000 	str	r4, [sp]
    5cac:	ebfffffe 	bl	0 <_start>
    5cb0:	e1a03000 	mov	r3, r0
    5cb4:	e3730001 	cmn	r3, #1	; 0x1
    5cb8:	e1a00005 	mov	r0, r5
    5cbc:	0a001731 	beq	5ccc <getpwnam+0x5c>
    5cc0:	ebfffffe 	bl	0 <_start>
    5cc4:	e1a00006 	mov	r0, r6
    5cc8:	e91ba870 	ldmdb	fp, {r4, r5, r6, fp, sp, pc}
    5ccc:	e1a00005 	mov	r0, r5
    5cd0:	ebfffffe 	bl	0 <_start>
    5cd4:	e1a00004 	mov	r0, r4
    5cd8:	e91ba870 	ldmdb	fp, {r4, r5, r6, fp, sp, pc}
    5cdc:	00001fbc 	streqh	r1, [r0], -ip
    5ce0:	000006cc 	andeq	r0, r0, ip, asr #13
    5ce4:	000005cc 	andeq	r0, r0, ip, asr #11

00005ce8 <getgrnam>:
    5ce8:	e1a0c00d 	mov	ip, sp
    5cec:	e92dd870 	stmdb	sp!, {r4, r5, r6, fp, ip, lr, pc}
    5cf0:	e1a06000 	mov	r6, r0
    5cf4:	e3560000 	cmp	r6, #0	; 0x0
    5cf8:	e24cb004 	sub	fp, ip, #4	; 0x4
    5cfc:	0a001762 	beq	5d90 <getgrnam+0xa8>
    5d00:	e59f00a0 	ldr	r0, [pc, #a0]	; 5da8 <getgrnam+0xc0>
    5d04:	e3a01000 	mov	r1, #0	; 0x0
    5d08:	ebfffffe 	bl	0 <_start>
    5d0c:	e1a05000 	mov	r5, r0
    5d10:	e3550000 	cmp	r5, #0	; 0x0
    5d14:	ba001760 	blt	5d88 <getgrnam+0xa0>
    5d18:	e59f008c 	ldr	r0, [pc, #8c]	; 5dac <getgrnam+0xc4>
    5d1c:	ebfffffe 	bl	0 <_start>
    5d20:	e59f3088 	ldr	r3, [pc, #88]	; 5db0 <getgrnam+0xc8>
    5d24:	e59f0088 	ldr	r0, [pc, #88]	; 5db4 <getgrnam+0xcc>
    5d28:	e5931000 	ldr	r1, [r3]
    5d2c:	e5902000 	ldr	r2, [r0]
    5d30:	e1a00005 	mov	r0, r5
    5d34:	ebfffffe 	bl	0 <_start>
    5d38:	e1a04000 	mov	r4, r0
    5d3c:	e3540000 	cmp	r4, #0	; 0x0
    5d40:	e1a01006 	mov	r1, r6
    5d44:	0a00175a 	beq	5d70 <getgrnam+0x88>
    5d48:	e5940000 	ldr	r0, [r4]
    5d4c:	ebfffffe 	bl	0 <_start>
    5d50:	e3500000 	cmp	r0, #0	; 0x0
    5d54:	1a001746 	bne	5d20 <getgrnam+0x38>
    5d58:	e1a00005 	mov	r0, r5
    5d5c:	ebfffffe 	bl	0 <_start>
    5d60:	e59f0044 	ldr	r0, [pc, #44]	; 5dac <getgrnam+0xc4>
    5d64:	ebfffffe 	bl	0 <_start>
    5d68:	e1a00004 	mov	r0, r4
    5d6c:	e91ba870 	ldmdb	fp, {r4, r5, r6, fp, sp, pc}
    5d70:	e1a00005 	mov	r0, r5
    5d74:	ebfffffe 	bl	0 <_start>
    5d78:	e59f002c 	ldr	r0, [pc, #2c]	; 5dac <getgrnam+0xc4>
    5d7c:	ebfffffe 	bl	0 <_start>
    5d80:	e1a00004 	mov	r0, r4
    5d84:	e91ba870 	ldmdb	fp, {r4, r5, r6, fp, sp, pc}
    5d88:	e3a00000 	mov	r0, #0	; 0x0
    5d8c:	e91ba870 	ldmdb	fp, {r4, r5, r6, fp, sp, pc}
    5d90:	ebfffffe 	bl	0 <_start>
    5d94:	e3a03016 	mov	r3, #22	; 0x16
    5d98:	e1a02000 	mov	r2, r0
    5d9c:	e1a00006 	mov	r0, r6
    5da0:	e5823000 	str	r3, [r2]
    5da4:	e91ba870 	ldmdb	fp, {r4, r5, r6, fp, sp, pc}
    5da8:	00000ac0 	andeq	r0, r0, r0, asr #21
    5dac:	00000000 	andeq	r0, r0, r0
    5db0:	00001fd4 	ldreqd	r1, [r0], -r4
    5db4:	00001fd8 	ldreqd	r1, [r0], -r8

00005db8 <__getpwent_r>:
    5db8:	e1a0c00d 	mov	ip, sp
    5dbc:	e92ddff0 	stmdb	sp!, {r4, r5, r6, r7, r8, r9, sl, fp, ip, lr, pc}
    5dc0:	e24cb004 	sub	fp, ip, #4	; 0x4
    5dc4:	e24dd008 	sub	sp, sp, #8	; 0x8
    5dc8:	e3a0c000 	mov	ip, #0	; 0x0
    5dcc:	e50bc030 	str	ip, [fp, -#48]
    5dd0:	e1a07000 	mov	r7, r0
    5dd4:	e1a06001 	mov	r6, r1
    5dd8:	e1a0a002 	mov	sl, r2
    5ddc:	e1a08003 	mov	r8, r3
    5de0:	e1a0900c 	mov	r9, ip
    5de4:	e1a00008 	mov	r0, r8
    5de8:	e1a01006 	mov	r1, r6
    5dec:	e1a0200a 	mov	r2, sl
    5df0:	ebfffffe 	bl	0 <_start>
    5df4:	e1a05000 	mov	r5, r0
    5df8:	e3550000 	cmp	r5, #0	; 0x0
    5dfc:	d3e00000 	mvnle	r0, #0	; 0x0
    5e00:	d91baff0 	ldmledb	fp, {r4, r5, r6, r7, r8, r9, sl, fp, sp, pc}
    5e04:	e1a00006 	mov	r0, r6
    5e08:	e3a0100a 	mov	r1, #10	; 0xa
    5e0c:	ebfffffe 	bl	0 <_start>
    5e10:	e1a04000 	mov	r4, r0
    5e14:	e3540000 	cmp	r4, #0	; 0x0
    5e18:	1a00179a 	bne	5e70 <__getpwent_r+0xb8>
    5e1c:	e1a01006 	mov	r1, r6
    5e20:	e1a0200a 	mov	r2, sl
    5e24:	e1a00008 	mov	r0, r8
    5e28:	ebfffffe 	bl	0 <_start>
    5e2c:	e1a05000 	mov	r5, r0
    5e30:	e3550000 	cmp	r5, #0	; 0x0
    5e34:	e1a00006 	mov	r0, r6
    5e38:	e3a0100a 	mov	r1, #10	; 0xa
    5e3c:	d3e00000 	mvnle	r0, #0	; 0x0
    5e40:	d91baff0 	ldmledb	fp, {r4, r5, r6, r7, r8, r9, sl, fp, sp, pc}
    5e44:	ebfffffe 	bl	0 <_start>
    5e48:	e1a04000 	mov	r4, r0
    5e4c:	e3540000 	cmp	r4, #0	; 0x0
    5e50:	0a001785 	beq	5e1c <__getpwent_r+0x64>
    5e54:	e0661004 	rsb	r1, r6, r4
    5e58:	e0651001 	rsb	r1, r5, r1
    5e5c:	e2811001 	add	r1, r1, #1	; 0x1
    5e60:	e1a00008 	mov	r0, r8
    5e64:	e3a02001 	mov	r2, #1	; 0x1
    5e68:	ebfffffe 	bl	0 <_start>
    5e6c:	ea001777 	b	5de4 <__getpwent_r+0x2c>
    5e70:	e0861005 	add	r1, r6, r5
    5e74:	e0611004 	rsb	r1, r1, r4
    5e78:	e2811001 	add	r1, r1, #1	; 0x1
    5e7c:	e1a00008 	mov	r0, r8
    5e80:	e3a02001 	mov	r2, #1	; 0x1
    5e84:	ebfffffe 	bl	0 <_start>
    5e88:	e5d62000 	ldrb	r2, [r6]
    5e8c:	e3520020 	cmp	r2, #32	; 0x20
    5e90:	13a03000 	movne	r3, #0	; 0x0
    5e94:	03a03001 	moveq	r3, #1	; 0x1
    5e98:	e3520023 	cmp	r2, #35	; 0x23
    5e9c:	11a01003 	movne	r1, r3
    5ea0:	03831001 	orreq	r1, r3, #1	; 0x1
    5ea4:	e3510000 	cmp	r1, #0	; 0x0
    5ea8:	1a001777 	bne	5de4 <__getpwent_r+0x2c>
    5eac:	e20230ff 	and	r3, r2, #255	; 0xff
    5eb0:	e353000a 	cmp	r3, #10	; 0xa
    5eb4:	0a001777 	beq	5de4 <__getpwent_r+0x2c>
    5eb8:	e3530009 	cmp	r3, #9	; 0x9
    5ebc:	0a001777 	beq	5de4 <__getpwent_r+0x2c>
    5ec0:	e5c41000 	strb	r1, [r4]
    5ec4:	e1a05001 	mov	r5, r1
    5ec8:	e1a04006 	mov	r4, r6
    5ecc:	e3550006 	cmp	r5, #6	; 0x6
    5ed0:	979ff105 	ldrls	pc, [pc, r5, lsl #2]
    5ed4:	ea0017bc 	b	5ef8 <__getpwent_r+0x140>
    5ed8:	00005ef4 	streqd	r5, [r0], -r4
    5edc:	00005f7c 	andeq	r5, r0, ip, ror pc
    5ee0:	00005f84 	andeq	r5, r0, r4, lsl #31
    5ee4:	00005f8c 	andeq	r5, r0, ip, lsl #31
    5ee8:	00005f94 	muleq	r0, r4, pc
    5eec:	00005f9c 	muleq	r0, ip, pc
    5ef0:	00005fa4 	andeq	r5, r0, r4, lsr #31
    5ef4:	e5874000 	str	r4, [r7]
    5ef8:	e3550005 	cmp	r5, #5	; 0x5
    5efc:	ca0017c6 	bgt	5f20 <__getpwent_r+0x168>
    5f00:	e1a00004 	mov	r0, r4
    5f04:	e3a0103a 	mov	r1, #58	; 0x3a
    5f08:	ebfffffe 	bl	0 <_start>
    5f0c:	e1a04000 	mov	r4, r0
    5f10:	e3540000 	cmp	r4, #0	; 0x0
    5f14:	0a001777 	beq	5de4 <__getpwent_r+0x2c>
    5f18:	e3a03000 	mov	r3, #0	; 0x0
    5f1c:	e4c43001 	strb	r3, [r4], #1
    5f20:	e2855001 	add	r5, r5, #1	; 0x1
    5f24:	e3550006 	cmp	r5, #6	; 0x6
    5f28:	da0017b1 	ble	5ecc <__getpwent_r+0x114>
    5f2c:	e24b402c 	sub	r4, fp, #44	; 0x2c
    5f30:	e3a0200a 	mov	r2, #10	; 0xa
    5f34:	e1a00009 	mov	r0, r9
    5f38:	e1a01004 	mov	r1, r4
    5f3c:	ebfffffe 	bl	0 <_start>
    5f40:	e587000c 	str	r0, [r7, #12]
    5f44:	e51b302c 	ldr	r3, [fp, -#44]
    5f48:	e5d32000 	ldrb	r2, [r3]
    5f4c:	e3520000 	cmp	r2, #0	; 0x0
    5f50:	1a001777 	bne	5de4 <__getpwent_r+0x2c>
    5f54:	e1a01004 	mov	r1, r4
    5f58:	e51b0030 	ldr	r0, [fp, -#48]
    5f5c:	e3a0200a 	mov	r2, #10	; 0xa
    5f60:	ebfffffe 	bl	0 <_start>
    5f64:	e5870008 	str	r0, [r7, #8]
    5f68:	e51b302c 	ldr	r3, [fp, -#44]
    5f6c:	e5d30000 	ldrb	r0, [r3]
    5f70:	e3500000 	cmp	r0, #0	; 0x0
    5f74:	1a001777 	bne	5de4 <__getpwent_r+0x2c>
    5f78:	e91baff0 	ldmdb	fp, {r4, r5, r6, r7, r8, r9, sl, fp, sp, pc}
    5f7c:	e5874004 	str	r4, [r7, #4]
    5f80:	ea0017bc 	b	5ef8 <__getpwent_r+0x140>
    5f84:	e50b4030 	str	r4, [fp, -#48]
    5f88:	ea0017bc 	b	5ef8 <__getpwent_r+0x140>
    5f8c:	e1a09004 	mov	r9, r4
    5f90:	ea0017bc 	b	5ef8 <__getpwent_r+0x140>
    5f94:	e5874010 	str	r4, [r7, #16]
    5f98:	ea0017bc 	b	5ef8 <__getpwent_r+0x140>
    5f9c:	e5874014 	str	r4, [r7, #20]
    5fa0:	ea0017bc 	b	5ef8 <__getpwent_r+0x140>
    5fa4:	e5874018 	str	r4, [r7, #24]
    5fa8:	ea0017bc 	b	5ef8 <__getpwent_r+0x140>

00005fac <fclose>:
    5fac:	e1a0c00d 	mov	ip, sp
    5fb0:	e92dd870 	stmdb	sp!, {r4, r5, r6, fp, ip, lr, pc}
    5fb4:	e24cb004 	sub	fp, ip, #4	; 0x4
    5fb8:	e1a04000 	mov	r4, r0
    5fbc:	e3a06000 	mov	r6, #0	; 0x0
    5fc0:	e5943038 	ldr	r3, [r4, #56]
    5fc4:	e3530000 	cmp	r3, #0	; 0x0
    5fc8:	e284003c 	add	r0, r4, #60	; 0x3c
    5fcc:	0a001846 	beq	6120 <fclose+0x174>
    5fd0:	e59f0150 	ldr	r0, [pc, #150]	; 6128 <fclose+0x17c>
    5fd4:	ebfffffe 	bl	0 <_start>
    5fd8:	e1a03000 	mov	r3, r0
    5fdc:	e3530000 	cmp	r3, #0	; 0x0
    5fe0:	e284003c 	add	r0, r4, #60	; 0x3c
    5fe4:	0a001801 	beq	600c <fclose+0x60>
    5fe8:	e5943038 	ldr	r3, [r4, #56]
    5fec:	e3530000 	cmp	r3, #0	; 0x0
    5ff0:	0a0017ff 	beq	6004 <fclose+0x58>
    5ff4:	e3a00c27 	mov	r0, #9984	; 0x2700
    5ff8:	e2800010 	add	r0, r0, #16	; 0x10
    5ffc:	ebfffffe 	bl	0 <_start>
    6000:	ea0017ee 	b	5fc0 <fclose+0x14>
    6004:	ebfffffe 	bl	0 <_start>
    6008:	ea0017fb 	b	5ff4 <fclose+0x48>
    600c:	e1d430b0 	ldrh	r3, [r4]
    6010:	e3130a02 	tst	r3, #8192	; 0x2000
    6014:	0a001807 	beq	6024 <fclose+0x78>
    6018:	e1a00004 	mov	r0, r4
    601c:	ebfffffe 	bl	0 <_start>
    6020:	e1a06000 	mov	r6, r0
    6024:	e59f1100 	ldr	r1, [pc, #100]	; 612c <fclose+0x180>
    6028:	e5912000 	ldr	r2, [r1]
    602c:	e594300c 	ldr	r3, [r4, #12]
    6030:	e1520004 	cmp	r2, r4
    6034:	e584301c 	str	r3, [r4, #28]
    6038:	05943008 	ldreq	r3, [r4, #8]
    603c:	05813000 	streq	r3, [r1]
    6040:	0a00181d 	beq	607c <fclose+0xd0>
    6044:	e3520000 	cmp	r2, #0	; 0x0
    6048:	0a00181d 	beq	607c <fclose+0xd0>
    604c:	e5923008 	ldr	r3, [r2, #8]
    6050:	e1530004 	cmp	r3, r4
    6054:	05943008 	ldreq	r3, [r4, #8]
    6058:	05823008 	streq	r3, [r2, #8]
    605c:	0a00181d 	beq	607c <fclose+0xd0>
    6060:	e2532000 	subs	r2, r3, #0	; 0x0
    6064:	0a00181d 	beq	607c <fclose+0xd0>
    6068:	e5923008 	ldr	r3, [r2, #8]
    606c:	e1530004 	cmp	r3, r4
    6070:	1a001816 	bne	6060 <fclose+0xb4>
    6074:	e5943008 	ldr	r3, [r4, #8]
    6078:	e5823008 	str	r3, [r2, #8]
    607c:	e59f00a4 	ldr	r0, [pc, #a4]	; 6128 <fclose+0x17c>
    6080:	ebfffffe 	bl	0 <_start>
    6084:	e5943034 	ldr	r3, [r4, #52]
    6088:	e3530000 	cmp	r3, #0	; 0x0
    608c:	0a001827 	beq	60a4 <fclose+0xf8>
    6090:	e5940024 	ldr	r0, [r4, #36]
    6094:	e1a0e00f 	mov	lr, pc
    6098:	e1a0f003 	mov	pc, r3
    609c:	e3500000 	cmp	r0, #0	; 0x0
    60a0:	b3e06000 	mvnlt	r6, #0	; 0x0
    60a4:	e1d430b0 	ldrh	r3, [r4]
    60a8:	e2842004 	add	r2, r4, #4	; 0x4
    60ac:	e3130901 	tst	r3, #16384	; 0x4000
    60b0:	e59f3078 	ldr	r3, [pc, #78]	; 6130 <fclose+0x184>
    60b4:	e5842024 	str	r2, [r4, #36]
    60b8:	e59f2074 	ldr	r2, [pc, #74]	; 6134 <fclose+0x188>
    60bc:	e5843028 	str	r3, [r4, #40]
    60c0:	e59f3070 	ldr	r3, [pc, #70]	; 6138 <fclose+0x18c>
    60c4:	e3a05000 	mov	r5, #0	; 0x0
    60c8:	e584202c 	str	r2, [r4, #44]
    60cc:	e3e02000 	mvn	r2, #0	; 0x0
    60d0:	e5843034 	str	r3, [r4, #52]
    60d4:	e5842004 	str	r2, [r4, #4]
    60d8:	e5845030 	str	r5, [r4, #48]
    60dc:	0a001838 	beq	60e8 <fclose+0x13c>
    60e0:	e594000c 	ldr	r0, [r4, #12]
    60e4:	ebfffffe 	bl	0 <_start>
    60e8:	e5943038 	ldr	r3, [r4, #56]
    60ec:	e3530000 	cmp	r3, #0	; 0x0
    60f0:	0a001843 	beq	6114 <fclose+0x168>
    60f4:	e1d430b0 	ldrh	r3, [r4]
    60f8:	e3130040 	tst	r3, #64	; 0x40
    60fc:	0a001841 	beq	610c <fclose+0x160>
    6100:	e5845024 	str	r5, [r4, #36]
    6104:	e1a00004 	mov	r0, r4
    6108:	ebfffffe 	bl	0 <_start>
    610c:	e1a00006 	mov	r0, r6
    6110:	e91ba870 	ldmdb	fp, {r4, r5, r6, fp, sp, pc}
    6114:	e284003c 	add	r0, r4, #60	; 0x3c
    6118:	ebfffffe 	bl	0 <_start>
    611c:	ea00183b 	b	60f4 <fclose+0x148>
    6120:	ebfffffe 	bl	0 <_start>
    6124:	ea0017f2 	b	5fd0 <fclose+0x24>
	...

0000613c <fflush>:
    613c:	e1a0c00d 	mov	ip, sp
    6140:	e92dd830 	stmdb	sp!, {r4, r5, fp, ip, lr, pc}
    6144:	e1a04000 	mov	r4, r0
    6148:	e3540000 	cmp	r4, #0	; 0x0
    614c:	e24cb004 	sub	fp, ip, #4	; 0x4
    6150:	0a001867 	beq	61a4 <fflush+0x68>
    6154:	e59f3054 	ldr	r3, [pc, #54]	; 61b0 <fflush+0x74>
    6158:	e1540003 	cmp	r4, r3
    615c:	0a001867 	beq	61a4 <fflush+0x68>
    6160:	e5943038 	ldr	r3, [r4, #56]
    6164:	e3530000 	cmp	r3, #0	; 0x0
    6168:	e284003c 	add	r0, r4, #60	; 0x3c
    616c:	0a001865 	beq	619c <fflush+0x60>
    6170:	e1a00004 	mov	r0, r4
    6174:	ebfffffe 	bl	0 <_start>
    6178:	e5943038 	ldr	r3, [r4, #56]
    617c:	e3530000 	cmp	r3, #0	; 0x0
    6180:	e1a05000 	mov	r5, r0
    6184:	e284003c 	add	r0, r4, #60	; 0x3c
    6188:	0a001863 	beq	6194 <fflush+0x58>
    618c:	e1a00005 	mov	r0, r5
    6190:	e91ba830 	ldmdb	fp, {r4, r5, fp, sp, pc}
    6194:	ebfffffe 	bl	0 <_start>
    6198:	ea001861 	b	618c <fflush+0x50>
    619c:	ebfffffe 	bl	0 <_start>
    61a0:	ea00185a 	b	6170 <fflush+0x34>
    61a4:	ebfffffe 	bl	0 <_start>
    61a8:	e1a05000 	mov	r5, r0
    61ac:	ea001861 	b	618c <fflush+0x50>
    61b0:	00000000 	andeq	r0, r0, r0

000061b4 <fflush_unlocked>:
    61b4:	e1a0c00d 	mov	ip, sp
    61b8:	e92dd8f0 	stmdb	sp!, {r4, r5, r6, r7, fp, ip, lr, pc}
    61bc:	e59f70c8 	ldr	r7, [pc, #c8]	; 628c <fflush_unlocked+0xd8>
    61c0:	e1a04000 	mov	r4, r0
    61c4:	e1540007 	cmp	r4, r7
    61c8:	e3a05000 	mov	r5, #0	; 0x0
    61cc:	e3a06c03 	mov	r6, #768	; 0x300
    61d0:	01a04005 	moveq	r4, r5
    61d4:	02466c02 	subeq	r6, r6, #512	; 0x200
    61d8:	e3540000 	cmp	r4, #0	; 0x0
    61dc:	e24cb004 	sub	fp, ip, #4	; 0x4
    61e0:	0a00188b 	beq	6234 <fflush_unlocked+0x80>
    61e4:	e1d430b0 	ldrh	r3, [r4]
    61e8:	e3130a02 	tst	r3, #8192	; 0x2000
    61ec:	0a001883 	beq	6214 <fflush_unlocked+0x60>
    61f0:	e1a02004 	mov	r2, r4
    61f4:	e1a00005 	mov	r0, r5
    61f8:	e1a01005 	mov	r1, r5
    61fc:	ebfffffe 	bl	0 <_start>
    6200:	e3500000 	cmp	r0, #0	; 0x0
    6204:	0a001881 	beq	620c <fflush_unlocked+0x58>
    6208:	e3e05000 	mvn	r5, #0	; 0x0
    620c:	e1a00005 	mov	r0, r5
    6210:	e91ba8f0 	ldmdb	fp, {r4, r5, r6, r7, fp, sp, pc}
    6214:	e3130020 	tst	r3, #32	; 0x20
    6218:	0a001881 	beq	620c <fflush_unlocked+0x58>
    621c:	e3833008 	orr	r3, r3, #8	; 0x8
    6220:	e1c430b0 	strh	r3, [r4]
    6224:	ebfffffe 	bl	0 <_start>
    6228:	e3a03009 	mov	r3, #9	; 0x9
    622c:	e5803000 	str	r3, [r0]
    6230:	ea001880 	b	6208 <fflush_unlocked+0x54>
    6234:	e59f0054 	ldr	r0, [pc, #54]	; 6290 <fflush_unlocked+0xdc>
    6238:	ebfffffe 	bl	0 <_start>
    623c:	e5974000 	ldr	r4, [r7]
    6240:	e3540000 	cmp	r4, #0	; 0x0
    6244:	0a00189e 	beq	6280 <fflush_unlocked+0xcc>
    6248:	e1a06806 	mov	r6, r6, lsl #16
    624c:	e1d420b0 	ldrh	r2, [r4]
    6250:	e2223c02 	eor	r3, r2, #512	; 0x200
    6254:	e0133826 	ands	r3, r3, r6, lsr #16
    6258:	0a00189b 	beq	6274 <fflush_unlocked+0xc0>
    625c:	e3120a02 	tst	r2, #8192	; 0x2000
    6260:	e1a00004 	mov	r0, r4
    6264:	0a00189b 	beq	6274 <fflush_unlocked+0xc0>
    6268:	ebfffffe 	bl	0 <_start>
    626c:	e3500000 	cmp	r0, #0	; 0x0
    6270:	13e05000 	mvnne	r5, #0	; 0x0
    6274:	e5944008 	ldr	r4, [r4, #8]
    6278:	e3540000 	cmp	r4, #0	; 0x0
    627c:	1a001891 	bne	624c <fflush_unlocked+0x98>
    6280:	e59f0008 	ldr	r0, [pc, #8]	; 6290 <fflush_unlocked+0xdc>
    6284:	ebfffffe 	bl	0 <_start>
    6288:	ea001881 	b	620c <fflush_unlocked+0x58>
	...

00006294 <fopen>:
    6294:	e52de004 	str	lr, [sp, -#4]!
    6298:	e3e03000 	mvn	r3, #0	; 0x0
    629c:	e3a02000 	mov	r2, #0	; 0x0
    62a0:	e49de004 	ldr	lr, [sp], #4
    62a4:	eafffffe 	b	0 <_start>

000062a8 <perror>:
    62a8:	e92d4010 	stmdb	sp!, {r4, lr}
    62ac:	e59f3040 	ldr	r3, [pc, #40]	; 62f4 <perror+0x4c>
    62b0:	e1a0c000 	mov	ip, r0
    62b4:	e5932000 	ldr	r2, [r3]
    62b8:	e35c0000 	cmp	ip, #0	; 0x0
    62bc:	e59f1034 	ldr	r1, [pc, #34]	; 62f8 <perror+0x50>
    62c0:	e1a00002 	mov	r0, r2
    62c4:	e59f4030 	ldr	r4, [pc, #30]	; 62fc <perror+0x54>
    62c8:	0a0018b8 	beq	62e8 <perror+0x40>
    62cc:	e5dc3000 	ldrb	r3, [ip]
    62d0:	e3530000 	cmp	r3, #0	; 0x0
    62d4:	0a0018b8 	beq	62e8 <perror+0x40>
    62d8:	e1a0200c 	mov	r2, ip
    62dc:	e1a03004 	mov	r3, r4
    62e0:	e8bd4010 	ldmia	sp!, {r4, lr}
    62e4:	eafffffe 	b	0 <_start>
    62e8:	e2844002 	add	r4, r4, #2	; 0x2
    62ec:	e1a0c004 	mov	ip, r4
    62f0:	ea0018b4 	b	62d8 <perror+0x30>
    62f4:	00000000 	andeq	r0, r0, r0
    62f8:	00000acc 	andeq	r0, r0, ip, asr #21
    62fc:	00000ad4 	ldreqd	r0, [r0], -r4

00006300 <fgetc>:
    6300:	e1a0c00d 	mov	ip, sp
    6304:	e92dd830 	stmdb	sp!, {r4, r5, fp, ip, lr, pc}
    6308:	e1a04000 	mov	r4, r0
    630c:	e5943038 	ldr	r3, [r4, #56]
    6310:	e3530000 	cmp	r3, #0	; 0x0
    6314:	e24cb004 	sub	fp, ip, #4	; 0x4
    6318:	e284003c 	add	r0, r4, #60	; 0x3c
    631c:	0a0018d1 	beq	634c <fgetc+0x4c>
    6320:	e1a00004 	mov	r0, r4
    6324:	ebfffffe 	bl	0 <_start>
    6328:	e5943038 	ldr	r3, [r4, #56]
    632c:	e3530000 	cmp	r3, #0	; 0x0
    6330:	e1a05000 	mov	r5, r0
    6334:	e284003c 	add	r0, r4, #60	; 0x3c
    6338:	0a0018cf 	beq	6344 <fgetc+0x44>
    633c:	e1a00005 	mov	r0, r5
    6340:	e91ba830 	ldmdb	fp, {r4, r5, fp, sp, pc}
    6344:	ebfffffe 	bl	0 <_start>
    6348:	ea0018cd 	b	633c <fgetc+0x3c>
    634c:	ebfffffe 	bl	0 <_start>
    6350:	ea0018c6 	b	6320 <fgetc+0x20>

00006354 <fgetc_unlocked>:
    6354:	e1a0c00d 	mov	ip, sp
    6358:	e92dd800 	stmdb	sp!, {fp, ip, lr, pc}
    635c:	e24cb004 	sub	fp, ip, #4	; 0x4
    6360:	e24dd004 	sub	sp, sp, #4	; 0x4
    6364:	e1a02000 	mov	r2, r0
    6368:	e24b000d 	sub	r0, fp, #13	; 0xd
    636c:	e3a01001 	mov	r1, #1	; 0x1
    6370:	ebfffffe 	bl	0 <_start>
    6374:	e3500000 	cmp	r0, #0	; 0x0
    6378:	155b000d 	ldrneb	r0, [fp, -#13]
    637c:	03e00000 	mvneq	r0, #0	; 0x0
    6380:	e91ba800 	ldmdb	fp, {fp, sp, pc}

00006384 <fgets>:
    6384:	e1a0c00d 	mov	ip, sp
    6388:	e92dd870 	stmdb	sp!, {r4, r5, r6, fp, ip, lr, pc}
    638c:	e1a04002 	mov	r4, r2
    6390:	e5943038 	ldr	r3, [r4, #56]
    6394:	e284203c 	add	r2, r4, #60	; 0x3c
    6398:	e3530000 	cmp	r3, #0	; 0x0
    639c:	e1a06000 	mov	r6, r0
    63a0:	e24cb004 	sub	fp, ip, #4	; 0x4
    63a4:	e1a00002 	mov	r0, r2
    63a8:	e1a05001 	mov	r5, r1
    63ac:	0a0018f7 	beq	63e4 <fgets+0x60>
    63b0:	e1a01005 	mov	r1, r5
    63b4:	e1a00006 	mov	r0, r6
    63b8:	e1a02004 	mov	r2, r4
    63bc:	ebfffffe 	bl	0 <_start>
    63c0:	e5943038 	ldr	r3, [r4, #56]
    63c4:	e3530000 	cmp	r3, #0	; 0x0
    63c8:	e1a05000 	mov	r5, r0
    63cc:	e284003c 	add	r0, r4, #60	; 0x3c
    63d0:	0a0018f5 	beq	63dc <fgets+0x58>
    63d4:	e1a00005 	mov	r0, r5
    63d8:	e91ba870 	ldmdb	fp, {r4, r5, r6, fp, sp, pc}
    63dc:	ebfffffe 	bl	0 <_start>
    63e0:	ea0018f3 	b	63d4 <fgets+0x50>
    63e4:	ebfffffe 	bl	0 <_start>
    63e8:	ea0018ea 	b	63b0 <fgets+0x2c>

000063ec <fgets_unlocked>:
    63ec:	e1a0c00d 	mov	ip, sp
    63f0:	e92dd8f0 	stmdb	sp!, {r4, r5, r6, r7, fp, ip, lr, pc}
    63f4:	e1a07000 	mov	r7, r0
    63f8:	e24cb004 	sub	fp, ip, #4	; 0x4
    63fc:	e1a05001 	mov	r5, r1
    6400:	e1a04002 	mov	r4, r2
    6404:	e1a06007 	mov	r6, r7
    6408:	e3550001 	cmp	r5, #1	; 0x1
    640c:	e1a00004 	mov	r0, r4
    6410:	da001911 	ble	644c <fgets_unlocked+0x60>
    6414:	e5942014 	ldr	r2, [r4, #20]
    6418:	e594301c 	ldr	r3, [r4, #28]
    641c:	e1520003 	cmp	r2, r3
    6420:	34d20001 	ldrccb	r0, [r2], #1
    6424:	35842014 	strcc	r2, [r4, #20]
    6428:	3a00190a 	bcc	6430 <fgets_unlocked+0x44>
    642c:	ebfffffe 	bl	0 <_start>
    6430:	e3700001 	cmn	r0, #1	; 0x1
    6434:	e20030ff 	and	r3, r0, #255	; 0xff
    6438:	e2455001 	sub	r5, r5, #1	; 0x1
    643c:	0a001911 	beq	644c <fgets_unlocked+0x60>
    6440:	e353000a 	cmp	r3, #10	; 0xa
    6444:	e4c60001 	strb	r0, [r6], #1
    6448:	1a001900 	bne	6408 <fgets_unlocked+0x1c>
    644c:	e1560007 	cmp	r6, r7
    6450:	13a03000 	movne	r3, #0	; 0x0
    6454:	03a00000 	moveq	r0, #0	; 0x0
    6458:	11a00007 	movne	r0, r7
    645c:	15c63000 	strneb	r3, [r6]
    6460:	e91ba8f0 	ldmdb	fp, {r4, r5, r6, r7, fp, sp, pc}

00006464 <fputc>:
    6464:	e1a0c00d 	mov	ip, sp
    6468:	e92dd830 	stmdb	sp!, {r4, r5, fp, ip, lr, pc}
    646c:	e1a04001 	mov	r4, r1
    6470:	e5943038 	ldr	r3, [r4, #56]
    6474:	e284203c 	add	r2, r4, #60	; 0x3c
    6478:	e3530000 	cmp	r3, #0	; 0x0
    647c:	e1a05000 	mov	r5, r0
    6480:	e24cb004 	sub	fp, ip, #4	; 0x4
    6484:	e1a00002 	mov	r0, r2
    6488:	0a00192d 	beq	64bc <fputc+0x58>
    648c:	e1a00005 	mov	r0, r5
    6490:	e1a01004 	mov	r1, r4
    6494:	ebfffffe 	bl	0 <_start>
    6498:	e5943038 	ldr	r3, [r4, #56]
    649c:	e3530000 	cmp	r3, #0	; 0x0
    64a0:	e1a05000 	mov	r5, r0
    64a4:	e284003c 	add	r0, r4, #60	; 0x3c
    64a8:	0a00192b 	beq	64b4 <fputc+0x50>
    64ac:	e1a00005 	mov	r0, r5
    64b0:	e91ba830 	ldmdb	fp, {r4, r5, fp, sp, pc}
    64b4:	ebfffffe 	bl	0 <_start>
    64b8:	ea001929 	b	64ac <fputc+0x48>
    64bc:	ebfffffe 	bl	0 <_start>
    64c0:	ea001921 	b	648c <fputc+0x28>

000064c4 <fputc_unlocked>:
    64c4:	e1a0c00d 	mov	ip, sp
    64c8:	e92dd800 	stmdb	sp!, {fp, ip, lr, pc}
    64cc:	e24cb004 	sub	fp, ip, #4	; 0x4
    64d0:	e24b200c 	sub	r2, fp, #12	; 0xc
    64d4:	e1a03002 	mov	r3, r2
    64d8:	e24dd004 	sub	sp, sp, #4	; 0x4
    64dc:	e5630001 	strb	r0, [r3, -#1]!
    64e0:	e1a02001 	mov	r2, r1
    64e4:	e1a00003 	mov	r0, r3
    64e8:	e3a01001 	mov	r1, #1	; 0x1
    64ec:	ebfffffe 	bl	0 <_start>
    64f0:	e3500000 	cmp	r0, #0	; 0x0
    64f4:	155b000d 	ldrneb	r0, [fp, -#13]
    64f8:	03e00000 	mvneq	r0, #0	; 0x0
    64fc:	e91ba800 	ldmdb	fp, {fp, sp, pc}

00006500 <fputs>:
    6500:	e1a0c00d 	mov	ip, sp
    6504:	e92dd830 	stmdb	sp!, {r4, r5, fp, ip, lr, pc}
    6508:	e1a04001 	mov	r4, r1
    650c:	e5943038 	ldr	r3, [r4, #56]
    6510:	e284203c 	add	r2, r4, #60	; 0x3c
    6514:	e3530000 	cmp	r3, #0	; 0x0
    6518:	e1a05000 	mov	r5, r0
    651c:	e24cb004 	sub	fp, ip, #4	; 0x4
    6520:	e1a00002 	mov	r0, r2
    6524:	0a001954 	beq	6558 <fputs+0x58>
    6528:	e1a00005 	mov	r0, r5
    652c:	e1a01004 	mov	r1, r4
    6530:	ebfffffe 	bl	0 <_start>
    6534:	e5943038 	ldr	r3, [r4, #56]
    6538:	e3530000 	cmp	r3, #0	; 0x0
    653c:	e1a05000 	mov	r5, r0
    6540:	e284003c 	add	r0, r4, #60	; 0x3c
    6544:	0a001952 	beq	6550 <fputs+0x50>
    6548:	e1a00005 	mov	r0, r5
    654c:	e91ba830 	ldmdb	fp, {r4, r5, fp, sp, pc}
    6550:	ebfffffe 	bl	0 <_start>
    6554:	ea001950 	b	6548 <fputs+0x48>
    6558:	ebfffffe 	bl	0 <_start>
    655c:	ea001948 	b	6528 <fputs+0x28>

00006560 <fputs_unlocked>:
    6560:	e1a0c00d 	mov	ip, sp
    6564:	e92dd870 	stmdb	sp!, {r4, r5, r6, fp, ip, lr, pc}
    6568:	e1a06001 	mov	r6, r1
    656c:	e24cb004 	sub	fp, ip, #4	; 0x4
    6570:	e1a05000 	mov	r5, r0
    6574:	ebfffffe 	bl	0 <_start>
    6578:	e1a04000 	mov	r4, r0
    657c:	e1a01004 	mov	r1, r4
    6580:	e1a00005 	mov	r0, r5
    6584:	e1a02006 	mov	r2, r6
    6588:	ebfffffe 	bl	0 <_start>
    658c:	e1500004 	cmp	r0, r4
    6590:	13e04000 	mvnne	r4, #0	; 0x0
    6594:	e1a00004 	mov	r0, r4
    6598:	e91ba870 	ldmdb	fp, {r4, r5, r6, fp, sp, pc}

0000659c <putchar>:
    659c:	e1a0c00d 	mov	ip, sp
    65a0:	e92dd830 	stmdb	sp!, {r4, r5, fp, ip, lr, pc}
    65a4:	e59f5054 	ldr	r5, [pc, #54]	; 6600 <putchar+0x64>
    65a8:	e5953000 	ldr	r3, [r5]
    65ac:	e5932038 	ldr	r2, [r3, #56]
    65b0:	e283103c 	add	r1, r3, #60	; 0x3c
    65b4:	e3520000 	cmp	r2, #0	; 0x0
    65b8:	e1a04000 	mov	r4, r0
    65bc:	e24cb004 	sub	fp, ip, #4	; 0x4
    65c0:	e1a00001 	mov	r0, r1
    65c4:	0a00197c 	beq	65f8 <putchar+0x5c>
    65c8:	e1a00004 	mov	r0, r4
    65cc:	ebfffffe 	bl	0 <_start>
    65d0:	e5953000 	ldr	r3, [r5]
    65d4:	e5932038 	ldr	r2, [r3, #56]
    65d8:	e3520000 	cmp	r2, #0	; 0x0
    65dc:	e1a04000 	mov	r4, r0
    65e0:	e283003c 	add	r0, r3, #60	; 0x3c
    65e4:	0a00197a 	beq	65f0 <putchar+0x54>
    65e8:	e1a00004 	mov	r0, r4
    65ec:	e91ba830 	ldmdb	fp, {r4, r5, fp, sp, pc}
    65f0:	ebfffffe 	bl	0 <_start>
    65f4:	ea001978 	b	65e8 <putchar+0x4c>
    65f8:	ebfffffe 	bl	0 <_start>
    65fc:	ea001970 	b	65c8 <putchar+0x2c>
    6600:	00000000 	andeq	r0, r0, r0

00006604 <putchar_unlocked>:
    6604:	e92d4010 	stmdb	sp!, {r4, lr}
    6608:	e59f3030 	ldr	r3, [pc, #30]	; 6640 <putchar_unlocked+0x3c>
    660c:	e593c000 	ldr	ip, [r3]
    6610:	e59c2014 	ldr	r2, [ip, #20]
    6614:	e59c3020 	ldr	r3, [ip, #32]
    6618:	e1520003 	cmp	r2, r3
    661c:	e1a03000 	mov	r3, r0
    6620:	34c23001 	strccb	r3, [r2], #1
    6624:	e20340ff 	and	r4, r3, #255	; 0xff
    6628:	e1a0100c 	mov	r1, ip
    662c:	31a00004 	movcc	r0, r4
    6630:	358c2014 	strcc	r2, [ip, #20]
    6634:	38bd8010 	ldmccia	sp!, {r4, pc}
    6638:	e8bd4010 	ldmia	sp!, {r4, lr}
    663c:	eafffffe 	b	0 <_start>
    6640:	00000000 	andeq	r0, r0, r0

00006644 <fread>:
    6644:	e1a0c00d 	mov	ip, sp
    6648:	e92dd8f0 	stmdb	sp!, {r4, r5, r6, r7, fp, ip, lr, pc}
    664c:	e1a04003 	mov	r4, r3
    6650:	e5943038 	ldr	r3, [r4, #56]
    6654:	e24cb004 	sub	fp, ip, #4	; 0x4
    6658:	e3530000 	cmp	r3, #0	; 0x0
    665c:	e284c03c 	add	ip, r4, #60	; 0x3c
    6660:	e1a07000 	mov	r7, r0
    6664:	e1a05001 	mov	r5, r1
    6668:	e1a0000c 	mov	r0, ip
    666c:	e1a06002 	mov	r6, r2
    6670:	0a0019a9 	beq	66ac <fread+0x68>
    6674:	e1a01005 	mov	r1, r5
    6678:	e1a03004 	mov	r3, r4
    667c:	e1a02006 	mov	r2, r6
    6680:	e1a00007 	mov	r0, r7
    6684:	ebfffffe 	bl	0 <_start>
    6688:	e5943038 	ldr	r3, [r4, #56]
    668c:	e3530000 	cmp	r3, #0	; 0x0
    6690:	e1a05000 	mov	r5, r0
    6694:	e284003c 	add	r0, r4, #60	; 0x3c
    6698:	0a0019a7 	beq	66a4 <fread+0x60>
    669c:	e1a00005 	mov	r0, r5
    66a0:	e91ba8f0 	ldmdb	fp, {r4, r5, r6, r7, fp, sp, pc}
    66a4:	ebfffffe 	bl	0 <_start>
    66a8:	ea0019a5 	b	669c <fread+0x58>
    66ac:	ebfffffe 	bl	0 <_start>
    66b0:	ea00199b 	b	6674 <fread+0x30>

000066b4 <fread_unlocked>:
    66b4:	e1a0c00d 	mov	ip, sp
    66b8:	e92dd810 	stmdb	sp!, {r4, fp, ip, lr, pc}
    66bc:	e1a04001 	mov	r4, r1
    66c0:	e3540000 	cmp	r4, #0	; 0x0
    66c4:	e1a01002 	mov	r1, r2
    66c8:	e24cb004 	sub	fp, ip, #4	; 0x4
    66cc:	e1a02003 	mov	r2, r3
    66d0:	01a00004 	moveq	r0, r4
    66d4:	091ba810 	ldmeqdb	fp, {r4, fp, sp, pc}
    66d8:	e0010194 	mul	r1, r4, r1
    66dc:	ebfffffe 	bl	0 <_start>
    66e0:	e1a01004 	mov	r1, r4
    66e4:	ebfffffe 	bl	0 <_start>
    66e8:	e91ba810 	ldmdb	fp, {r4, fp, sp, pc}

000066ec <fwrite>:
    66ec:	e1a0c00d 	mov	ip, sp
    66f0:	e92dd8f0 	stmdb	sp!, {r4, r5, r6, r7, fp, ip, lr, pc}
    66f4:	e1a04003 	mov	r4, r3
    66f8:	e5943038 	ldr	r3, [r4, #56]
    66fc:	e24cb004 	sub	fp, ip, #4	; 0x4
    6700:	e3530000 	cmp	r3, #0	; 0x0
    6704:	e284c03c 	add	ip, r4, #60	; 0x3c
    6708:	e1a07000 	mov	r7, r0
    670c:	e1a05001 	mov	r5, r1
    6710:	e1a0000c 	mov	r0, ip
    6714:	e1a06002 	mov	r6, r2
    6718:	0a0019d3 	beq	6754 <fwrite+0x68>
    671c:	e1a01005 	mov	r1, r5
    6720:	e1a03004 	mov	r3, r4
    6724:	e1a02006 	mov	r2, r6
    6728:	e1a00007 	mov	r0, r7
    672c:	ebfffffe 	bl	0 <_start>
    6730:	e5943038 	ldr	r3, [r4, #56]
    6734:	e3530000 	cmp	r3, #0	; 0x0
    6738:	e1a05000 	mov	r5, r0
    673c:	e284003c 	add	r0, r4, #60	; 0x3c
    6740:	0a0019d1 	beq	674c <fwrite+0x60>
    6744:	e1a00005 	mov	r0, r5
    6748:	e91ba8f0 	ldmdb	fp, {r4, r5, r6, r7, fp, sp, pc}
    674c:	ebfffffe 	bl	0 <_start>
    6750:	ea0019cf 	b	6744 <fwrite+0x58>
    6754:	ebfffffe 	bl	0 <_start>
    6758:	ea0019c5 	b	671c <fwrite+0x30>

0000675c <fwrite_unlocked>:
    675c:	e1a0c00d 	mov	ip, sp
    6760:	e92dd810 	stmdb	sp!, {r4, fp, ip, lr, pc}
    6764:	e1a04001 	mov	r4, r1
    6768:	e3540000 	cmp	r4, #0	; 0x0
    676c:	e1a01002 	mov	r1, r2
    6770:	e24cb004 	sub	fp, ip, #4	; 0x4
    6774:	e1a02003 	mov	r2, r3
    6778:	01a00004 	moveq	r0, r4
    677c:	091ba810 	ldmeqdb	fp, {r4, fp, sp, pc}
    6780:	e0010194 	mul	r1, r4, r1
    6784:	ebfffffe 	bl	0 <_start>
    6788:	e1a01004 	mov	r1, r4
    678c:	ebfffffe 	bl	0 <_start>
    6790:	e91ba810 	ldmdb	fp, {r4, fp, sp, pc}

00006794 <fseek>:
    6794:	e92d4030 	stmdb	sp!, {r4, r5, lr}
    6798:	e1a04001 	mov	r4, r1
    679c:	e1a05fc4 	mov	r5, r4, asr #31
    67a0:	e1a03002 	mov	r3, r2
    67a4:	e1a02005 	mov	r2, r5
    67a8:	e1a01004 	mov	r1, r4
    67ac:	e8bd4030 	ldmia	sp!, {r4, r5, lr}
    67b0:	eafffffe 	b	0 <_start>

000067b4 <clearerr>:
    67b4:	e1a0c00d 	mov	ip, sp
    67b8:	e92dd810 	stmdb	sp!, {r4, fp, ip, lr, pc}
    67bc:	e1a04000 	mov	r4, r0
    67c0:	e5943038 	ldr	r3, [r4, #56]
    67c4:	e3530000 	cmp	r3, #0	; 0x0
    67c8:	e24cb004 	sub	fp, ip, #4	; 0x4
    67cc:	e284003c 	add	r0, r4, #60	; 0x3c
    67d0:	0a0019fb 	beq	67f4 <clearerr+0x40>
    67d4:	e1a00004 	mov	r0, r4
    67d8:	ebfffffe 	bl	0 <_start>
    67dc:	e5943038 	ldr	r3, [r4, #56]
    67e0:	e3530000 	cmp	r3, #0	; 0x0
    67e4:	e284003c 	add	r0, r4, #60	; 0x3c
    67e8:	191ba810 	ldmnedb	fp, {r4, fp, sp, pc}
    67ec:	e91b6810 	ldmdb	fp, {r4, fp, sp, lr}
    67f0:	eafffffe 	b	0 <_start>
    67f4:	ebfffffe 	bl	0 <_start>
    67f8:	ea0019f3 	b	67d4 <clearerr+0x20>

000067fc <clearerr_unlocked>:
    67fc:	e1d030b0 	ldrh	r3, [r0]
    6800:	e3c3300c 	bic	r3, r3, #12	; 0xc
    6804:	e1c030b0 	strh	r3, [r0]
    6808:	e1a0f00e 	mov	pc, lr

0000680c <feof>:
    680c:	e1a0c00d 	mov	ip, sp
    6810:	e92dd830 	stmdb	sp!, {r4, r5, fp, ip, lr, pc}
    6814:	e1a04000 	mov	r4, r0
    6818:	e5943038 	ldr	r3, [r4, #56]
    681c:	e3530000 	cmp	r3, #0	; 0x0
    6820:	e24cb004 	sub	fp, ip, #4	; 0x4
    6824:	e284003c 	add	r0, r4, #60	; 0x3c
    6828:	0a001a14 	beq	6858 <feof+0x4c>
    682c:	e1a00004 	mov	r0, r4
    6830:	ebfffffe 	bl	0 <_start>
    6834:	e5943038 	ldr	r3, [r4, #56]
    6838:	e3530000 	cmp	r3, #0	; 0x0
    683c:	e1a05000 	mov	r5, r0
    6840:	e284003c 	add	r0, r4, #60	; 0x3c
    6844:	0a001a12 	beq	6850 <feof+0x44>
    6848:	e1a00005 	mov	r0, r5
    684c:	e91ba830 	ldmdb	fp, {r4, r5, fp, sp, pc}
    6850:	ebfffffe 	bl	0 <_start>
    6854:	ea001a10 	b	6848 <feof+0x3c>
    6858:	ebfffffe 	bl	0 <_start>
    685c:	ea001a09 	b	682c <feof+0x20>

00006860 <feof_unlocked>:
    6860:	e1d000b0 	ldrh	r0, [r0]
    6864:	e2000004 	and	r0, r0, #4	; 0x4
    6868:	e1a0f00e 	mov	pc, lr

0000686c <ferror>:
    686c:	e1a0c00d 	mov	ip, sp
    6870:	e92dd830 	stmdb	sp!, {r4, r5, fp, ip, lr, pc}
    6874:	e1a04000 	mov	r4, r0
    6878:	e5943038 	ldr	r3, [r4, #56]
    687c:	e3530000 	cmp	r3, #0	; 0x0
    6880:	e24cb004 	sub	fp, ip, #4	; 0x4
    6884:	e284003c 	add	r0, r4, #60	; 0x3c
    6888:	0a001a2c 	beq	68b8 <ferror+0x4c>
    688c:	e1a00004 	mov	r0, r4
    6890:	ebfffffe 	bl	0 <_start>
    6894:	e5943038 	ldr	r3, [r4, #56]
    6898:	e3530000 	cmp	r3, #0	; 0x0
    689c:	e1a05000 	mov	r5, r0
    68a0:	e284003c 	add	r0, r4, #60	; 0x3c
    68a4:	0a001a2a 	beq	68b0 <ferror+0x44>
    68a8:	e1a00005 	mov	r0, r5
    68ac:	e91ba830 	ldmdb	fp, {r4, r5, fp, sp, pc}
    68b0:	ebfffffe 	bl	0 <_start>
    68b4:	ea001a28 	b	68a8 <ferror+0x3c>
    68b8:	ebfffffe 	bl	0 <_start>
    68bc:	ea001a21 	b	688c <ferror+0x20>

000068c0 <ferror_unlocked>:
    68c0:	e1d000b0 	ldrh	r0, [r0]
    68c4:	e2000008 	and	r0, r0, #8	; 0x8
    68c8:	e1a0f00e 	mov	pc, lr

000068cc <fileno>:
    68cc:	e1a0c00d 	mov	ip, sp
    68d0:	e92dd830 	stmdb	sp!, {r4, r5, fp, ip, lr, pc}
    68d4:	e1a04000 	mov	r4, r0
    68d8:	e5943038 	ldr	r3, [r4, #56]
    68dc:	e3530000 	cmp	r3, #0	; 0x0
    68e0:	e24cb004 	sub	fp, ip, #4	; 0x4
    68e4:	e284003c 	add	r0, r4, #60	; 0x3c
    68e8:	0a001a44 	beq	6918 <fileno+0x4c>
    68ec:	e1a00004 	mov	r0, r4
    68f0:	ebfffffe 	bl	0 <_start>
    68f4:	e5943038 	ldr	r3, [r4, #56]
    68f8:	e3530000 	cmp	r3, #0	; 0x0
    68fc:	e1a05000 	mov	r5, r0
    6900:	e284003c 	add	r0, r4, #60	; 0x3c
    6904:	0a001a42 	beq	6910 <fileno+0x44>
    6908:	e1a00005 	mov	r0, r5
    690c:	e91ba830 	ldmdb	fp, {r4, r5, fp, sp, pc}
    6910:	ebfffffe 	bl	0 <_start>
    6914:	ea001a40 	b	6908 <fileno+0x3c>
    6918:	ebfffffe 	bl	0 <_start>
    691c:	ea001a39 	b	68ec <fileno+0x20>

00006920 <fileno_unlocked>:
    6920:	e1a0c00d 	mov	ip, sp
    6924:	e3500000 	cmp	r0, #0	; 0x0
    6928:	e92dd800 	stmdb	sp!, {fp, ip, lr, pc}
    692c:	e2802004 	add	r2, r0, #4	; 0x4
    6930:	e24cb004 	sub	fp, ip, #4	; 0x4
    6934:	0a001a4f 	beq	6944 <fileno_unlocked+0x24>
    6938:	e5903024 	ldr	r3, [r0, #36]
    693c:	e1530002 	cmp	r3, r2
    6940:	0a001a54 	beq	6958 <fileno_unlocked+0x38>
    6944:	ebfffffe 	bl	0 <_start>
    6948:	e3a03009 	mov	r3, #9	; 0x9
    694c:	e5803000 	str	r3, [r0]
    6950:	e3e00000 	mvn	r0, #0	; 0x0
    6954:	e91ba800 	ldmdb	fp, {fp, sp, pc}
    6958:	e5903004 	ldr	r3, [r0, #4]
    695c:	e2530000 	subs	r0, r3, #0	; 0x0
    6960:	a91ba800 	ldmgedb	fp, {fp, sp, pc}
    6964:	ea001a4f 	b	6944 <fileno_unlocked+0x24>

00006968 <fseeko64>:
    6968:	e1a0c00d 	mov	ip, sp
    696c:	e92dd8f0 	stmdb	sp!, {r4, r5, r6, r7, fp, ip, lr, pc}
    6970:	e1a07003 	mov	r7, r3
    6974:	e24cb004 	sub	fp, ip, #4	; 0x4
    6978:	e24dd008 	sub	sp, sp, #8	; 0x8
    697c:	e3570002 	cmp	r7, #2	; 0x2
    6980:	e1a04000 	mov	r4, r0
    6984:	e1a06002 	mov	r6, r2
    6988:	e1a05001 	mov	r5, r1
    698c:	9a001a68 	bls	69a8 <fseeko64+0x40>
    6990:	ebfffffe 	bl	0 <_start>
    6994:	e3a03016 	mov	r3, #22	; 0x16
    6998:	e1a02000 	mov	r2, r0
    699c:	e3e00000 	mvn	r0, #0	; 0x0
    69a0:	e5823000 	str	r3, [r2]
    69a4:	e91ba8f0 	ldmdb	fp, {r4, r5, r6, r7, fp, sp, pc}
    69a8:	e5943038 	ldr	r3, [r4, #56]
    69ac:	e3530000 	cmp	r3, #0	; 0x0
    69b0:	0a001a99 	beq	6a6c <fseeko64+0x104>
    69b4:	e1d430b0 	ldrh	r3, [r4]
    69b8:	e3130a02 	tst	r3, #8192	; 0x2000
    69bc:	e24b3020 	sub	r3, fp, #32	; 0x20
    69c0:	e8030060 	stmda	r3, {r5, r6}
    69c4:	e3e06000 	mvn	r6, #0	; 0x0
    69c8:	0a001a7d 	beq	69fc <fseeko64+0x94>
    69cc:	e1a00004 	mov	r0, r4
    69d0:	ebfffffe 	bl	0 <_start>
    69d4:	e3500000 	cmp	r0, #0	; 0x0
    69d8:	0a001a7d 	beq	69fc <fseeko64+0x94>
    69dc:	e5943038 	ldr	r3, [r4, #56]
    69e0:	e3530000 	cmp	r3, #0	; 0x0
    69e4:	0a001a7a 	beq	69f0 <fseeko64+0x88>
    69e8:	e1a00006 	mov	r0, r6
    69ec:	e91ba8f0 	ldmdb	fp, {r4, r5, r6, r7, fp, sp, pc}
    69f0:	e284003c 	add	r0, r4, #60	; 0x3c
    69f4:	ebfffffe 	bl	0 <_start>
    69f8:	ea001a78 	b	69e8 <fseeko64+0x80>
    69fc:	e3570001 	cmp	r7, #1	; 0x1
    6a00:	0a001a92 	beq	6a50 <fseeko64+0xe8>
    6a04:	e24b5024 	sub	r5, fp, #36	; 0x24
    6a08:	e1a01005 	mov	r1, r5
    6a0c:	e1a02007 	mov	r2, r7
    6a10:	e1a00004 	mov	r0, r4
    6a14:	ebfffffe 	bl	0 <_start>
    6a18:	e3500000 	cmp	r0, #0	; 0x0
    6a1c:	ba001a75 	blt	69dc <fseeko64+0x74>
    6a20:	e1d430b0 	ldrh	r3, [r4]
    6a24:	e3c33a03 	bic	r3, r3, #12288	; 0x3000
    6a28:	e3c33007 	bic	r3, r3, #7	; 0x7
    6a2c:	e594200c 	ldr	r2, [r4, #12]
    6a30:	e1a03803 	mov	r3, r3, lsl #16
    6a34:	e1a03823 	mov	r3, r3, lsr #16
    6a38:	e584201c 	str	r2, [r4, #28]
    6a3c:	e1c430b0 	strh	r3, [r4]
    6a40:	e5842018 	str	r2, [r4, #24]
    6a44:	e5842014 	str	r2, [r4, #20]
    6a48:	e3a06000 	mov	r6, #0	; 0x0
    6a4c:	ea001a75 	b	69dc <fseeko64+0x74>
    6a50:	e24b5024 	sub	r5, fp, #36	; 0x24
    6a54:	e1a00004 	mov	r0, r4
    6a58:	e1a01005 	mov	r1, r5
    6a5c:	ebfffffe 	bl	0 <_start>
    6a60:	e3500000 	cmp	r0, #0	; 0x0
    6a64:	ba001a75 	blt	69dc <fseeko64+0x74>
    6a68:	ea001a80 	b	6a08 <fseeko64+0xa0>
    6a6c:	e284003c 	add	r0, r4, #60	; 0x3c
    6a70:	ebfffffe 	bl	0 <_start>
    6a74:	ea001a6b 	b	69b4 <fseeko64+0x4c>

00006a78 <_stdio_fopen>:
    6a78:	e1a0c00d 	mov	ip, sp
    6a7c:	e92dd8f0 	stmdb	sp!, {r4, r5, r6, r7, fp, ip, lr, pc}
    6a80:	e24cb004 	sub	fp, ip, #4	; 0x4
    6a84:	e5d1c000 	ldrb	ip, [r1]
    6a88:	e35c0072 	cmp	ip, #114	; 0x72
    6a8c:	e1a07000 	mov	r7, r0
    6a90:	e1a06002 	mov	r6, r2
    6a94:	e1a05003 	mov	r5, r3
    6a98:	e3a04000 	mov	r4, #0	; 0x0
    6a9c:	0a001abf 	beq	6b04 <_stdio_fopen+0x8c>
    6aa0:	e2844d09 	add	r4, r4, #576	; 0x240
    6aa4:	e35c0077 	cmp	ip, #119	; 0x77
    6aa8:	e2844001 	add	r4, r4, #1	; 0x1
    6aac:	0a001abf 	beq	6b04 <_stdio_fopen+0x8c>
    6ab0:	e3a04d11 	mov	r4, #1088	; 0x440
    6ab4:	e35c0061 	cmp	ip, #97	; 0x61
    6ab8:	e2844001 	add	r4, r4, #1	; 0x1
    6abc:	0a001abf 	beq	6b04 <_stdio_fopen+0x8c>
    6ac0:	ebfffffe 	bl	0 <_start>
    6ac4:	e3a03016 	mov	r3, #22	; 0x16
    6ac8:	e3560000 	cmp	r6, #0	; 0x0
    6acc:	e5803000 	str	r3, [r0]
    6ad0:	0a001abd 	beq	6afc <_stdio_fopen+0x84>
    6ad4:	e1d630b0 	ldrh	r3, [r6]
    6ad8:	e3130901 	tst	r3, #16384	; 0x4000
    6adc:	0a001ab9 	beq	6aec <_stdio_fopen+0x74>
    6ae0:	e596000c 	ldr	r0, [r6, #12]
    6ae4:	ebfffffe 	bl	0 <_start>
    6ae8:	e1d630b0 	ldrh	r3, [r6]
    6aec:	e3130040 	tst	r3, #64	; 0x40
    6af0:	0a001abd 	beq	6afc <_stdio_fopen+0x84>
    6af4:	e1a00006 	mov	r0, r6
    6af8:	ebfffffe 	bl	0 <_start>
    6afc:	e3a00000 	mov	r0, #0	; 0x0
    6b00:	e91ba8f0 	ldmdb	fp, {r4, r5, r6, r7, fp, sp, pc}
    6b04:	e5f13001 	ldrb	r3, [r1, #1]!
    6b08:	e3530062 	cmp	r3, #98	; 0x62
    6b0c:	05f13001 	ldreqb	r3, [r1, #1]!
    6b10:	e353002b 	cmp	r3, #43	; 0x2b
    6b14:	05f13001 	ldreqb	r3, [r1, #1]!
    6b18:	03c44001 	biceq	r4, r4, #1	; 0x1
    6b1c:	03844002 	orreq	r4, r4, #2	; 0x2
    6b20:	e31300ff 	tst	r3, #255	; 0xff
    6b24:	0a001ad2 	beq	6b50 <_stdio_fopen+0xd8>
    6b28:	e20330ff 	and	r3, r3, #255	; 0xff
    6b2c:	e2811001 	add	r1, r1, #1	; 0x1
    6b30:	e3530078 	cmp	r3, #120	; 0x78
    6b34:	e4d13001 	ldrb	r3, [r1], #1
    6b38:	03844080 	orreq	r4, r4, #128	; 0x80
    6b3c:	e3530046 	cmp	r3, #70	; 0x46
    6b40:	e5d13000 	ldrb	r3, [r1]
    6b44:	03844802 	orreq	r4, r4, #131072	; 0x20000
    6b48:	e3530000 	cmp	r3, #0	; 0x0
    6b4c:	1a001ac8 	bne	6b28 <_stdio_fopen+0xb0>
    6b50:	e3560000 	cmp	r6, #0	; 0x0
    6b54:	0a001b27 	beq	6ca4 <_stdio_fopen+0x22c>
    6b58:	e3550000 	cmp	r5, #0	; 0x0
    6b5c:	ba001b1e 	blt	6c80 <_stdio_fopen+0x208>
    6b60:	e3c434ff 	bic	r3, r4, #-16777216	; 0xff000000
    6b64:	e3c338fd 	bic	r3, r3, #16580608	; 0xfd0000
    6b68:	e3c33cff 	bic	r3, r3, #65280	; 0xff00
    6b6c:	e3c330fc 	bic	r3, r3, #252	; 0xfc
    6b70:	e2833001 	add	r3, r3, #1	; 0x1
    6b74:	e2872001 	add	r2, r7, #1	; 0x1
    6b78:	e0032002 	and	r2, r3, r2
    6b7c:	e1520003 	cmp	r2, r3
    6b80:	0a001b13 	beq	6c54 <_stdio_fopen+0x1dc>
    6b84:	ebfffffe 	bl	0 <_start>
    6b88:	e3a03016 	mov	r3, #22	; 0x16
    6b8c:	e5803000 	str	r3, [r0]
    6b90:	e3e05000 	mvn	r5, #0	; 0x0
    6b94:	e2073802 	and	r3, r7, #131072	; 0x20000
    6b98:	e1844003 	orr	r4, r4, r3
    6b9c:	e5865004 	str	r5, [r6, #4]
    6ba0:	e5960004 	ldr	r0, [r6, #4]
    6ba4:	e3500000 	cmp	r0, #0	; 0x0
    6ba8:	ba001ab3 	blt	6ad4 <_stdio_fopen+0x5c>
    6bac:	ebfffffe 	bl	0 <_start>
    6bb0:	e2043003 	and	r3, r4, #3	; 0x3
    6bb4:	e2042b01 	and	r2, r4, #1024	; 0x400
    6bb8:	e2833001 	add	r3, r3, #1	; 0x1
    6bbc:	e1d610b0 	ldrh	r1, [r6]
    6bc0:	e1822400 	orr	r2, r2, r0, lsl #8
    6bc4:	e2233003 	eor	r3, r3, #3	; 0x3
    6bc8:	e1822203 	orr	r2, r2, r3, lsl #4
    6bcc:	e59f311c 	ldr	r3, [pc, #11c]	; 6cf0 <_stdio_fopen+0x278>
    6bd0:	e1811002 	orr	r1, r1, r2
    6bd4:	e1a0c124 	mov	ip, r4, lsr #2
    6bd8:	e2862004 	add	r2, r6, #4	; 0x4
    6bdc:	e596e00c 	ldr	lr, [r6, #12]
    6be0:	e5862024 	str	r2, [r6, #36]
    6be4:	e5863028 	str	r3, [r6, #40]
    6be8:	e59f2104 	ldr	r2, [pc, #104]	; 6cf4 <_stdio_fopen+0x27c>
    6bec:	e59f3104 	ldr	r3, [pc, #104]	; 6cf8 <_stdio_fopen+0x280>
    6bf0:	e20cc902 	and	ip, ip, #32768	; 0x8000
    6bf4:	e18cc001 	orr	ip, ip, r1
    6bf8:	e3a04000 	mov	r4, #0	; 0x0
    6bfc:	e59f50f8 	ldr	r5, [pc, #f8]	; 6cfc <_stdio_fopen+0x284>
    6c00:	e1c6c0b0 	strh	ip, [r6]
    6c04:	e586e01c 	str	lr, [r6, #28]
    6c08:	e586202c 	str	r2, [r6, #44]
    6c0c:	e5863034 	str	r3, [r6, #52]
    6c10:	e586e018 	str	lr, [r6, #24]
    6c14:	e586e014 	str	lr, [r6, #20]
    6c18:	e586e020 	str	lr, [r6, #32]
    6c1c:	e286003c 	add	r0, r6, #60	; 0x3c
    6c20:	e5864038 	str	r4, [r6, #56]
    6c24:	e5864030 	str	r4, [r6, #48]
    6c28:	ebfffffe 	bl	0 <_start>
    6c2c:	e1a00005 	mov	r0, r5
    6c30:	ebfffffe 	bl	0 <_start>
    6c34:	e59f20c4 	ldr	r2, [pc, #c4]	; 6d00 <_stdio_fopen+0x288>
    6c38:	e5923000 	ldr	r3, [r2]
    6c3c:	e1a00005 	mov	r0, r5
    6c40:	e5863008 	str	r3, [r6, #8]
    6c44:	e5826000 	str	r6, [r2]
    6c48:	ebfffffe 	bl	0 <_start>
    6c4c:	e1a00006 	mov	r0, r6
    6c50:	e91ba8f0 	ldmdb	fp, {r4, r5, r6, r7, fp, sp, pc}
    6c54:	e3140b01 	tst	r4, #1024	; 0x400
    6c58:	0a001ae3 	beq	6b94 <_stdio_fopen+0x11c>
    6c5c:	e3170b01 	tst	r7, #1024	; 0x400
    6c60:	1a001ae3 	bne	6b94 <_stdio_fopen+0x11c>
    6c64:	e1a00005 	mov	r0, r5
    6c68:	e3a01004 	mov	r1, #4	; 0x4
    6c6c:	e3a02b01 	mov	r2, #1024	; 0x400
    6c70:	ebfffffe 	bl	0 <_start>
    6c74:	e3500000 	cmp	r0, #0	; 0x0
    6c78:	1a001adf 	bne	6b84 <_stdio_fopen+0x10c>
    6c7c:	ea001ae3 	b	6b94 <_stdio_fopen+0x11c>
    6c80:	e3750001 	cmn	r5, #1	; 0x1
    6c84:	b3844802 	orrlt	r4, r4, #131072	; 0x20000
    6c88:	e3a02f6d 	mov	r2, #436	; 0x1b4
    6c8c:	e2822002 	add	r2, r2, #2	; 0x2
    6c90:	e1a00007 	mov	r0, r7
    6c94:	e1a01004 	mov	r1, r4
    6c98:	ebfffffe 	bl	0 <_start>
    6c9c:	e5860004 	str	r0, [r6, #4]
    6ca0:	ea001ae6 	b	6ba0 <_stdio_fopen+0x128>
    6ca4:	e3a00054 	mov	r0, #84	; 0x54
    6ca8:	ebfffffe 	bl	0 <_start>
    6cac:	e1a06000 	mov	r6, r0
    6cb0:	e3560000 	cmp	r6, #0	; 0x0
    6cb4:	091ba8f0 	ldmeqdb	fp, {r4, r5, r6, r7, fp, sp, pc}
    6cb8:	e3a03040 	mov	r3, #64	; 0x40
    6cbc:	e1c630b0 	strh	r3, [r6]
    6cc0:	e3a00c01 	mov	r0, #256	; 0x100
    6cc4:	ebfffffe 	bl	0 <_start>
    6cc8:	e3500000 	cmp	r0, #0	; 0x0
    6ccc:	11d630b0 	ldrneh	r3, [r6]
    6cd0:	12802c01 	addne	r2, r0, #256	; 0x100
    6cd4:	13833901 	orrne	r3, r3, #16384	; 0x4000
    6cd8:	e586000c 	str	r0, [r6, #12]
    6cdc:	15862010 	strne	r2, [r6, #16]
    6ce0:	11c630b0 	strneh	r3, [r6]
    6ce4:	0586000c 	streq	r0, [r6, #12]
    6ce8:	05860010 	streq	r0, [r6, #16]
    6cec:	ea001ad4 	b	6b58 <_stdio_fopen+0xe0>
	...

00006d04 <_stdio_READ>:
    6d04:	e1a0c00d 	mov	ip, sp
    6d08:	e92dd830 	stmdb	sp!, {r4, r5, fp, ip, lr, pc}
    6d0c:	e1a04002 	mov	r4, r2
    6d10:	e3540000 	cmp	r4, #0	; 0x0
    6d14:	e1a05000 	mov	r5, r0
    6d18:	e24cb004 	sub	fp, ip, #4	; 0x4
    6d1c:	01a00004 	moveq	r0, r4
    6d20:	091ba830 	ldmeqdb	fp, {r4, r5, fp, sp, pc}
    6d24:	e5953028 	ldr	r3, [r5, #40]
    6d28:	b3e04102 	mvnlt	r4, #-2147483648	; 0x80000000
    6d2c:	e3530000 	cmp	r3, #0	; 0x0
    6d30:	03e00000 	mvneq	r0, #0	; 0x0
    6d34:	15950024 	ldrne	r0, [r5, #36]
    6d38:	11a02004 	movne	r2, r4
    6d3c:	11a0e00f 	movne	lr, pc
    6d40:	11a0f003 	movne	pc, r3
    6d44:	e3500000 	cmp	r0, #0	; 0x0
    6d48:	da001b55 	ble	6d5c <_stdio_READ+0x58>
    6d4c:	e1500004 	cmp	r0, r4
    6d50:	991ba830 	ldmlsdb	fp, {r4, r5, fp, sp, pc}
    6d54:	e1a00004 	mov	r0, r4
    6d58:	e91ba830 	ldmdb	fp, {r4, r5, fp, sp, pc}
    6d5c:	01d530b0 	ldreqh	r3, [r5]
    6d60:	11d530b0 	ldrneh	r3, [r5]
    6d64:	03833004 	orreq	r3, r3, #4	; 0x4
    6d68:	13833008 	orrne	r3, r3, #8	; 0x8
    6d6c:	01c530b0 	streqh	r3, [r5]
    6d70:	11c530b0 	strneh	r3, [r5]
    6d74:	13a00000 	movne	r0, #0	; 0x0
    6d78:	e91ba830 	ldmdb	fp, {r4, r5, fp, sp, pc}

00006d7c <_stdio_fread>:
    6d7c:	e1a0c00d 	mov	ip, sp
    6d80:	e92dd8f0 	stmdb	sp!, {r4, r5, r6, r7, fp, ip, lr, pc}
    6d84:	e1a04002 	mov	r4, r2
    6d88:	e24cb004 	sub	fp, ip, #4	; 0x4
    6d8c:	e1d4c0b0 	ldrh	ip, [r4]
    6d90:	e21c6010 	ands	r6, ip, #16	; 0x10
    6d94:	e1a07000 	mov	r7, r0
    6d98:	e1a05001 	mov	r5, r1
    6d9c:	0a001b70 	beq	6dc8 <_stdio_fread+0x4c>
    6da0:	e594200c 	ldr	r2, [r4, #12]
    6da4:	e38c3008 	orr	r3, ip, #8	; 0x8
    6da8:	e1c430b0 	strh	r3, [r4]
    6dac:	e5842020 	str	r2, [r4, #32]
    6db0:	ebfffffe 	bl	0 <_start>
    6db4:	e3a03009 	mov	r3, #9	; 0x9
    6db8:	e1a02000 	mov	r2, r0
    6dbc:	e3a00000 	mov	r0, #0	; 0x0
    6dc0:	e5823000 	str	r3, [r2]
    6dc4:	e91ba8f0 	ldmdb	fp, {r4, r5, r6, r7, fp, sp, pc}
    6dc8:	e594300c 	ldr	r3, [r4, #12]
    6dcc:	e31c0c03 	tst	ip, #768	; 0x300
    6dd0:	e5843020 	str	r3, [r4, #32]
    6dd4:	e584301c 	str	r3, [r4, #28]
    6dd8:	0a001b77 	beq	6de4 <_stdio_fread+0x68>
    6ddc:	e59f013c 	ldr	r0, [pc, #13c]	; 6f20 <_stdio_fread+0x1a4>
    6de0:	ebfffffe 	bl	0 <_start>
    6de4:	e1d430b0 	ldrh	r3, [r4]
    6de8:	e3130a02 	tst	r3, #8192	; 0x2000
    6dec:	0a001b80 	beq	6e08 <_stdio_fread+0x8c>
    6df0:	e1a00004 	mov	r0, r4
    6df4:	ebfffffe 	bl	0 <_start>
    6df8:	e3700001 	cmn	r0, #1	; 0x1
    6dfc:	01a00006 	moveq	r0, r6
    6e00:	091ba8f0 	ldmeqdb	fp, {r4, r5, r6, r7, fp, sp, pc}
    6e04:	e1d430b0 	ldrh	r3, [r4]
    6e08:	e3833a01 	orr	r3, r3, #4096	; 0x1000
    6e0c:	e3550000 	cmp	r5, #0	; 0x0
    6e10:	e1c430b0 	strh	r3, [r4]
    6e14:	e1a06007 	mov	r6, r7
    6e18:	0a001bb4 	beq	6ed8 <_stdio_fread+0x15c>
    6e1c:	e3130003 	tst	r3, #3	; 0x3
    6e20:	0a001b96 	beq	6e60 <_stdio_fread+0xe4>
    6e24:	e3a01cff 	mov	r1, #65280	; 0xff00
    6e28:	e28110ff 	add	r1, r1, #255	; 0xff
    6e2c:	e2840002 	add	r0, r4, #2	; 0x2
    6e30:	e3a0c000 	mov	ip, #0	; 0x0
    6e34:	e0833001 	add	r3, r3, r1
    6e38:	e1c430b0 	strh	r3, [r4]
    6e3c:	e2033003 	and	r3, r3, #3	; 0x3
    6e40:	e7d02003 	ldrb	r2, [r0, r3]
    6e44:	e2555001 	subs	r5, r5, #1	; 0x1
    6e48:	e4c62001 	strb	r2, [r6], #1
    6e4c:	e5c4c003 	strb	ip, [r4, #3]
    6e50:	0a001bb4 	beq	6ed8 <_stdio_fread+0x15c>
    6e54:	e1d430b0 	ldrh	r3, [r4]
    6e58:	e3130003 	tst	r3, #3	; 0x3
    6e5c:	1a001b8b 	bne	6e34 <_stdio_fread+0xb8>
    6e60:	e3550000 	cmp	r5, #0	; 0x0
    6e64:	0a001bb4 	beq	6ed8 <_stdio_fread+0x15c>
    6e68:	e5941014 	ldr	r1, [r4, #20]
    6e6c:	ea001ba0 	b	6e88 <_stdio_fread+0x10c>
    6e70:	e4d12001 	ldrb	r2, [r1], #1
    6e74:	e2555001 	subs	r5, r5, #1	; 0x1
    6e78:	e1a03001 	mov	r3, r1
    6e7c:	e4c62001 	strb	r2, [r6], #1
    6e80:	e5843014 	str	r3, [r4, #20]
    6e84:	0a001bb4 	beq	6ed8 <_stdio_fread+0x15c>
    6e88:	e5943018 	ldr	r3, [r4, #24]
    6e8c:	e1510003 	cmp	r1, r3
    6e90:	3a001b9a 	bcc	6e70 <_stdio_fread+0xf4>
    6e94:	e3550000 	cmp	r5, #0	; 0x0
    6e98:	0a001bb4 	beq	6ed8 <_stdio_fread+0x15c>
    6e9c:	e284100c 	add	r1, r4, #12	; 0xc
    6ea0:	e891000a 	ldmia	r1, {r1, r3}
    6ea4:	e0612003 	rsb	r2, r1, r3
    6ea8:	e1550002 	cmp	r5, r2
    6eac:	e5841018 	str	r1, [r4, #24]
    6eb0:	e5841014 	str	r1, [r4, #20]
    6eb4:	9a001bbe 	bls	6f00 <_stdio_fread+0x184>
    6eb8:	e1a01006 	mov	r1, r6
    6ebc:	e1a02005 	mov	r2, r5
    6ec0:	e1a00004 	mov	r0, r4
    6ec4:	eb001b3f 	bl	6d04 <_stdio_READ>
    6ec8:	e3500000 	cmp	r0, #0	; 0x0
    6ecc:	c0605005 	rsbgt	r5, r0, r5
    6ed0:	c0866000 	addgt	r6, r6, r0
    6ed4:	ca001b96 	bgt	6e60 <_stdio_fread+0xe4>
    6ed8:	e1d430b0 	ldrh	r3, [r4]
    6edc:	e3c33e4f 	bic	r3, r3, #1264	; 0x4f0
    6ee0:	e3c33004 	bic	r3, r3, #4	; 0x4
    6ee4:	e1a03a03 	mov	r3, r3, lsl #20
    6ee8:	e1a03a23 	mov	r3, r3, lsr #20
    6eec:	e3530000 	cmp	r3, #0	; 0x0
    6ef0:	05943018 	ldreq	r3, [r4, #24]
    6ef4:	e0670006 	rsb	r0, r7, r6
    6ef8:	0584301c 	streq	r3, [r4, #28]
    6efc:	e91ba8f0 	ldmdb	fp, {r4, r5, r6, r7, fp, sp, pc}
    6f00:	e1a00004 	mov	r0, r4
    6f04:	eb001b3f 	bl	6d04 <_stdio_READ>
    6f08:	e3500000 	cmp	r0, #0	; 0x0
    6f0c:	da001bb4 	ble	6ed8 <_stdio_fread+0x15c>
    6f10:	e5943018 	ldr	r3, [r4, #24]
    6f14:	e0833000 	add	r3, r3, r0
    6f18:	e5843018 	str	r3, [r4, #24]
    6f1c:	ea001b96 	b	6e60 <_stdio_fread+0xe4>
    6f20:	00000000 	andeq	r0, r0, r0

00006f24 <_stdio_WRITE>:
    6f24:	e1a0c00d 	mov	ip, sp
    6f28:	e92dd9f0 	stmdb	sp!, {r4, r5, r6, r7, r8, fp, ip, lr, pc}
    6f2c:	e1a08002 	mov	r8, r2
    6f30:	e24cb004 	sub	fp, ip, #4	; 0x4
    6f34:	e1a07000 	mov	r7, r0
    6f38:	e1a06001 	mov	r6, r1
    6f3c:	e1a04008 	mov	r4, r8
    6f40:	e3540000 	cmp	r4, #0	; 0x0
    6f44:	a1a05004 	movge	r5, r4
    6f48:	b3e05102 	mvnlt	r5, #-2147483648	; 0x80000000
    6f4c:	e1a01006 	mov	r1, r6
    6f50:	e1a02005 	mov	r2, r5
    6f54:	0a001be5 	beq	6f9c <_stdio_WRITE+0x78>
    6f58:	e597302c 	ldr	r3, [r7, #44]
    6f5c:	e3530000 	cmp	r3, #0	; 0x0
    6f60:	e3e00000 	mvn	r0, #0	; 0x0
    6f64:	0a001bdb 	beq	6f74 <_stdio_WRITE+0x50>
    6f68:	e5970024 	ldr	r0, [r7, #36]
    6f6c:	e1a0e00f 	mov	lr, pc
    6f70:	e1a0f003 	mov	pc, r3
    6f74:	e3500000 	cmp	r0, #0	; 0x0
    6f78:	b1d730b0 	ldrlth	r3, [r7]
    6f7c:	b3833008 	orrlt	r3, r3, #8	; 0x8
    6f80:	b1c730b0 	strlth	r3, [r7]
    6f84:	ba001be5 	blt	6f9c <_stdio_WRITE+0x78>
    6f88:	e1500005 	cmp	r0, r5
    6f8c:	a1a00005 	movge	r0, r5
    6f90:	e0866000 	add	r6, r6, r0
    6f94:	e0604004 	rsb	r4, r0, r4
    6f98:	ea001bce 	b	6f40 <_stdio_WRITE+0x1c>
    6f9c:	e0640008 	rsb	r0, r4, r8
    6fa0:	e91ba9f0 	ldmdb	fp, {r4, r5, r6, r7, r8, fp, sp, pc}

00006fa4 <_stdio_fwrite>:
    6fa4:	e1a0c00d 	mov	ip, sp
    6fa8:	e92dddf0 	stmdb	sp!, {r4, r5, r6, r7, r8, sl, fp, ip, lr, pc}
    6fac:	e24cb004 	sub	fp, ip, #4	; 0x4
    6fb0:	e24dd008 	sub	sp, sp, #8	; 0x8
    6fb4:	e1a05002 	mov	r5, r2
    6fb8:	e1d5c0b0 	ldrh	ip, [r5]
    6fbc:	e21c4020 	ands	r4, ip, #32	; 0x20
    6fc0:	e1a07000 	mov	r7, r0
    6fc4:	e1a08001 	mov	r8, r1
    6fc8:	0a001bf9 	beq	6fec <_stdio_fwrite+0x48>
    6fcc:	e38c3008 	orr	r3, ip, #8	; 0x8
    6fd0:	e1c530b0 	strh	r3, [r5]
    6fd4:	ebfffffe 	bl	0 <_start>
    6fd8:	e3a03009 	mov	r3, #9	; 0x9
    6fdc:	e1a02000 	mov	r2, r0
    6fe0:	e3a00000 	mov	r0, #0	; 0x0
    6fe4:	e5823000 	str	r3, [r2]
    6fe8:	e91badf0 	ldmdb	fp, {r4, r5, r6, r7, r8, sl, fp, sp, pc}
    6fec:	e21c6a01 	ands	r6, ip, #4096	; 0x1000
    6ff0:	0a001c7c 	beq	71f8 <_stdio_fwrite+0x254>
    6ff4:	e2852014 	add	r2, r5, #20	; 0x14
    6ff8:	e892000c 	ldmia	r2, {r2, r3}
    6ffc:	e1520003 	cmp	r2, r3
    7000:	3a001c01 	bcc	700c <_stdio_fwrite+0x68>
    7004:	e31c0003 	tst	ip, #3	; 0x3
    7008:	0a001c0d 	beq	703c <_stdio_fwrite+0x98>
    700c:	e31c0b01 	tst	ip, #1024	; 0x400
    7010:	03a02001 	moveq	r2, #1	; 0x1
    7014:	13a02002 	movne	r2, #2	; 0x2
    7018:	e1a00005 	mov	r0, r5
    701c:	e1a01004 	mov	r1, r4
    7020:	ebfffffe 	bl	0 <_start>
    7024:	e3500000 	cmp	r0, #0	; 0x0
    7028:	11d530b0 	ldrneh	r3, [r5]
    702c:	13833008 	orrne	r3, r3, #8	; 0x8
    7030:	11a00004 	movne	r0, r4
    7034:	11c530b0 	strneh	r3, [r5]
    7038:	191badf0 	ldmnedb	fp, {r4, r5, r6, r7, r8, sl, fp, sp, pc}
    703c:	e595300c 	ldr	r3, [r5, #12]
    7040:	e585301c 	str	r3, [r5, #28]
    7044:	e5853018 	str	r3, [r5, #24]
    7048:	e5853014 	str	r3, [r5, #20]
    704c:	e1d530b0 	ldrh	r3, [r5]
    7050:	e595200c 	ldr	r2, [r5, #12]
    7054:	e3c33a03 	bic	r3, r3, #12288	; 0x3000
    7058:	e3570000 	cmp	r7, #0	; 0x0
    705c:	e5852020 	str	r2, [r5, #32]
    7060:	e1c530b0 	strh	r3, [r5]
    7064:	e1a0a007 	mov	sl, r7
    7068:	e3a00001 	mov	r0, #1	; 0x1
    706c:	0a001c4b 	beq	7134 <_stdio_fwrite+0x190>
    7070:	e5951014 	ldr	r1, [r5, #20]
    7074:	e595300c 	ldr	r3, [r5, #12]
    7078:	e1510003 	cmp	r1, r3
    707c:	e1a0c001 	mov	ip, r1
    7080:	15952010 	ldrne	r2, [r5, #16]
    7084:	1a001c39 	bne	70ec <_stdio_fwrite+0x148>
    7088:	e5952010 	ldr	r2, [r5, #16]
    708c:	e0613002 	rsb	r3, r1, r2
    7090:	e1530008 	cmp	r3, r8
    7094:	8a001c39 	bhi	70ec <_stdio_fwrite+0x148>
    7098:	e5953004 	ldr	r3, [r5, #4]
    709c:	e3730002 	cmn	r3, #2	; 0x2
    70a0:	0a001c39 	beq	70ec <_stdio_fwrite+0x148>
    70a4:	e1a02008 	mov	r2, r8
    70a8:	e1a01007 	mov	r1, r7
    70ac:	e1a00005 	mov	r0, r5
    70b0:	eb001bc7 	bl	6f24 <_stdio_WRITE>
    70b4:	e1d520b0 	ldrh	r2, [r5]
    70b8:	e0877000 	add	r7, r7, r0
    70bc:	e3c23e4f 	bic	r3, r2, #1264	; 0x4f0
    70c0:	e3c33007 	bic	r3, r3, #7	; 0x7
    70c4:	e1a03a03 	mov	r3, r3, lsl #20
    70c8:	e1a03a23 	mov	r3, r3, lsr #20
    70cc:	e3530000 	cmp	r3, #0	; 0x0
    70d0:	05953010 	ldreq	r3, [r5, #16]
    70d4:	01d520b0 	ldreqh	r2, [r5]
    70d8:	05853020 	streq	r3, [r5, #32]
    70dc:	e3823a02 	orr	r3, r2, #8192	; 0x2000
    70e0:	e1c530b0 	strh	r3, [r5]
    70e4:	e06a0007 	rsb	r0, sl, r7
    70e8:	e91badf0 	ldmdb	fp, {r4, r5, r6, r7, r8, sl, fp, sp, pc}
    70ec:	e06c2002 	rsb	r2, ip, r2
    70f0:	e1520008 	cmp	r2, r8
    70f4:	21a02008 	movcs	r2, r8
    70f8:	e3520000 	cmp	r2, #0	; 0x0
    70fc:	e1a06007 	mov	r6, r7
    7100:	e0628008 	rsb	r8, r2, r8
    7104:	0a001c47 	beq	7124 <_stdio_fwrite+0x180>
    7108:	e4d73001 	ldrb	r3, [r7], #1
    710c:	e4c13001 	strb	r3, [r1], #1
    7110:	e2522001 	subs	r2, r2, #1	; 0x1
    7114:	e1a03001 	mov	r3, r1
    7118:	e5853014 	str	r3, [r5, #20]
    711c:	11a01003 	movne	r1, r3
    7120:	1a001c40 	bne	7108 <_stdio_fwrite+0x164>
    7124:	e3500000 	cmp	r0, #0	; 0x0
    7128:	0a001c7a 	beq	71f0 <_stdio_fwrite+0x24c>
    712c:	e3580000 	cmp	r8, #0	; 0x0
    7130:	0a001c6f 	beq	71c4 <_stdio_fwrite+0x220>
    7134:	e5951004 	ldr	r1, [r5, #4]
    7138:	e595200c 	ldr	r2, [r5, #12]
    713c:	e5953014 	ldr	r3, [r5, #20]
    7140:	e3710002 	cmn	r1, #2	; 0x2
    7144:	e0624003 	rsb	r4, r2, r3
    7148:	e1a06002 	mov	r6, r2
    714c:	0a001c67 	beq	71a4 <_stdio_fwrite+0x200>
    7150:	e1a01006 	mov	r1, r6
    7154:	e1a02004 	mov	r2, r4
    7158:	e1a00005 	mov	r0, r5
    715c:	eb001bc7 	bl	6f24 <_stdio_WRITE>
    7160:	e595300c 	ldr	r3, [r5, #12]
    7164:	e0544000 	subs	r4, r4, r0
    7168:	e5853014 	str	r3, [r5, #20]
    716c:	e0866000 	add	r6, r6, r0
    7170:	0a001c61 	beq	718c <_stdio_fwrite+0x1e8>
    7174:	e5952014 	ldr	r2, [r5, #20]
    7178:	e4d63001 	ldrb	r3, [r6], #1
    717c:	e4c23001 	strb	r3, [r2], #1
    7180:	e2544001 	subs	r4, r4, #1	; 0x1
    7184:	e5852014 	str	r2, [r5, #20]
    7188:	1a001c5b 	bne	7174 <_stdio_fwrite+0x1d0>
    718c:	e3570000 	cmp	r7, #0	; 0x0
    7190:	0595300c 	ldreq	r3, [r5, #12]
    7194:	05950014 	ldreq	r0, [r5, #20]
    7198:	00630000 	rsbeq	r0, r3, r0
    719c:	1a001c1a 	bne	7070 <_stdio_fwrite+0xcc>
    71a0:	e91badf0 	ldmdb	fp, {r4, r5, r6, r7, r8, sl, fp, sp, pc}
    71a4:	e1d530b0 	ldrh	r3, [r5]
    71a8:	e3570000 	cmp	r7, #0	; 0x0
    71ac:	e3833a02 	orr	r3, r3, #8192	; 0x2000
    71b0:	e1c530b0 	strh	r3, [r5]
    71b4:	106a3007 	rsbne	r3, sl, r7
    71b8:	10830008 	addne	r0, r3, r8
    71bc:	01a00007 	moveq	r0, r7
    71c0:	e91badf0 	ldmdb	fp, {r4, r5, r6, r7, r8, sl, fp, sp, pc}
    71c4:	e1d520b0 	ldrh	r2, [r5]
    71c8:	e3120c01 	tst	r2, #256	; 0x100
    71cc:	0a001c2d 	beq	70bc <_stdio_fwrite+0x118>
    71d0:	e1560007 	cmp	r6, r7
    71d4:	2a001c2d 	bcs	70bc <_stdio_fwrite+0x118>
    71d8:	e4d63001 	ldrb	r3, [r6], #1
    71dc:	e353000a 	cmp	r3, #10	; 0xa
    71e0:	0a001c4b 	beq	7134 <_stdio_fwrite+0x190>
    71e4:	e1560007 	cmp	r6, r7
    71e8:	3a001c74 	bcc	71d8 <_stdio_fwrite+0x234>
    71ec:	ea001c2d 	b	70bc <_stdio_fwrite+0x118>
    71f0:	e1d520b0 	ldrh	r2, [r5]
    71f4:	ea001c2d 	b	70bc <_stdio_fwrite+0x118>
    71f8:	e20c3b09 	and	r3, ip, #9216	; 0x2400
    71fc:	e3530b01 	cmp	r3, #1024	; 0x400
    7200:	1a001c11 	bne	704c <_stdio_fwrite+0xa8>
    7204:	e24b3024 	sub	r3, fp, #36	; 0x24
    7208:	e1a01003 	mov	r1, r3
    720c:	e3a04000 	mov	r4, #0	; 0x0
    7210:	e3a03000 	mov	r3, #0	; 0x0
    7214:	e9210018 	stmdb	r1!, {r3, r4}
    7218:	e1a00005 	mov	r0, r5
    721c:	e3a02002 	mov	r2, #2	; 0x2
    7220:	ebfffffe 	bl	0 <_start>
    7224:	e3500000 	cmp	r0, #0	; 0x0
    7228:	0a001c11 	beq	704c <_stdio_fwrite+0xa8>
    722c:	ebfffffe 	bl	0 <_start>
    7230:	e5903000 	ldr	r3, [r0]
    7234:	e3530020 	cmp	r3, #32	; 0x20
    7238:	11d530b0 	ldrneh	r3, [r5]
    723c:	13833008 	orrne	r3, r3, #8	; 0x8
    7240:	11a00006 	movne	r0, r6
    7244:	11c530b0 	strneh	r3, [r5]
    7248:	191badf0 	ldmnedb	fp, {r4, r5, r6, r7, r8, sl, fp, sp, pc}
    724c:	ea001c11 	b	704c <_stdio_fwrite+0xa8>

00007250 <_stdio_adjpos>:
    7250:	e92d4010 	stmdb	sp!, {r4, lr}
    7254:	e1d0e0b0 	ldrh	lr, [r0]
    7258:	e31e0a02 	tst	lr, #8192	; 0x2000
    725c:	15903014 	ldrne	r3, [r0, #20]
    7260:	1590200c 	ldrne	r2, [r0, #12]
    7264:	e20ec003 	and	ip, lr, #3	; 0x3
    7268:	10623003 	rsbne	r3, r2, r3
    726c:	1063c00c 	rsbne	ip, r3, ip
    7270:	e31e0a01 	tst	lr, #4096	; 0x1000
    7274:	12802018 	addne	r2, r0, #24	; 0x18
    7278:	1812000c 	ldmneda	r2, {r2, r3}
    727c:	10433002 	subne	r3, r3, r2
    7280:	e1a04001 	mov	r4, r1
    7284:	e8940003 	ldmia	r4, {r0, r1}
    7288:	108cc003 	addne	ip, ip, r3
    728c:	e050200c 	subs	r2, r0, ip
    7290:	e0c13fcc 	sbc	r3, r1, ip, asr #31
    7294:	e1530001 	cmp	r3, r1
    7298:	e26ce000 	rsb	lr, ip, #0	; 0x0
    729c:	e884000c 	stmia	r4, {r2, r3}
    72a0:	ca001cab 	bgt	72b4 <_stdio_adjpos+0x64>
    72a4:	1a001caa 	bne	72b0 <_stdio_adjpos+0x60>
    72a8:	e1520000 	cmp	r2, r0
    72ac:	8a001cab 	bhi	72b4 <_stdio_adjpos+0x64>
    72b0:	e1a0e00c 	mov	lr, ip
    72b4:	e1a0000e 	mov	r0, lr
    72b8:	e8bd8010 	ldmia	sp!, {r4, pc}

000072bc <_stdio_lseek>:
    72bc:	e1a0c00d 	mov	ip, sp
    72c0:	e92dd810 	stmdb	sp!, {r4, fp, ip, lr, pc}
    72c4:	e24cb004 	sub	fp, ip, #4	; 0x4
    72c8:	e590c024 	ldr	ip, [r0, #36]
    72cc:	e2803004 	add	r3, r0, #4	; 0x4
    72d0:	e15c0003 	cmp	ip, r3
    72d4:	e1a04001 	mov	r4, r1
    72d8:	e1a03002 	mov	r3, r2
    72dc:	0a001cc1 	beq	730c <_stdio_lseek+0x50>
    72e0:	e5903030 	ldr	r3, [r0, #48]
    72e4:	e3530000 	cmp	r3, #0	; 0x0
    72e8:	0a001cbf 	beq	7304 <_stdio_lseek+0x48>
    72ec:	e1a0000c 	mov	r0, ip
    72f0:	e1a0e00f 	mov	lr, pc
    72f4:	e1a0f003 	mov	pc, r3
    72f8:	e3500000 	cmp	r0, #0	; 0x0
    72fc:	a3a00000 	movge	r0, #0	; 0x0
    7300:	a91ba810 	ldmgedb	fp, {r4, fp, sp, pc}
    7304:	e3e00000 	mvn	r0, #0	; 0x0
    7308:	e91ba810 	ldmdb	fp, {r4, fp, sp, pc}
    730c:	e5900004 	ldr	r0, [r0, #4]
    7310:	e8940006 	ldmia	r4, {r1, r2}
    7314:	ebfffffe 	bl	0 <_start>
    7318:	e3510000 	cmp	r1, #0	; 0x0
    731c:	b3e03000 	mvnlt	r3, #0	; 0x0
    7320:	a3a03000 	movge	r3, #0	; 0x0
    7324:	a8840003 	stmgeia	r4, {r0, r1}
    7328:	e1a00003 	mov	r0, r3
    732c:	e91ba810 	ldmdb	fp, {r4, fp, sp, pc}

00007330 <_cs_read>:
    7330:	e52de004 	str	lr, [sp, -#4]!
    7334:	e5900000 	ldr	r0, [r0]
    7338:	e49de004 	ldr	lr, [sp], #4
    733c:	eafffffe 	b	0 <_start>

00007340 <_cs_write>:
    7340:	e52de004 	str	lr, [sp, -#4]!
    7344:	e5900000 	ldr	r0, [r0]
    7348:	e49de004 	ldr	lr, [sp], #4
    734c:	eafffffe 	b	0 <_start>

00007350 <_cs_close>:
    7350:	e52de004 	str	lr, [sp, -#4]!
    7354:	e5900000 	ldr	r0, [r0]
    7358:	e49de004 	ldr	lr, [sp], #4
    735c:	eafffffe 	b	0 <_start>

00007360 <__stdio_init_mutex>:
    7360:	e52de004 	str	lr, [sp, -#4]!
    7364:	e59f1008 	ldr	r1, [pc, #8]	; 7374 <__stdio_init_mutex+0x14>
    7368:	e3a02018 	mov	r2, #24	; 0x18
    736c:	e49de004 	ldr	lr, [sp], #4
    7370:	eafffffe 	b	0 <_start>
    7374:	00000ad8 	ldreqd	r0, [r0], -r8

00007378 <_stdio_term>:
    7378:	e1a0c00d 	mov	ip, sp
    737c:	e59f0088 	ldr	r0, [pc, #88]	; 740c <_stdio_term+0x94>
    7380:	e92dd830 	stmdb	sp!, {r4, r5, fp, ip, lr, pc}
    7384:	e24cb004 	sub	fp, ip, #4	; 0x4
    7388:	ebfffffe 	bl	0 <_start>
    738c:	e59f307c 	ldr	r3, [pc, #7c]	; 7410 <_stdio_term+0x98>
    7390:	e5934000 	ldr	r4, [r3]
    7394:	e3540000 	cmp	r4, #0	; 0x0
    7398:	0a001cec 	beq	73b8 <_stdio_term+0x40>
    739c:	e3a05001 	mov	r5, #1	; 0x1
    73a0:	e284003c 	add	r0, r4, #60	; 0x3c
    73a4:	e5845038 	str	r5, [r4, #56]
    73a8:	ebfffffe 	bl	0 <_start>
    73ac:	e5944008 	ldr	r4, [r4, #8]
    73b0:	e3540000 	cmp	r4, #0	; 0x0
    73b4:	1a001ce6 	bne	73a0 <_stdio_term+0x28>
    73b8:	e3a00000 	mov	r0, #0	; 0x0
    73bc:	ebfffffe 	bl	0 <_start>
    73c0:	e59f3048 	ldr	r3, [pc, #48]	; 7410 <_stdio_term+0x98>
    73c4:	e5934000 	ldr	r4, [r3]
    73c8:	e3540000 	cmp	r4, #0	; 0x0
    73cc:	091ba830 	ldmeqdb	fp, {r4, r5, fp, sp, pc}
    73d0:	e5940024 	ldr	r0, [r4, #36]
    73d4:	e2843004 	add	r3, r4, #4	; 0x4
    73d8:	e1500003 	cmp	r0, r3
    73dc:	0a001cfd 	beq	73fc <_stdio_term+0x84>
    73e0:	e5943034 	ldr	r3, [r4, #52]
    73e4:	e3530000 	cmp	r3, #0	; 0x0
    73e8:	0a001cfb 	beq	73f4 <_stdio_term+0x7c>
    73ec:	e1a0e00f 	mov	lr, pc
    73f0:	e1a0f003 	mov	pc, r3
    73f4:	e3a03000 	mov	r3, #0	; 0x0
    73f8:	e5843024 	str	r3, [r4, #36]
    73fc:	e5944008 	ldr	r4, [r4, #8]
    7400:	e3540000 	cmp	r4, #0	; 0x0
    7404:	1a001cf2 	bne	73d0 <_stdio_term+0x58>
    7408:	e91ba830 	ldmdb	fp, {r4, r5, fp, sp, pc}
	...

00007414 <_stdio_init>:
    7414:	e1a0c00d 	mov	ip, sp
    7418:	e3a00000 	mov	r0, #0	; 0x0
    741c:	e92dd810 	stmdb	sp!, {r4, fp, ip, lr, pc}
    7420:	e24cb004 	sub	fp, ip, #4	; 0x4
    7424:	ebfffffe 	bl	0 <_start>
    7428:	e59f4028 	ldr	r4, [pc, #28]	; 7458 <_stdio_init+0x44>
    742c:	e1d430b0 	ldrh	r3, [r4]
    7430:	e2600001 	rsb	r0, r0, #1	; 0x1
    7434:	e0233400 	eor	r3, r3, r0, lsl #8
    7438:	e3a00001 	mov	r0, #1	; 0x1
    743c:	e1c430b0 	strh	r3, [r4]
    7440:	ebfffffe 	bl	0 <_start>
    7444:	e1d435b4 	ldrh	r3, [r4, #84]
    7448:	e2600001 	rsb	r0, r0, #1	; 0x1
    744c:	e0233400 	eor	r3, r3, r0, lsl #8
    7450:	e1c435b4 	strh	r3, [r4, #84]
    7454:	e91ba810 	ldmdb	fp, {r4, fp, sp, pc}
    7458:	00001fdc 	ldreqd	r1, [r0], -ip

0000745c <fprintf>:
    745c:	e1a0c00d 	mov	ip, sp
    7460:	e92d000e 	stmdb	sp!, {r1, r2, r3}
    7464:	e92dd800 	stmdb	sp!, {fp, ip, lr, pc}
    7468:	e24cb010 	sub	fp, ip, #16	; 0x10
    746c:	e59b1004 	ldr	r1, [fp, #4]
    7470:	e28b2008 	add	r2, fp, #8	; 0x8
    7474:	ebfffffe 	bl	0 <_start>
    7478:	e91ba800 	ldmdb	fp, {fp, sp, pc}

0000747c <printf>:
    747c:	e1a0c00d 	mov	ip, sp
    7480:	e92d000f 	stmdb	sp!, {r0, r1, r2, r3}
    7484:	e92dd800 	stmdb	sp!, {fp, ip, lr, pc}
    7488:	e59f3014 	ldr	r3, [pc, #14]	; 74a4 <printf+0x28>
    748c:	e24cb014 	sub	fp, ip, #20	; 0x14
    7490:	e5930000 	ldr	r0, [r3]
    7494:	e59b1004 	ldr	r1, [fp, #4]
    7498:	e28b2008 	add	r2, fp, #8	; 0x8
    749c:	ebfffffe 	bl	0 <_start>
    74a0:	e91ba800 	ldmdb	fp, {fp, sp, pc}
    74a4:	00000000 	andeq	r0, r0, r0

000074a8 <sprintf>:
    74a8:	e1a0c00d 	mov	ip, sp
    74ac:	e92d000e 	stmdb	sp!, {r1, r2, r3}
    74b0:	e92dd800 	stmdb	sp!, {fp, ip, lr, pc}
    74b4:	e24cb010 	sub	fp, ip, #16	; 0x10
    74b8:	e3e01000 	mvn	r1, #0	; 0x0
    74bc:	e59b2004 	ldr	r2, [fp, #4]
    74c0:	e28b3008 	add	r3, fp, #8	; 0x8
    74c4:	ebfffffe 	bl	0 <_start>
    74c8:	e91ba800 	ldmdb	fp, {fp, sp, pc}

000074cc <_charpad>:
    74cc:	e1a0c00d 	mov	ip, sp
    74d0:	e92dd870 	stmdb	sp!, {r4, r5, r6, fp, ip, lr, pc}
    74d4:	e1a04002 	mov	r4, r2
    74d8:	e24cb004 	sub	fp, ip, #4	; 0x4
    74dc:	e24dd004 	sub	sp, sp, #4	; 0x4
    74e0:	e3540000 	cmp	r4, #0	; 0x0
    74e4:	e1a05000 	mov	r5, r0
    74e8:	e54b1019 	strb	r1, [fp, -#25]
    74ec:	091ba870 	ldmeqdb	fp, {r4, r5, r6, fp, sp, pc}
    74f0:	e24b6019 	sub	r6, fp, #25	; 0x19
    74f4:	e1a00006 	mov	r0, r6
    74f8:	e3a01001 	mov	r1, #1	; 0x1
    74fc:	e1a02005 	mov	r2, r5
    7500:	ebfffffe 	bl	0 <_start>
    7504:	e2544001 	subs	r4, r4, #1	; 0x1
    7508:	1a001d3b 	bne	74f4 <_charpad+0x28>
    750c:	e91ba870 	ldmdb	fp, {r4, r5, r6, fp, sp, pc}

00007510 <_do_one_spec>:
    7510:	e1a0c00d 	mov	ip, sp
    7514:	e92ddff0 	stmdb	sp!, {r4, r5, r6, r7, r8, r9, sl, fp, ip, lr, pc}
    7518:	e1a06001 	mov	r6, r1
    751c:	e24cb004 	sub	fp, ip, #4	; 0x4
    7520:	e24dd0ac 	sub	sp, sp, #172	; 0xac
    7524:	e1a09000 	mov	r9, r0
    7528:	e1a00006 	mov	r0, r6
    752c:	e50b20cc 	str	r2, [fp, -#204]
    7530:	ebfffffe 	bl	0 <_start>
    7534:	e1a00006 	mov	r0, r6
    7538:	ebfffffe 	bl	0 <_start>
    753c:	e5d61026 	ldrb	r1, [r6, #38]
    7540:	e0862101 	add	r2, r6, r1, lsl #2
    7544:	e5963018 	ldr	r3, [r6, #24]
    7548:	e2820024 	add	r0, r2, #36	; 0x24
    754c:	e3a02020 	mov	r2, #32	; 0x20
    7550:	e50b20d0 	str	r2, [fp, -#208]
    7554:	e3530000 	cmp	r3, #0	; 0x0
    7558:	e2863054 	add	r3, r6, #84	; 0x54
    755c:	c0833181 	addgt	r3, r3, r1, lsl #3
    7560:	e596101c 	ldr	r1, [r6, #28]
    7564:	e3a08000 	mov	r8, #0	; 0x0
    7568:	c2433008 	subgt	r3, r3, #8	; 0x8
    756c:	e1580001 	cmp	r8, r1
    7570:	e3a0a00b 	mov	sl, #11	; 0xb
    7574:	e1a02008 	mov	r2, r8
    7578:	aa001d63 	bge	7594 <_do_one_spec+0x84>
    757c:	e24bc048 	sub	ip, fp, #72	; 0x48
    7580:	e78c3102 	str	r3, [ip, r2, lsl #2]
    7584:	e2822001 	add	r2, r2, #1	; 0x1
    7588:	e1520001 	cmp	r2, r1
    758c:	e2833008 	add	r3, r3, #8	; 0x8
    7590:	ba001d5e 	blt	7580 <_do_one_spec+0x70>
    7594:	e5964020 	ldr	r4, [r6, #32]
    7598:	e3540000 	cmp	r4, #0	; 0x0
    759c:	0a001e38 	beq	78e8 <_do_one_spec+0x3d8>
    75a0:	e3540007 	cmp	r4, #7	; 0x7
    75a4:	8a001df3 	bhi	77d4 <_do_one_spec+0x2c4>
    75a8:	e59f3360 	ldr	r3, [pc, #360]	; 7910 <_do_one_spec+0x400>
    75ac:	e2442001 	sub	r2, r4, #1	; 0x1
    75b0:	e7d35002 	ldrb	r5, [r3, r2]
    75b4:	e355000a 	cmp	r5, #10	; 0xa
    75b8:	e3a07057 	mov	r7, #87	; 0x57
    75bc:	0a001dec 	beq	77b8 <_do_one_spec+0x2a8>
    75c0:	e3540005 	cmp	r4, #5	; 0x5
    75c4:	82655000 	rsbhi	r5, r5, #0	; 0x0
    75c8:	8a001d75 	bhi	75dc <_do_one_spec+0xcc>
    75cc:	e3540003 	cmp	r4, #3	; 0x3
    75d0:	03a07037 	moveq	r7, #55	; 0x37
    75d4:	e3540001 	cmp	r4, #1	; 0x1
    75d8:	03a0a006 	moveq	sl, #6	; 0x6
    75dc:	e5963004 	ldr	r3, [r6, #4]
    75e0:	e3530000 	cmp	r3, #0	; 0x0
    75e4:	b5d61014 	ldrltb	r1, [r6, #20]
    75e8:	b50b10d0 	strlt	r1, [fp, -#208]
    75ec:	e5900000 	ldr	r0, [r0]
    75f0:	e1a02005 	mov	r2, r5
    75f4:	e51b1048 	ldr	r1, [fp, -#72]
    75f8:	e2000c0f 	and	r0, r0, #3840	; 0xf00
    75fc:	ebfffffe 	bl	0 <_start>
    7600:	e1a03005 	mov	r3, r5
    7604:	e1a02001 	mov	r2, r1
    7608:	e1a01000 	mov	r1, r0
    760c:	e24b0049 	sub	r0, fp, #73	; 0x49
    7610:	e58d7000 	str	r7, [sp]
    7614:	ebfffffe 	bl	0 <_start>
    7618:	e5963020 	ldr	r3, [r6, #32]
    761c:	e1a05000 	mov	r5, r0
    7620:	e3530005 	cmp	r3, #5	; 0x5
    7624:	95962010 	ldrls	r2, [r6, #16]
    7628:	95d51000 	ldrlsb	r1, [r5]
    762c:	9a001d93 	bls	7654 <_do_one_spec+0x144>
    7630:	e5d51000 	ldrb	r1, [r5]
    7634:	e351002d 	cmp	r1, #45	; 0x2d
    7638:	0a001de5 	beq	779c <_do_one_spec+0x28c>
    763c:	e5962010 	ldr	r2, [r6, #16]
    7640:	e3120002 	tst	r2, #2	; 0x2
    7644:	13a0a000 	movne	sl, #0	; 0x0
    7648:	1a001d93 	bne	7654 <_do_one_spec+0x144>
    764c:	e3120001 	tst	r2, #1	; 0x1
    7650:	13a0a004 	movne	sl, #4	; 0x4
    7654:	e5968004 	ldr	r8, [r6, #4]
    7658:	e24b30c8 	sub	r3, fp, #200	; 0xc8
    765c:	e3580000 	cmp	r8, #0	; 0x0
    7660:	e0650003 	rsb	r0, r5, r3
    7664:	b3a08001 	movlt	r8, #1	; 0x1
    7668:	e3120010 	tst	r2, #16	; 0x10
    766c:	e280707f 	add	r7, r0, #127	; 0x7f
    7670:	0a001da6 	beq	76a0 <_do_one_spec+0x190>
    7674:	e5963020 	ldr	r3, [r6, #32]
    7678:	e3530002 	cmp	r3, #2	; 0x2
    767c:	93a0a006 	movls	sl, #6	; 0x6
    7680:	e3530003 	cmp	r3, #3	; 0x3
    7684:	03a0a009 	moveq	sl, #9	; 0x9
    7688:	e1580007 	cmp	r8, r7
    768c:	93530004 	cmpls	r3, #4	; 0x4
    7690:	1a001da6 	bne	76a0 <_do_one_spec+0x190>
    7694:	e3510030 	cmp	r1, #48	; 0x30
    7698:	12808080 	addne	r8, r0, #128	; 0x80
    769c:	03a08001 	moveq	r8, #1	; 0x1
    76a0:	e3510030 	cmp	r1, #48	; 0x30
    76a4:	0a001dda 	beq	7770 <_do_one_spec+0x260>
    76a8:	e1580007 	cmp	r8, r7
    76ac:	80672008 	rsbhi	r2, r7, r8
    76b0:	93a02000 	movls	r2, #0	; 0x0
    76b4:	e1a08002 	mov	r8, r2
    76b8:	e35a000b 	cmp	sl, #11	; 0xb
    76bc:	e0872008 	add	r2, r7, r8
    76c0:	0a001db2 	beq	76d0 <_do_one_spec+0x1c0>
    76c4:	e35a0005 	cmp	sl, #5	; 0x5
    76c8:	d2822001 	addle	r2, r2, #1	; 0x1
    76cc:	c2822002 	addgt	r2, r2, #2	; 0x2
    76d0:	e5963008 	ldr	r3, [r6, #8]
    76d4:	e1530002 	cmp	r3, r2
    76d8:	93a04000 	movls	r4, #0	; 0x0
    76dc:	80624003 	rsbhi	r4, r2, r3
    76e0:	e51b10cc 	ldr	r1, [fp, -#204]
    76e4:	e5913000 	ldr	r3, [r1]
    76e8:	e0822004 	add	r2, r2, r4
    76ec:	e0833002 	add	r3, r3, r2
    76f0:	e51b20d0 	ldr	r2, [fp, -#208]
    76f4:	e5813000 	str	r3, [r1]
    76f8:	e5963010 	ldr	r3, [r6, #16]
    76fc:	e3520030 	cmp	r2, #48	; 0x30
    7700:	00888004 	addeq	r8, r8, r4
    7704:	03a04000 	moveq	r4, #0	; 0x0
    7708:	e2136008 	ands	r6, r3, #8	; 0x8
    770c:	0a001dd4 	beq	7758 <_do_one_spec+0x248>
    7710:	e59f01fc 	ldr	r0, [pc, #1fc]	; 7914 <_do_one_spec+0x404>
    7714:	e1a01009 	mov	r1, r9
    7718:	e08a0000 	add	r0, sl, r0
    771c:	ebfffffe 	bl	0 <_start>
    7720:	e1a00009 	mov	r0, r9
    7724:	e1a02008 	mov	r2, r8
    7728:	e3a01030 	mov	r1, #48	; 0x30
    772c:	eb001d31 	bl	74cc <_charpad>
    7730:	e1a01007 	mov	r1, r7
    7734:	e1a02009 	mov	r2, r9
    7738:	e1a00005 	mov	r0, r5
    773c:	ebfffffe 	bl	0 <_start>
    7740:	e1a00009 	mov	r0, r9
    7744:	e1a02004 	mov	r2, r4
    7748:	e3a01020 	mov	r1, #32	; 0x20
    774c:	eb001d31 	bl	74cc <_charpad>
    7750:	e3a00000 	mov	r0, #0	; 0x0
    7754:	e91baff0 	ldmdb	fp, {r4, r5, r6, r7, r8, r9, sl, fp, sp, pc}
    7758:	e1a02004 	mov	r2, r4
    775c:	e1a00009 	mov	r0, r9
    7760:	e3a01020 	mov	r1, #32	; 0x20
    7764:	eb001d31 	bl	74cc <_charpad>
    7768:	e1a04006 	mov	r4, r6
    776c:	ea001dc2 	b	7710 <_do_one_spec+0x200>
    7770:	e5963020 	ldr	r3, [r6, #32]
    7774:	e35a0005 	cmp	sl, #5	; 0x5
    7778:	c3a0a00b 	movgt	sl, #11	; 0xb
    777c:	e3530001 	cmp	r3, #1	; 0x1
    7780:	059f5190 	ldreq	r5, [pc, #190]	; 7918 <_do_one_spec+0x408>
    7784:	03a07005 	moveq	r7, #5	; 0x5
    7788:	03a08000 	moveq	r8, #0	; 0x0
    778c:	0a001da8 	beq	76a8 <_do_one_spec+0x198>
    7790:	e3580000 	cmp	r8, #0	; 0x0
    7794:	03a07000 	moveq	r7, #0	; 0x0
    7798:	ea001da8 	b	76a8 <_do_one_spec+0x198>
    779c:	e5963010 	ldr	r3, [r6, #16]
    77a0:	e3833002 	orr	r3, r3, #2	; 0x2
    77a4:	e5863010 	str	r3, [r6, #16]
    77a8:	e5f51001 	ldrb	r1, [r5, #1]!
    77ac:	e1a02003 	mov	r2, r3
    77b0:	e3a0a002 	mov	sl, #2	; 0x2
    77b4:	ea001d93 	b	7654 <_do_one_spec+0x144>
    77b8:	e5963010 	ldr	r3, [r6, #16]
    77bc:	e3130020 	tst	r3, #32	; 0x20
    77c0:	03a07057 	moveq	r7, #87	; 0x57
    77c4:	13a0702c 	movne	r7, #44	; 0x2c
    77c8:	e3130040 	tst	r3, #64	; 0x40
    77cc:	13877080 	orrne	r7, r7, #128	; 0x80
    77d0:	ea001d6e 	b	75c0 <_do_one_spec+0xb0>
    77d4:	e354000f 	cmp	r4, #15	; 0xf
    77d8:	93e00000 	mvnls	r0, #0	; 0x0
    77dc:	991baff0 	ldmlsdb	fp, {r4, r5, r6, r7, r8, r9, sl, fp, sp, pc}
    77e0:	e3540011 	cmp	r4, #17	; 0x11
    77e4:	93e00000 	mvnls	r0, #0	; 0x0
    77e8:	991baff0 	ldmlsdb	fp, {r4, r5, r6, r7, r8, r9, sl, fp, sp, pc}
    77ec:	e3540013 	cmp	r4, #19	; 0x13
    77f0:	8a001e11 	bhi	784c <_do_one_spec+0x33c>
    77f4:	151b3048 	ldrne	r3, [fp, -#72]
    77f8:	15d32000 	ldrneb	r2, [r3]
    77fc:	13a03000 	movne	r3, #0	; 0x0
    7800:	124b50c8 	subne	r5, fp, #200	; 0xc8
    7804:	13a07001 	movne	r7, #1	; 0x1
    7808:	154b20c8 	strneb	r2, [fp, -#200]
    780c:	154b30c7 	strneb	r3, [fp, -#199]
    7810:	1a001dac 	bne	76b8 <_do_one_spec+0x1a8>
    7814:	e51b3048 	ldr	r3, [fp, -#72]
    7818:	e5935000 	ldr	r5, [r3]
    781c:	e3550000 	cmp	r5, #0	; 0x0
    7820:	0a001e0e 	beq	7840 <_do_one_spec+0x330>
    7824:	e5961004 	ldr	r1, [r6, #4]
    7828:	e3510000 	cmp	r1, #0	; 0x0
    782c:	b3e01000 	mvnlt	r1, #0	; 0x0
    7830:	e1a00005 	mov	r0, r5
    7834:	ebfffffe 	bl	0 <_start>
    7838:	e1a07000 	mov	r7, r0
    783c:	ea001dac 	b	76b8 <_do_one_spec+0x1a8>
    7840:	e59f50d4 	ldr	r5, [pc, #d4]	; 791c <_do_one_spec+0x40c>
    7844:	e3a07006 	mov	r7, #6	; 0x6
    7848:	ea001dac 	b	76b8 <_do_one_spec+0x1a8>
    784c:	e3540014 	cmp	r4, #20	; 0x14
    7850:	0a001e31 	beq	78cc <_do_one_spec+0x3bc>
    7854:	e59f30c4 	ldr	r3, [pc, #c4]	; 7920 <_do_one_spec+0x410>
    7858:	e596100c 	ldr	r1, [r6, #12]
    785c:	e5935000 	ldr	r5, [r3]
    7860:	e59fc0bc 	ldr	ip, [pc, #bc]	; 7924 <_do_one_spec+0x414>
    7864:	e1a02003 	mov	r2, r3
    7868:	e5d53000 	ldrb	r3, [r5]
    786c:	e1530001 	cmp	r3, r1
    7870:	0a001e22 	beq	7890 <_do_one_spec+0x380>
    7874:	e5923000 	ldr	r3, [r2]
    7878:	e2855001 	add	r5, r5, #1	; 0x1
    787c:	e283300a 	add	r3, r3, #10	; 0xa
    7880:	e1550003 	cmp	r5, r3
    7884:	3a001e18 	bcc	7868 <_do_one_spec+0x358>
    7888:	e3e00000 	mvn	r0, #0	; 0x0
    788c:	e91baff0 	ldmdb	fp, {r4, r5, r6, r7, r8, r9, sl, fp, sp, pc}
    7890:	e5923000 	ldr	r3, [r2]
    7894:	e1a00009 	mov	r0, r9
    7898:	e0633005 	rsb	r3, r3, r5
    789c:	e2861004 	add	r1, r6, #4	; 0x4
    78a0:	e24b2048 	sub	r2, fp, #72	; 0x48
    78a4:	e1a0e00f 	mov	lr, pc
    78a8:	e79cf103 	ldr	pc, [ip, r3, lsl #2]
    78ac:	e3500000 	cmp	r0, #0	; 0x0
    78b0:	ba001e20 	blt	7888 <_do_one_spec+0x378>
    78b4:	e51b20cc 	ldr	r2, [fp, -#204]
    78b8:	e5923000 	ldr	r3, [r2]
    78bc:	e0833000 	add	r3, r3, r0
    78c0:	e3a00000 	mov	r0, #0	; 0x0
    78c4:	e5823000 	str	r3, [r2]
    78c8:	e91baff0 	ldmdb	fp, {r4, r5, r6, r7, r8, r9, sl, fp, sp, pc}
    78cc:	ebfffffe 	bl	0 <_start>
    78d0:	e3a02080 	mov	r2, #128	; 0x80
    78d4:	e5900000 	ldr	r0, [r0]
    78d8:	e24b10c8 	sub	r1, fp, #200	; 0xc8
    78dc:	ebfffffe 	bl	0 <_start>
    78e0:	e1a05000 	mov	r5, r0
    78e4:	ea001e07 	b	7824 <_do_one_spec+0x314>
    78e8:	e51b30cc 	ldr	r3, [fp, -#204]
    78ec:	e5961010 	ldr	r1, [r6, #16]
    78f0:	e5932000 	ldr	r2, [r3]
    78f4:	e51bc048 	ldr	ip, [fp, -#72]
    78f8:	e2011c0f 	and	r1, r1, #3840	; 0xf00
    78fc:	e59c0000 	ldr	r0, [ip]
    7900:	e1a03fc2 	mov	r3, r2, asr #31
    7904:	ebfffffe 	bl	0 <_start>
    7908:	e1a00004 	mov	r0, r4
    790c:	e91baff0 	ldmdb	fp, {r4, r5, r6, r7, r8, r9, sl, fp, sp, pc}
    7910:	00000af0 	streqd	r0, [r0], -r0
    7914:	00000af8 	streqd	r0, [r0], -r8
    7918:	00000b04 	andeq	r0, r0, r4, lsl #22
    791c:	00000b0c 	andeq	r0, r0, ip, lsl #22
	...

00007928 <vfprintf>:
    7928:	e1a0c00d 	mov	ip, sp
    792c:	e92dd9f0 	stmdb	sp!, {r4, r5, r6, r7, r8, fp, ip, lr, pc}
    7930:	e24cb004 	sub	fp, ip, #4	; 0x4
    7934:	e24dd0a8 	sub	sp, sp, #168	; 0xa8
    7938:	e1a06000 	mov	r6, r0
    793c:	e5963038 	ldr	r3, [r6, #56]
    7940:	e3530000 	cmp	r3, #0	; 0x0
    7944:	e1a04001 	mov	r4, r1
    7948:	e1a07002 	mov	r7, r2
    794c:	0a001e9a 	beq	7a70 <vfprintf+0x148>
    7950:	e24b80c4 	sub	r8, fp, #196	; 0xc4
    7954:	e3a03000 	mov	r3, #0	; 0x0
    7958:	e1a00008 	mov	r0, r8
    795c:	e1a01004 	mov	r1, r4
    7960:	e50b30c8 	str	r3, [fp, -#200]
    7964:	ebfffffe 	bl	0 <_start>
    7968:	e3500000 	cmp	r0, #0	; 0x0
    796c:	e1a05004 	mov	r5, r4
    7970:	ba001e90 	blt	7a48 <vfprintf+0x120>
    7974:	e1a01007 	mov	r1, r7
    7978:	e1a00008 	mov	r0, r8
    797c:	ebfffffe 	bl	0 <_start>
    7980:	e5d43000 	ldrb	r3, [r4]
    7984:	e3530000 	cmp	r3, #0	; 0x0
    7988:	13530025 	cmpne	r3, #37	; 0x25
    798c:	0a001e66 	beq	79a0 <vfprintf+0x78>
    7990:	e5f43001 	ldrb	r3, [r4, #1]!
    7994:	e3530000 	cmp	r3, #0	; 0x0
    7998:	13530025 	cmpne	r3, #37	; 0x25
    799c:	1a001e62 	bne	7990 <vfprintf+0x68>
    79a0:	e1540005 	cmp	r4, r5
    79a4:	0a001e74 	beq	79d8 <vfprintf+0xb0>
    79a8:	e0651004 	rsb	r1, r5, r4
    79ac:	e1a00005 	mov	r0, r5
    79b0:	e1a02006 	mov	r2, r6
    79b4:	ebfffffe 	bl	0 <_start>
    79b8:	e3500000 	cmp	r0, #0	; 0x0
    79bc:	b3e03000 	mvnlt	r3, #0	; 0x0
    79c0:	b50b30c8 	strlt	r3, [fp, -#200]
    79c4:	ba001e88 	blt	7a28 <vfprintf+0x100>
    79c8:	e51b30c8 	ldr	r3, [fp, -#200]
    79cc:	e0833000 	add	r3, r3, r0
    79d0:	e50b30c8 	str	r3, [fp, -#200]
    79d4:	e5d43000 	ldrb	r3, [r4]
    79d8:	e3530000 	cmp	r3, #0	; 0x0
    79dc:	0a001e88 	beq	7a28 <vfprintf+0x100>
    79e0:	e5d43001 	ldrb	r3, [r4, #1]
    79e4:	e3530025 	cmp	r3, #37	; 0x25
    79e8:	02844001 	addeq	r4, r4, #1	; 0x1
    79ec:	01a05004 	moveq	r5, r4
    79f0:	02844001 	addeq	r4, r4, #1	; 0x1
    79f4:	0a001e5e 	beq	7980 <vfprintf+0x58>
    79f8:	e2844001 	add	r4, r4, #1	; 0x1
    79fc:	e1a00006 	mov	r0, r6
    7a00:	e1a01008 	mov	r1, r8
    7a04:	e24b20c8 	sub	r2, fp, #200	; 0xc8
    7a08:	e50b40c4 	str	r4, [fp, -#196]
    7a0c:	eb001d42 	bl	7510 <_do_one_spec>
    7a10:	e3500000 	cmp	r0, #0	; 0x0
    7a14:	b3e03000 	mvnlt	r3, #0	; 0x0
    7a18:	b50b30c8 	strlt	r3, [fp, -#200]
    7a1c:	a51b40c4 	ldrge	r4, [fp, -#196]
    7a20:	a1a05004 	movge	r5, r4
    7a24:	aa001e5e 	bge	7980 <vfprintf+0x58>
    7a28:	e5963038 	ldr	r3, [r6, #56]
    7a2c:	e3530000 	cmp	r3, #0	; 0x0
    7a30:	0a001e8d 	beq	7a3c <vfprintf+0x114>
    7a34:	e51b00c8 	ldr	r0, [fp, -#200]
    7a38:	e91ba9f0 	ldmdb	fp, {r4, r5, r6, r7, r8, fp, sp, pc}
    7a3c:	e286003c 	add	r0, r6, #60	; 0x3c
    7a40:	ebfffffe 	bl	0 <_start>
    7a44:	ea001e8b 	b	7a34 <vfprintf+0x10c>
    7a48:	e51b40c4 	ldr	r4, [fp, -#196]
    7a4c:	e1a00004 	mov	r0, r4
    7a50:	ebfffffe 	bl	0 <_start>
    7a54:	e1a02006 	mov	r2, r6
    7a58:	e1a01000 	mov	r1, r0
    7a5c:	e1a00004 	mov	r0, r4
    7a60:	ebfffffe 	bl	0 <_start>
    7a64:	e3e03000 	mvn	r3, #0	; 0x0
    7a68:	e50b30c8 	str	r3, [fp, -#200]
    7a6c:	ea001e88 	b	7a28 <vfprintf+0x100>
    7a70:	e286003c 	add	r0, r6, #60	; 0x3c
    7a74:	ebfffffe 	bl	0 <_start>
    7a78:	ea001e52 	b	7950 <vfprintf+0x28>

00007a7c <_store_inttype>:
    7a7c:	e3510c01 	cmp	r1, #256	; 0x100
    7a80:	05c02000 	streqb	r2, [r0]
    7a84:	01a0f00e 	moveq	pc, lr
    7a88:	e3510b02 	cmp	r1, #2048	; 0x800
    7a8c:	0a001ea6 	beq	7aa0 <_store_inttype+0x24>
    7a90:	e3510c02 	cmp	r1, #512	; 0x200
    7a94:	01c020b0 	streqh	r2, [r0]
    7a98:	15802000 	strne	r2, [r0]
    7a9c:	e1a0f00e 	mov	pc, lr
    7aa0:	e880000c 	stmia	r0, {r2, r3}
    7aa4:	e1a0f00e 	mov	pc, lr

00007aa8 <_load_inttype>:
    7aa8:	e3520000 	cmp	r2, #0	; 0x0
    7aac:	e1a03000 	mov	r3, r0
    7ab0:	ba001eb5 	blt	7adc <_load_inttype+0x34>
    7ab4:	e3130b02 	tst	r3, #2048	; 0x800
    7ab8:	1a001eb7 	bne	7ae4 <_load_inttype+0x3c>
    7abc:	e5910000 	ldr	r0, [r1]
    7ac0:	e3530c01 	cmp	r3, #256	; 0x100
    7ac4:	020000ff 	andeq	r0, r0, #255	; 0xff
    7ac8:	e3530c02 	cmp	r3, #512	; 0x200
    7acc:	01a03800 	moveq	r3, r0, lsl #16
    7ad0:	01a00823 	moveq	r0, r3, lsr #16
    7ad4:	e3a01000 	mov	r1, #0	; 0x0
    7ad8:	e1a0f00e 	mov	pc, lr
    7adc:	e3130b02 	tst	r3, #2048	; 0x800
    7ae0:	0a001eb9 	beq	7aec <_load_inttype+0x44>
    7ae4:	e8910003 	ldmia	r1, {r0, r1}
    7ae8:	e1a0f00e 	mov	pc, lr
    7aec:	e5910000 	ldr	r0, [r1]
    7af0:	e3530c01 	cmp	r3, #256	; 0x100
    7af4:	020000ff 	andeq	r0, r0, #255	; 0xff
    7af8:	e3530c02 	cmp	r3, #512	; 0x200
    7afc:	01a03800 	moveq	r3, r0, lsl #16
    7b00:	01a00843 	moveq	r0, r3, asr #16
    7b04:	e1a01fc0 	mov	r1, r0, asr #31
    7b08:	e1a0f00e 	mov	pc, lr

00007b0c <sscanf>:
    7b0c:	e1a0c00d 	mov	ip, sp
    7b10:	e92d000e 	stmdb	sp!, {r1, r2, r3}
    7b14:	e92dd800 	stmdb	sp!, {fp, ip, lr, pc}
    7b18:	e24cb010 	sub	fp, ip, #16	; 0x10
    7b1c:	e59b1004 	ldr	r1, [fp, #4]
    7b20:	e28b2008 	add	r2, fp, #8	; 0x8
    7b24:	ebfffffe 	bl	0 <_start>
    7b28:	e91ba800 	ldmdb	fp, {fp, sp, pc}

00007b2c <vsscanf>:
    7b2c:	e1a0c00d 	mov	ip, sp
    7b30:	e92dd830 	stmdb	sp!, {r4, r5, fp, ip, lr, pc}
    7b34:	e3e03001 	mvn	r3, #1	; 0x1
    7b38:	e24cb004 	sub	fp, ip, #4	; 0x4
    7b3c:	e24dd054 	sub	sp, sp, #84	; 0x54
    7b40:	e50b3064 	str	r3, [fp, -#100]
    7b44:	e2833001 	add	r3, r3, #1	; 0x1
    7b48:	e1a0c000 	mov	ip, r0
    7b4c:	e1a05002 	mov	r5, r2
    7b50:	e24b002c 	sub	r0, fp, #44	; 0x2c
    7b54:	e50b304c 	str	r3, [fp, -#76]
    7b58:	e3a02000 	mov	r2, #0	; 0x0
    7b5c:	e3a030a0 	mov	r3, #160	; 0xa0
    7b60:	e1a04001 	mov	r4, r1
    7b64:	e50b2030 	str	r2, [fp, -#48]
    7b68:	e50bc05c 	str	ip, [fp, -#92]
    7b6c:	e14b36b8 	strh	r3, [fp, -#104]
    7b70:	e50bc054 	str	ip, [fp, -#84]
    7b74:	ebfffffe 	bl	0 <_start>
    7b78:	e1a01004 	mov	r1, r4
    7b7c:	e24b0068 	sub	r0, fp, #104	; 0x68
    7b80:	e1a02005 	mov	r2, r5
    7b84:	ebfffffe 	bl	0 <_start>
    7b88:	e91ba830 	ldmdb	fp, {r4, r5, fp, sp, pc}

00007b8c <valid_digit>:
    7b8c:	e20110ff 	and	r1, r1, #255	; 0xff
    7b90:	e20030ff 	and	r3, r0, #255	; 0xff
    7b94:	e3510010 	cmp	r1, #16	; 0x10
    7b98:	e52de004 	str	lr, [sp, -#4]!
    7b9c:	e1a00003 	mov	r0, r3
    7ba0:	e2432030 	sub	r2, r3, #48	; 0x30
    7ba4:	0a001ef0 	beq	7bc8 <valid_digit+0x3c>
    7ba8:	e3520009 	cmp	r2, #9	; 0x9
    7bac:	e2811030 	add	r1, r1, #48	; 0x30
    7bb0:	e3a00000 	mov	r0, #0	; 0x0
    7bb4:	849df004 	ldrhi	pc, [sp], #4
    7bb8:	e1530001 	cmp	r3, r1
    7bbc:	a3a00000 	movge	r0, #0	; 0x0
    7bc0:	b3a00001 	movlt	r0, #1	; 0x1
    7bc4:	e49df004 	ldr	pc, [sp], #4
    7bc8:	e49de004 	ldr	lr, [sp], #4
    7bcc:	eafffffe 	b	0 <_start>

00007bd0 <init_scan_cookie>:
    7bd0:	e3a02000 	mov	r2, #0	; 0x0
    7bd4:	e5801000 	str	r1, [r0]
    7bd8:	e5802014 	str	r2, [r0, #20]
    7bdc:	e5802004 	str	r2, [r0, #4]
    7be0:	e580200c 	str	r2, [r0, #12]
    7be4:	e1d130b0 	ldrh	r3, [r1]
    7be8:	e2133003 	ands	r3, r3, #3	; 0x3
    7bec:	15d11003 	ldrneb	r1, [r1, #3]
    7bf0:	01a01003 	moveq	r1, r3
    7bf4:	e5801018 	str	r1, [r0, #24]
    7bf8:	e1a0f00e 	mov	pc, lr

00007bfc <scan_getc_nw>:
    7bfc:	e1a0c00d 	mov	ip, sp
    7c00:	e92dd810 	stmdb	sp!, {r4, fp, ip, lr, pc}
    7c04:	e1a04000 	mov	r4, r0
    7c08:	e5943014 	ldr	r3, [r4, #20]
    7c0c:	e3530000 	cmp	r3, #0	; 0x0
    7c10:	e24cb004 	sub	fp, ip, #4	; 0x4
    7c14:	0a001f0f 	beq	7c44 <scan_getc_nw+0x48>
    7c18:	e3a03000 	mov	r3, #0	; 0x0
    7c1c:	e5843014 	str	r3, [r4, #20]
    7c20:	e5943010 	ldr	r3, [r4, #16]
    7c24:	e3530000 	cmp	r3, #0	; 0x0
    7c28:	c5943004 	ldrgt	r3, [r4, #4]
    7c2c:	c2833001 	addgt	r3, r3, #1	; 0x1
    7c30:	c5843004 	strgt	r3, [r4, #4]
    7c34:	e5940010 	ldr	r0, [r4, #16]
    7c38:	e3a03000 	mov	r3, #0	; 0x0
    7c3c:	e584300c 	str	r3, [r4, #12]
    7c40:	e91ba810 	ldmdb	fp, {r4, fp, sp, pc}
    7c44:	e5941000 	ldr	r1, [r4]
    7c48:	e5912014 	ldr	r2, [r1, #20]
    7c4c:	e591301c 	ldr	r3, [r1, #28]
    7c50:	e1520003 	cmp	r2, r3
    7c54:	e1a00001 	mov	r0, r1
    7c58:	34d20001 	ldrccb	r0, [r2], #1
    7c5c:	35812014 	strcc	r2, [r1, #20]
    7c60:	3a001f18 	bcc	7c68 <scan_getc_nw+0x6c>
    7c64:	ebfffffe 	bl	0 <_start>
    7c68:	e5840010 	str	r0, [r4, #16]
    7c6c:	ea001f06 	b	7c20 <scan_getc_nw+0x24>

00007c70 <scan_getc>:
    7c70:	e1a0c00d 	mov	ip, sp
    7c74:	e92dd810 	stmdb	sp!, {r4, fp, ip, lr, pc}
    7c78:	e1a04000 	mov	r4, r0
    7c7c:	e5943014 	ldr	r3, [r4, #20]
    7c80:	e3530000 	cmp	r3, #0	; 0x0
    7c84:	e24cb004 	sub	fp, ip, #4	; 0x4
    7c88:	0a001f32 	beq	7cd0 <scan_getc+0x60>
    7c8c:	e5943008 	ldr	r3, [r4, #8]
    7c90:	e2433001 	sub	r3, r3, #1	; 0x1
    7c94:	e3530000 	cmp	r3, #0	; 0x0
    7c98:	e3a02001 	mov	r2, #1	; 0x1
    7c9c:	e584200c 	str	r2, [r4, #12]
    7ca0:	e5843008 	str	r3, [r4, #8]
    7ca4:	b3a00000 	movlt	r0, #0	; 0x0
    7ca8:	b5842014 	strlt	r2, [r4, #20]
    7cac:	b91ba810 	ldmltdb	fp, {r4, fp, sp, pc}
    7cb0:	e5940010 	ldr	r0, [r4, #16]
    7cb4:	e3a03000 	mov	r3, #0	; 0x0
    7cb8:	e3500000 	cmp	r0, #0	; 0x0
    7cbc:	e5843014 	str	r3, [r4, #20]
    7cc0:	c5943004 	ldrgt	r3, [r4, #4]
    7cc4:	c2833001 	addgt	r3, r3, #1	; 0x1
    7cc8:	c5843004 	strgt	r3, [r4, #4]
    7ccc:	e91ba810 	ldmdb	fp, {r4, fp, sp, pc}
    7cd0:	e5940000 	ldr	r0, [r4]
    7cd4:	e5902014 	ldr	r2, [r0, #20]
    7cd8:	e590301c 	ldr	r3, [r0, #28]
    7cdc:	e1520003 	cmp	r2, r3
    7ce0:	34d23001 	ldrccb	r3, [r2], #1
    7ce4:	35802014 	strcc	r2, [r0, #20]
    7ce8:	3a001f3b 	bcc	7cf4 <scan_getc+0x84>
    7cec:	ebfffffe 	bl	0 <_start>
    7cf0:	e1a03000 	mov	r3, r0
    7cf4:	e5843010 	str	r3, [r4, #16]
    7cf8:	ea001f21 	b	7c8c <scan_getc+0x1c>

00007cfc <scan_ungetc>:
    7cfc:	e5903014 	ldr	r3, [r0, #20]
    7d00:	e3530000 	cmp	r3, #0	; 0x0
    7d04:	11a0f00e 	movne	pc, lr
    7d08:	e590300c 	ldr	r3, [r0, #12]
    7d0c:	e3530000 	cmp	r3, #0	; 0x0
    7d10:	15903008 	ldrne	r3, [r0, #8]
    7d14:	e5902010 	ldr	r2, [r0, #16]
    7d18:	12833001 	addne	r3, r3, #1	; 0x1
    7d1c:	15803008 	strne	r3, [r0, #8]
    7d20:	e3a03001 	mov	r3, #1	; 0x1
    7d24:	e3520000 	cmp	r2, #0	; 0x0
    7d28:	e5803014 	str	r3, [r0, #20]
    7d2c:	c5903004 	ldrgt	r3, [r0, #4]
    7d30:	c2433001 	subgt	r3, r3, #1	; 0x1
    7d34:	c5803004 	strgt	r3, [r0, #4]
    7d38:	e1a0f00e 	mov	pc, lr

00007d3c <kill_scan_cookie>:
    7d3c:	e1a0c00d 	mov	ip, sp
    7d40:	e92dd810 	stmdb	sp!, {r4, fp, ip, lr, pc}
    7d44:	e1a04000 	mov	r4, r0
    7d48:	e5943014 	ldr	r3, [r4, #20]
    7d4c:	e3530000 	cmp	r3, #0	; 0x0
    7d50:	e24cb004 	sub	fp, ip, #4	; 0x4
    7d54:	091ba810 	ldmeqdb	fp, {r4, fp, sp, pc}
    7d58:	e5940010 	ldr	r0, [r4, #16]
    7d5c:	e5941000 	ldr	r1, [r4]
    7d60:	ebfffffe 	bl	0 <_start>
    7d64:	e5943004 	ldr	r3, [r4, #4]
    7d68:	e3530000 	cmp	r3, #0	; 0x0
    7d6c:	05d42018 	ldreqb	r2, [r4, #24]
    7d70:	05943000 	ldreq	r3, [r4]
    7d74:	05c32003 	streqb	r2, [r3, #3]
    7d78:	e91ba810 	ldmdb	fp, {r4, fp, sp, pc}

00007d7c <vfscanf>:
    7d7c:	e1a0c00d 	mov	ip, sp
    7d80:	e92ddff0 	stmdb	sp!, {r4, r5, r6, r7, r8, r9, sl, fp, ip, lr, pc}
    7d84:	e24cb004 	sub	fp, ip, #4	; 0x4
    7d88:	e24ddf5e 	sub	sp, sp, #376	; 0x178
    7d8c:	e50b018c 	str	r0, [fp, -#396]
    7d90:	e5903038 	ldr	r3, [r0, #56]
    7d94:	e3530000 	cmp	r3, #0	; 0x0
    7d98:	e1a04001 	mov	r4, r1
    7d9c:	e50b2190 	str	r2, [fp, -#400]
    7da0:	0a00213c 	beq	84f8 <vfscanf+0x77c>
    7da4:	e24b9044 	sub	r9, fp, #68	; 0x44
    7da8:	e1a00009 	mov	r0, r9
    7dac:	e51b118c 	ldr	r1, [fp, -#396]
    7db0:	eb001ef2 	bl	7bd0 <init_scan_cookie>
    7db4:	e1a07004 	mov	r7, r4
    7db8:	e5d73000 	ldrb	r3, [r7]
    7dbc:	e3a00000 	mov	r0, #0	; 0x0
    7dc0:	e3530000 	cmp	r3, #0	; 0x0
    7dc4:	e50b0194 	str	r0, [fp, -#404]
    7dc8:	0a001f8b 	beq	7e34 <vfscanf+0xb8>
    7dcc:	e3530025 	cmp	r3, #37	; 0x25
    7dd0:	e3a01001 	mov	r1, #1	; 0x1
    7dd4:	e3e03102 	mvn	r3, #-2147483648	; 0x80000000
    7dd8:	e3a02000 	mov	r2, #0	; 0x0
    7ddc:	e50b303c 	str	r3, [fp, -#60]
    7de0:	e50b119c 	str	r1, [fp, -#412]
    7de4:	e50b2198 	str	r2, [fp, -#408]
    7de8:	0a001fa7 	beq	7ea4 <vfscanf+0x128>
    7dec:	e5d72000 	ldrb	r2, [r7]
    7df0:	e28230f7 	add	r3, r2, #247	; 0xf7
    7df4:	e20330ff 	and	r3, r3, #255	; 0xff
    7df8:	e3520020 	cmp	r2, #32	; 0x20
    7dfc:	13530004 	cmpne	r3, #4	; 0x4
    7e00:	8a001f9f 	bhi	7e84 <vfscanf+0x108>
    7e04:	e1a00009 	mov	r0, r9
    7e08:	eb001efd 	bl	7bfc <scan_getc_nw>
    7e0c:	e1a05000 	mov	r5, r0
    7e10:	e2453009 	sub	r3, r5, #9	; 0x9
    7e14:	e3550020 	cmp	r5, #32	; 0x20
    7e18:	13530004 	cmpne	r3, #4	; 0x4
    7e1c:	9a001f7f 	bls	7e04 <vfscanf+0x88>
    7e20:	e1a00009 	mov	r0, r9
    7e24:	eb001f3d 	bl	7cfc <scan_ungetc>
    7e28:	e5f73001 	ldrb	r3, [r7, #1]!
    7e2c:	e3530000 	cmp	r3, #0	; 0x0
    7e30:	1a001f71 	bne	7dcc <vfscanf+0x50>
    7e34:	e1a00009 	mov	r0, r9
    7e38:	eb001f4d 	bl	7d3c <kill_scan_cookie>
    7e3c:	e51b3034 	ldr	r3, [fp, -#52]
    7e40:	e51b2194 	ldr	r2, [fp, -#404]
    7e44:	e3530000 	cmp	r3, #0	; 0x0
    7e48:	d3520000 	cmple	r2, #0	; 0x0
    7e4c:	1a001f96 	bne	7e60 <vfscanf+0xe4>
    7e50:	e5d73000 	ldrb	r3, [r7]
    7e54:	e3530000 	cmp	r3, #0	; 0x0
    7e58:	13e02000 	mvnne	r2, #0	; 0x0
    7e5c:	e50b2194 	str	r2, [fp, -#404]
    7e60:	e51bc18c 	ldr	ip, [fp, -#396]
    7e64:	e59c3038 	ldr	r3, [ip, #56]
    7e68:	e3530000 	cmp	r3, #0	; 0x0
    7e6c:	0a001f9c 	beq	7e78 <vfscanf+0xfc>
    7e70:	e51b0194 	ldr	r0, [fp, -#404]
    7e74:	e91baff0 	ldmdb	fp, {r4, r5, r6, r7, r8, r9, sl, fp, sp, pc}
    7e78:	e28c003c 	add	r0, ip, #60	; 0x3c
    7e7c:	ebfffffe 	bl	0 <_start>
    7e80:	ea001f9a 	b	7e70 <vfscanf+0xf4>
    7e84:	e1a00009 	mov	r0, r9
    7e88:	eb001efd 	bl	7bfc <scan_getc_nw>
    7e8c:	e5d73000 	ldrb	r3, [r7]
    7e90:	e1500003 	cmp	r0, r3
    7e94:	1a00209a 	bne	8270 <vfscanf+0x4f4>
    7e98:	e1a00009 	mov	r0, r9
    7e9c:	eb001efd 	bl	7bfc <scan_getc_nw>
    7ea0:	ea001f86 	b	7e20 <vfscanf+0xa4>
    7ea4:	e5f7c001 	ldrb	ip, [r7, #1]!
    7ea8:	e35c002a 	cmp	ip, #42	; 0x2a
    7eac:	05f7c001 	ldreqb	ip, [r7, #1]!
    7eb0:	e24c3030 	sub	r3, ip, #48	; 0x30
    7eb4:	050b219c 	streq	r2, [fp, -#412]
    7eb8:	e3530009 	cmp	r3, #9	; 0x9
    7ebc:	e51b5198 	ldr	r5, [fp, -#408]
    7ec0:	8a001fb8 	bhi	7ee8 <vfscanf+0x16c>
    7ec4:	e5d73000 	ldrb	r3, [r7]
    7ec8:	e5f7c001 	ldrb	ip, [r7, #1]!
    7ecc:	e0852105 	add	r2, r5, r5, lsl #2
    7ed0:	e24c1030 	sub	r1, ip, #48	; 0x30
    7ed4:	e0833082 	add	r3, r3, r2, lsl #1
    7ed8:	e3510009 	cmp	r1, #9	; 0x9
    7edc:	e2435030 	sub	r5, r3, #48	; 0x30
    7ee0:	9a001faf 	bls	7ec4 <vfscanf+0x148>
    7ee4:	e50b503c 	str	r5, [fp, -#60]
    7ee8:	e59f3634 	ldr	r3, [pc, #634]	; 8524 <vfscanf+0x7a8>
    7eec:	e3a05000 	mov	r5, #0	; 0x0
    7ef0:	e7d31005 	ldrb	r1, [r3, r5]
    7ef4:	e151000c 	cmp	r1, ip
    7ef8:	0a00212d 	beq	84bc <vfscanf+0x740>
    7efc:	e2855001 	add	r5, r5, #1	; 0x1
    7f00:	e3550004 	cmp	r5, #4	; 0x4
    7f04:	9a001fba 	bls	7ef0 <vfscanf+0x174>
    7f08:	e59fa618 	ldr	sl, [pc, #618]	; 8528 <vfscanf+0x7ac>
    7f0c:	e5da2000 	ldrb	r2, [sl]
    7f10:	e3520000 	cmp	r2, #0	; 0x0
    7f14:	e1a0600a 	mov	r6, sl
    7f18:	0a001f96 	beq	7e60 <vfscanf+0xe4>
    7f1c:	e5d7c000 	ldrb	ip, [r7]
    7f20:	e06a400a 	rsb	r4, sl, sl
    7f24:	e15c0002 	cmp	ip, r2
    7f28:	0a001fcf 	beq	7f44 <vfscanf+0x1c8>
    7f2c:	e5fa3001 	ldrb	r3, [sl, #1]!
    7f30:	e1a02003 	mov	r2, r3
    7f34:	e3520000 	cmp	r2, #0	; 0x0
    7f38:	e2844001 	add	r4, r4, #1	; 0x1
    7f3c:	1a001fc7 	bne	7f24 <vfscanf+0x1a8>
    7f40:	ea001f96 	b	7e60 <vfscanf+0xe4>
    7f44:	e3540000 	cmp	r4, #0	; 0x0
    7f48:	da001f9f 	ble	7e84 <vfscanf+0x108>
    7f4c:	e3540001 	cmp	r4, #1	; 0x1
    7f50:	da002123 	ble	8494 <vfscanf+0x718>
    7f54:	e3540003 	cmp	r4, #3	; 0x3
    7f58:	da001fde 	ble	7f80 <vfscanf+0x204>
    7f5c:	e1a00009 	mov	r0, r9
    7f60:	eb001efd 	bl	7bfc <scan_getc_nw>
    7f64:	e1a05000 	mov	r5, r0
    7f68:	e2453009 	sub	r3, r5, #9	; 0x9
    7f6c:	e3550020 	cmp	r5, #32	; 0x20
    7f70:	13530004 	cmpne	r3, #4	; 0x4
    7f74:	9a001fd5 	bls	7f5c <vfscanf+0x1e0>
    7f78:	e1a00009 	mov	r0, r9
    7f7c:	eb001f3d 	bl	7cfc <scan_ungetc>
    7f80:	e3540004 	cmp	r4, #4	; 0x4
    7f84:	ca002063 	bgt	8194 <vfscanf+0x418>
    7f88:	e5da2000 	ldrb	r2, [sl]
    7f8c:	e3a03000 	mov	r3, #0	; 0x0
    7f90:	e3520063 	cmp	r2, #99	; 0x63
    7f94:	e50b31a0 	str	r3, [fp, -#416]
    7f98:	0a00205d 	beq	817c <vfscanf+0x400>
    7f9c:	e3a05000 	mov	r5, #0	; 0x0
    7fa0:	e24b8f62 	sub	r8, fp, #392	; 0x188
    7fa4:	e3520073 	cmp	r2, #115	; 0x73
    7fa8:	e2453009 	sub	r3, r5, #9	; 0x9
    7fac:	13a03000 	movne	r3, #0	; 0x0
    7fb0:	1a001fef 	bne	7fc4 <vfscanf+0x248>
    7fb4:	e3550020 	cmp	r5, #32	; 0x20
    7fb8:	13530004 	cmpne	r3, #4	; 0x4
    7fbc:	93a03000 	movls	r3, #0	; 0x0
    7fc0:	83a03001 	movhi	r3, #1	; 0x1
    7fc4:	e7c83005 	strb	r3, [r8, r5]
    7fc8:	e2855001 	add	r5, r5, #1	; 0x1
    7fcc:	e35500ff 	cmp	r5, #255	; 0xff
    7fd0:	d5da2000 	ldrleb	r2, [sl]
    7fd4:	da001fe7 	ble	7fa4 <vfscanf+0x228>
    7fd8:	e5da3000 	ldrb	r3, [sl]
    7fdc:	e353005b 	cmp	r3, #91	; 0x5b
    7fe0:	0a002023 	beq	8094 <vfscanf+0x318>
    7fe4:	e51b303c 	ldr	r3, [fp, -#60]
    7fe8:	e3530000 	cmp	r3, #0	; 0x0
    7fec:	da001f8b 	ble	7e34 <vfscanf+0xb8>
    7ff0:	e51b219c 	ldr	r2, [fp, -#412]
    7ff4:	e3520000 	cmp	r2, #0	; 0x0
    7ff8:	151b3190 	ldrne	r3, [fp, -#400]
    7ffc:	e1a00009 	mov	r0, r9
    8000:	15936000 	ldrne	r6, [r3]
    8004:	12833004 	addne	r3, r3, #4	; 0x4
    8008:	150b3190 	strne	r3, [fp, -#400]
    800c:	024b6088 	subeq	r6, fp, #136	; 0x88
    8010:	eb001f1a 	bl	7c70 <scan_getc>
    8014:	e1a04000 	mov	r4, r0
    8018:	e3540000 	cmp	r4, #0	; 0x0
    801c:	da00209a 	ble	8270 <vfscanf+0x4f4>
    8020:	e7d83004 	ldrb	r3, [r8, r4]
    8024:	e51bc1a0 	ldr	ip, [fp, -#416]
    8028:	e153000c 	cmp	r3, ip
    802c:	e3a05000 	mov	r5, #0	; 0x0
    8030:	0a002018 	beq	8068 <vfscanf+0x2ec>
    8034:	e2855001 	add	r5, r5, #1	; 0x1
    8038:	e5c64000 	strb	r4, [r6]
    803c:	e1a00009 	mov	r0, r9
    8040:	eb001f1a 	bl	7c70 <scan_getc>
    8044:	e1a04000 	mov	r4, r0
    8048:	e51b019c 	ldr	r0, [fp, -#412]
    804c:	e3540000 	cmp	r4, #0	; 0x0
    8050:	e0866000 	add	r6, r6, r0
    8054:	da002018 	ble	8068 <vfscanf+0x2ec>
    8058:	e7d83004 	ldrb	r3, [r8, r4]
    805c:	e51b11a0 	ldr	r1, [fp, -#416]
    8060:	e1530001 	cmp	r3, r1
    8064:	1a00200c 	bne	8038 <vfscanf+0x2bc>
    8068:	e3550000 	cmp	r5, #0	; 0x0
    806c:	0a00209a 	beq	8270 <vfscanf+0x4f4>
    8070:	e5da3000 	ldrb	r3, [sl]
    8074:	e3530063 	cmp	r3, #99	; 0x63
    8078:	13a03000 	movne	r3, #0	; 0x0
    807c:	15c63000 	strneb	r3, [r6]
    8080:	e51b2194 	ldr	r2, [fp, -#404]
    8084:	e51b319c 	ldr	r3, [fp, -#412]
    8088:	e0822003 	add	r2, r2, r3
    808c:	e50b2194 	str	r2, [fp, -#404]
    8090:	ea001f86 	b	7e20 <vfscanf+0xa4>
    8094:	e5f7c001 	ldrb	ip, [r7, #1]!
    8098:	e35c005e 	cmp	ip, #94	; 0x5e
    809c:	05f7c001 	ldreqb	ip, [r7, #1]!
    80a0:	03a00001 	moveq	r0, #1	; 0x1
    80a4:	050b01a0 	streq	r0, [fp, -#416]
    80a8:	e35c005d 	cmp	ip, #93	; 0x5d
    80ac:	0a002056 	beq	8160 <vfscanf+0x3e4>
    80b0:	e35c0000 	cmp	ip, #0	; 0x0
    80b4:	135c005d 	cmpne	ip, #93	; 0x5d
    80b8:	e3a00000 	mov	r0, #0	; 0x0
    80bc:	e1a0200c 	mov	r2, ip
    80c0:	0a00204f 	beq	8144 <vfscanf+0x3c8>
    80c4:	e1a0e008 	mov	lr, r8
    80c8:	e2503000 	subs	r3, r0, #0	; 0x0
    80cc:	13a03001 	movne	r3, #1	; 0x1
    80d0:	e20220ff 	and	r2, r2, #255	; 0xff
    80d4:	e352002d 	cmp	r2, #45	; 0x2d
    80d8:	13a03000 	movne	r3, #0	; 0x0
    80dc:	02033001 	andeq	r3, r3, #1	; 0x1
    80e0:	e3530000 	cmp	r3, #0	; 0x0
    80e4:	0a002052 	beq	8150 <vfscanf+0x3d4>
    80e8:	e5d73001 	ldrb	r3, [r7, #1]
    80ec:	e353005d 	cmp	r3, #93	; 0x5d
    80f0:	0a002052 	beq	8150 <vfscanf+0x3d4>
    80f4:	e5f73001 	ldrb	r3, [r7, #1]!
    80f8:	e1530000 	cmp	r3, r0
    80fc:	31a03000 	movcc	r3, r0
    8100:	35d70000 	ldrccb	r0, [r7]
    8104:	25d73000 	ldrcsb	r3, [r7]
    8108:	e1a05000 	mov	r5, r0
    810c:	e1550003 	cmp	r5, r3
    8110:	ca002049 	bgt	812c <vfscanf+0x3b0>
    8114:	e1a02008 	mov	r2, r8
    8118:	e3a01001 	mov	r1, #1	; 0x1
    811c:	e7c21005 	strb	r1, [r2, r5]
    8120:	e2855001 	add	r5, r5, #1	; 0x1
    8124:	e1550003 	cmp	r5, r3
    8128:	da002045 	ble	811c <vfscanf+0x3a0>
    812c:	e3a00000 	mov	r0, #0	; 0x0
    8130:	e5f7c001 	ldrb	ip, [r7, #1]!
    8134:	e35c0000 	cmp	ip, #0	; 0x0
    8138:	135c005d 	cmpne	ip, #93	; 0x5d
    813c:	e1a0200c 	mov	r2, ip
    8140:	1a002030 	bne	80c8 <vfscanf+0x34c>
    8144:	e35c0000 	cmp	ip, #0	; 0x0
    8148:	1a001ff7 	bne	7fe4 <vfscanf+0x268>
    814c:	ea001f8b 	b	7e34 <vfscanf+0xb8>
    8150:	e5d70000 	ldrb	r0, [r7]
    8154:	e3a03001 	mov	r3, #1	; 0x1
    8158:	e7ce3000 	strb	r3, [lr, r0]
    815c:	ea00204a 	b	8130 <vfscanf+0x3b4>
    8160:	e3e03c01 	mvn	r3, #256	; 0x100
    8164:	e2433002 	sub	r3, r3, #2	; 0x2
    8168:	e3a02001 	mov	r2, #1	; 0x1
    816c:	e24b1028 	sub	r1, fp, #40	; 0x28
    8170:	e7c12003 	strb	r2, [r1, r3]
    8174:	e5f7c001 	ldrb	ip, [r7, #1]!
    8178:	ea00202a 	b	80b0 <vfscanf+0x334>
    817c:	e51b303c 	ldr	r3, [fp, -#60]
    8180:	e3a0c001 	mov	ip, #1	; 0x1
    8184:	e3730106 	cmn	r3, #-2147483647	; 0x80000001
    8188:	e50bc1a0 	str	ip, [fp, -#416]
    818c:	050bc03c 	streq	ip, [fp, -#60]
    8190:	ea001fe5 	b	7f9c <vfscanf+0x220>
    8194:	e354000b 	cmp	r4, #11	; 0xb
    8198:	ca001f8b 	bgt	7e34 <vfscanf+0xb8>
    819c:	e26634ff 	rsb	r3, r6, #-16777216	; 0xff000000
    81a0:	e5da2000 	ldrb	r2, [sl]
    81a4:	e28338ff 	add	r3, r3, #16711680	; 0xff0000
    81a8:	e2833cff 	add	r3, r3, #65280	; 0xff00
    81ac:	e51b103c 	ldr	r1, [fp, -#60]
    81b0:	e3520070 	cmp	r2, #112	; 0x70
    81b4:	e51bc198 	ldr	ip, [fp, -#408]
    81b8:	e59f036c 	ldr	r0, [pc, #36c]	; 852c <vfscanf+0x7b0>
    81bc:	e28330fb 	add	r3, r3, #251	; 0xfb
    81c0:	03a0c001 	moveq	ip, #1	; 0x1
    81c4:	e08a3003 	add	r3, sl, r3
    81c8:	e3540009 	cmp	r4, #9	; 0x9
    81cc:	c3a08000 	movgt	r8, #0	; 0x0
    81d0:	d3a08001 	movle	r8, #1	; 0x1
    81d4:	e24ba088 	sub	sl, fp, #136	; 0x88
    81d8:	e3510000 	cmp	r1, #0	; 0x0
    81dc:	e50bc198 	str	ip, [fp, -#408]
    81e0:	e7d05003 	ldrb	r5, [r0, r3]
    81e4:	e1a0600a 	mov	r6, sl
    81e8:	da001f8b 	ble	7e34 <vfscanf+0xb8>
    81ec:	e1a00009 	mov	r0, r9
    81f0:	eb001f1a 	bl	7c70 <scan_getc>
    81f4:	e1a04000 	mov	r4, r0
    81f8:	e354002d 	cmp	r4, #45	; 0x2d
    81fc:	1354002b 	cmpne	r4, #43	; 0x2b
    8200:	1a002084 	bne	8218 <vfscanf+0x49c>
    8204:	e1a00009 	mov	r0, r9
    8208:	e54b4088 	strb	r4, [fp, -#136]
    820c:	e24b6087 	sub	r6, fp, #135	; 0x87
    8210:	eb001f1a 	bl	7c70 <scan_getc>
    8214:	e1a04000 	mov	r4, r0
    8218:	e3540030 	cmp	r4, #48	; 0x30
    821c:	0a00210f 	beq	8444 <vfscanf+0x6c8>
    8220:	e3550000 	cmp	r5, #0	; 0x0
    8224:	03a0500a 	moveq	r5, #10	; 0xa
    8228:	e3540030 	cmp	r4, #48	; 0x30
    822c:	0a002108 	beq	8428 <vfscanf+0x6ac>
    8230:	e1a01005 	mov	r1, r5
    8234:	e20400ff 	and	r0, r4, #255	; 0xff
    8238:	eb001ee1 	bl	7b8c <valid_digit>
    823c:	e1a01000 	mov	r1, r0
    8240:	e3510000 	cmp	r1, #0	; 0x0
    8244:	e06a3006 	rsb	r3, sl, r6
    8248:	e1a00009 	mov	r0, r9
    824c:	0a002097 	beq	8264 <vfscanf+0x4e8>
    8250:	e353003f 	cmp	r3, #63	; 0x3f
    8254:	d4c64001 	strleb	r4, [r6], #1
    8258:	eb001f1a 	bl	7c70 <scan_getc>
    825c:	e1a04000 	mov	r4, r0
    8260:	ea00208a 	b	8230 <vfscanf+0x4b4>
    8264:	e156000a 	cmp	r6, sl
    8268:	e5c61000 	strb	r1, [r6]
    826c:	1a00209d 	bne	827c <vfscanf+0x500>
    8270:	e1a00009 	mov	r0, r9
    8274:	eb001f3d 	bl	7cfc <scan_ungetc>
    8278:	ea001f8b 	b	7e34 <vfscanf+0xb8>
    827c:	e5563001 	ldrb	r3, [r6, -#1]
    8280:	e353002b 	cmp	r3, #43	; 0x2b
    8284:	0a00209a 	beq	8270 <vfscanf+0x4f4>
    8288:	e353002d 	cmp	r3, #45	; 0x2d
    828c:	0a00209a 	beq	8270 <vfscanf+0x4f4>
    8290:	e51b019c 	ldr	r0, [fp, -#412]
    8294:	e3500000 	cmp	r0, #0	; 0x0
    8298:	0a001f86 	beq	7e20 <vfscanf+0xa4>
    829c:	e55b3088 	ldrb	r3, [fp, -#136]
    82a0:	e353002d 	cmp	r3, #45	; 0x2d
    82a4:	03a08000 	moveq	r8, #0	; 0x0
    82a8:	e2683001 	rsb	r3, r8, #1	; 0x1
    82ac:	e1a02005 	mov	r2, r5
    82b0:	e1a0000a 	mov	r0, sl
    82b4:	ebfffffe 	bl	0 <_start>
    82b8:	e51b3198 	ldr	r3, [fp, -#408]
    82bc:	e51bc190 	ldr	ip, [fp, -#400]
    82c0:	e1a02c03 	mov	r2, r3, lsl #24
    82c4:	e1a02c42 	mov	r2, r2, asr #24
    82c8:	e51b3190 	ldr	r3, [fp, -#400]
    82cc:	e28cc004 	add	ip, ip, #4	; 0x4
    82d0:	e2822002 	add	r2, r2, #2	; 0x2
    82d4:	e5933000 	ldr	r3, [r3]
    82d8:	e50bc190 	str	ip, [fp, -#400]
    82dc:	e3520004 	cmp	r2, #4	; 0x4
    82e0:	979ff102 	ldrls	pc, [pc, r2, lsl #2]
    82e4:	ea0020be 	b	8300 <vfscanf+0x584>
    82e8:	00008310 	andeq	r8, r0, r0, lsl r3
    82ec:	00008360 	andeq	r8, r0, r0, ror #6
    82f0:	000083cc 	andeq	r8, r0, ip, asr #7
    82f4:	000083cc 	andeq	r8, r0, ip, asr #7
    82f8:	000082fc 	streqd	r8, [r0], -ip
    82fc:	e8830003 	stmia	r3, {r0, r1}
    8300:	e51b0194 	ldr	r0, [fp, -#404]
    8304:	e2800001 	add	r0, r0, #1	; 0x1
    8308:	e50b0194 	str	r0, [fp, -#404]
    830c:	ea001f86 	b	7e20 <vfscanf+0xa4>
    8310:	e3580000 	cmp	r8, #0	; 0x0
    8314:	0a0020cd 	beq	833c <vfscanf+0x5c0>
    8318:	e3510000 	cmp	r1, #0	; 0x0
    831c:	8a0020c9 	bhi	832c <vfscanf+0x5b0>
    8320:	1a0020cb 	bne	8334 <vfscanf+0x5b8>
    8324:	e35000ff 	cmp	r0, #255	; 0xff
    8328:	9a0020cb 	bls	8334 <vfscanf+0x5b8>
    832c:	e3a01000 	mov	r1, #0	; 0x0
    8330:	e3a000ff 	mov	r0, #255	; 0xff
    8334:	e5c30000 	strb	r0, [r3]
    8338:	ea0020be 	b	8300 <vfscanf+0x584>
    833c:	e3510000 	cmp	r1, #0	; 0x0
    8340:	ca0020c9 	bgt	832c <vfscanf+0x5b0>
    8344:	1a0020d2 	bne	8350 <vfscanf+0x5d4>
    8348:	e35000ff 	cmp	r0, #255	; 0xff
    834c:	8a0020c9 	bhi	832c <vfscanf+0x5b0>
    8350:	e3510000 	cmp	r1, #0	; 0x0
    8354:	b3a01000 	movlt	r1, #0	; 0x0
    8358:	b3a00000 	movlt	r0, #0	; 0x0
    835c:	ea0020cb 	b	8334 <vfscanf+0x5b8>
    8360:	e3580000 	cmp	r8, #0	; 0x0
    8364:	0a0020e1 	beq	838c <vfscanf+0x610>
    8368:	e3510000 	cmp	r1, #0	; 0x0
    836c:	8a0020dd 	bhi	837c <vfscanf+0x600>
    8370:	1a0020df 	bne	8384 <vfscanf+0x608>
    8374:	e3500801 	cmp	r0, #65536	; 0x10000
    8378:	3a0020df 	bcc	8384 <vfscanf+0x608>
    837c:	e28f0d06 	add	r0, pc, #384	; 0x180
    8380:	e8900003 	ldmia	r0, {r0, r1}
    8384:	e1c300b0 	strh	r0, [r3]
    8388:	ea0020be 	b	8300 <vfscanf+0x584>
    838c:	e3510000 	cmp	r1, #0	; 0x0
    8390:	da0020e6 	ble	83a0 <vfscanf+0x624>
    8394:	e28f0e17 	add	r0, pc, #368	; 0x170
    8398:	e8900003 	ldmia	r0, {r0, r1}
    839c:	ea0020df 	b	8384 <vfscanf+0x608>
    83a0:	1a0020e9 	bne	83ac <vfscanf+0x630>
    83a4:	e3500902 	cmp	r0, #32768	; 0x8000
    83a8:	2a0020e3 	bcs	8394 <vfscanf+0x618>
    83ac:	e3710001 	cmn	r1, #1	; 0x1
    83b0:	ba0020ee 	blt	83c0 <vfscanf+0x644>
    83b4:	1a0020df 	bne	8384 <vfscanf+0x608>
    83b8:	e3700902 	cmn	r0, #32768	; 0x8000
    83bc:	2a0020df 	bcs	8384 <vfscanf+0x608>
    83c0:	e28f0f53 	add	r0, pc, #332	; 0x14c
    83c4:	e8900003 	ldmia	r0, {r0, r1}
    83c8:	ea0020df 	b	8384 <vfscanf+0x608>
    83cc:	e3580000 	cmp	r8, #0	; 0x0
    83d0:	0a0020f8 	beq	83e8 <vfscanf+0x66c>
    83d4:	e3510000 	cmp	r1, #0	; 0x0
    83d8:	828f0f4f 	addhi	r0, pc, #316	; 0x13c
    83dc:	88900003 	ldmhiia	r0, {r0, r1}
    83e0:	e5830000 	str	r0, [r3]
    83e4:	ea0020be 	b	8300 <vfscanf+0x584>
    83e8:	e3510000 	cmp	r1, #0	; 0x0
    83ec:	da0020fd 	ble	83fc <vfscanf+0x680>
    83f0:	e3a01000 	mov	r1, #0	; 0x0
    83f4:	e3e00102 	mvn	r0, #-2147483648	; 0x80000000
    83f8:	ea0020f6 	b	83e0 <vfscanf+0x664>
    83fc:	1a002100 	bne	8408 <vfscanf+0x68c>
    8400:	e3700106 	cmn	r0, #-2147483647	; 0x80000001
    8404:	8a0020fa 	bhi	83f0 <vfscanf+0x674>
    8408:	e3710001 	cmn	r1, #1	; 0x1
    840c:	ba002105 	blt	841c <vfscanf+0x6a0>
    8410:	1a0020f6 	bne	83e0 <vfscanf+0x664>
    8414:	e3500102 	cmp	r0, #-2147483648	; 0x80000000
    8418:	2a0020f6 	bcs	83e0 <vfscanf+0x664>
    841c:	e3e01000 	mvn	r1, #0	; 0x0
    8420:	e3a00102 	mov	r0, #-2147483648	; 0x80000000
    8424:	ea0020f6 	b	83e0 <vfscanf+0x664>
    8428:	e4c64001 	strb	r4, [r6], #1
    842c:	e1a00009 	mov	r0, r9
    8430:	eb001f1a 	bl	7c70 <scan_getc>
    8434:	e1a04000 	mov	r4, r0
    8438:	e3540030 	cmp	r4, #48	; 0x30
    843c:	0a002109 	beq	842c <vfscanf+0x6b0>
    8440:	ea00208a 	b	8230 <vfscanf+0x4b4>
    8444:	e3550010 	cmp	r5, #16	; 0x10
    8448:	13550000 	cmpne	r5, #0	; 0x0
    844c:	1a002086 	bne	8220 <vfscanf+0x4a4>
    8450:	e1a00009 	mov	r0, r9
    8454:	eb001f1a 	bl	7c70 <scan_getc>
    8458:	e1a04000 	mov	r4, r0
    845c:	e3540058 	cmp	r4, #88	; 0x58
    8460:	13540078 	cmpne	r4, #120	; 0x78
    8464:	1a00211d 	bne	847c <vfscanf+0x700>
    8468:	e1a00009 	mov	r0, r9
    846c:	eb001f1a 	bl	7c70 <scan_getc>
    8470:	e3a05010 	mov	r5, #16	; 0x10
    8474:	e1a04000 	mov	r4, r0
    8478:	ea002086 	b	8220 <vfscanf+0x4a4>
    847c:	e1a00009 	mov	r0, r9
    8480:	eb001f3d 	bl	7cfc <scan_ungetc>
    8484:	e3550000 	cmp	r5, #0	; 0x0
    8488:	03a05008 	moveq	r5, #8	; 0x8
    848c:	e3a04030 	mov	r4, #48	; 0x30
    8490:	ea002086 	b	8220 <vfscanf+0x4a4>
    8494:	e51b3190 	ldr	r3, [fp, -#400]
    8498:	e51b2040 	ldr	r2, [fp, -#64]
    849c:	e5931000 	ldr	r1, [r3]
    84a0:	e5812000 	str	r2, [r1]
    84a4:	e51b1190 	ldr	r1, [fp, -#400]
    84a8:	e1a00009 	mov	r0, r9
    84ac:	e2811004 	add	r1, r1, #4	; 0x4
    84b0:	e50b1190 	str	r1, [fp, -#400]
    84b4:	eb001efd 	bl	7bfc <scan_getc_nw>
    84b8:	ea001f86 	b	7e20 <vfscanf+0xa4>
    84bc:	e59f306c 	ldr	r3, [pc, #6c]	; 8530 <vfscanf+0x7b4>
    84c0:	e7d32005 	ldrb	r2, [r3, r5]
    84c4:	e3550001 	cmp	r5, #1	; 0x1
    84c8:	e2877001 	add	r7, r7, #1	; 0x1
    84cc:	e50b2198 	str	r2, [fp, -#408]
    84d0:	ca001fc0 	bgt	7f08 <vfscanf+0x18c>
    84d4:	e5d73000 	ldrb	r3, [r7]
    84d8:	e1510003 	cmp	r1, r3
    84dc:	1a001fc0 	bne	7f08 <vfscanf+0x18c>
    84e0:	e1a03c02 	mov	r3, r2, lsl #24
    84e4:	e0823c43 	add	r3, r2, r3, asr #24
    84e8:	e20330ff 	and	r3, r3, #255	; 0xff
    84ec:	e2877001 	add	r7, r7, #1	; 0x1
    84f0:	e50b3198 	str	r3, [fp, -#408]
    84f4:	ea001fc0 	b	7f08 <vfscanf+0x18c>
    84f8:	e280003c 	add	r0, r0, #60	; 0x3c
    84fc:	ebfffffe 	bl	0 <_start>
    8500:	ea001f67 	b	7da4 <vfscanf+0x28>
    8504:	0000ffff 	streqd	pc, [r0], -pc
    8508:	00000000 	andeq	r0, r0, r0
    850c:	00007fff 	streqd	r7, [r0], -pc
    8510:	00000000 	andeq	r0, r0, r0
    8514:	ffff8000 	swinv	0x00ff8000
    8518:	ffffffff 	swinv	0x00ffffff
    851c:	ffffffff 	swinv	0x00ffffff
    8520:	00000000 	andeq	r0, r0, r0
    8524:	00000b14 	andeq	r0, r0, r4, lsl fp
    8528:	00000b20 	andeq	r0, r0, r0, lsr #22
    852c:	00000b2d 	andeq	r0, r0, sp, lsr #22
    8530:	00000b19 	andeq	r0, r0, r9, lsl fp

00008534 <bcopy>:
    8534:	e52de004 	str	lr, [sp, -#4]!
    8538:	e1a03000 	mov	r3, r0
    853c:	e1a00001 	mov	r0, r1
    8540:	e1a01003 	mov	r1, r3
    8544:	e49de004 	ldr	lr, [sp], #4
    8548:	eafffffe 	b	0 <_start>

0000854c <memcmp>:
    854c:	e1a0c002 	mov	ip, r2
    8550:	e3a02000 	mov	r2, #0	; 0x0
    8554:	e24cc001 	sub	ip, ip, #1	; 0x1
    8558:	e37c0001 	cmn	ip, #1	; 0x1
    855c:	0a00215a 	beq	8570 <memcmp+0x24>
    8560:	e4d02001 	ldrb	r2, [r0], #1
    8564:	e4d13001 	ldrb	r3, [r1], #1
    8568:	e0522003 	subs	r2, r2, r3
    856c:	0a002153 	beq	8554 <memcmp+0x8>
    8570:	e1a00002 	mov	r0, r2
    8574:	e1a0f00e 	mov	pc, lr

00008578 <memcpy>:
    8578:	e3520000 	cmp	r2, #0	; 0x0
    857c:	e1a0c000 	mov	ip, r0
    8580:	01a0f00e 	moveq	pc, lr
    8584:	e4d13001 	ldrb	r3, [r1], #1
    8588:	e2522001 	subs	r2, r2, #1	; 0x1
    858c:	e4cc3001 	strb	r3, [ip], #1
    8590:	1a00215f 	bne	8584 <memcpy+0xc>
    8594:	e1a0f00e 	mov	pc, lr

00008598 <memmove>:
    8598:	e1510000 	cmp	r1, r0
    859c:	e52de004 	str	lr, [sp, -#4]!
    85a0:	e1a0c001 	mov	ip, r1
    85a4:	e1a0e000 	mov	lr, r0
    85a8:	3a002170 	bcc	85c8 <memmove+0x30>
    85ac:	e3520000 	cmp	r2, #0	; 0x0
    85b0:	049df004 	ldreq	pc, [sp], #4
    85b4:	e4dc3001 	ldrb	r3, [ip], #1
    85b8:	e2522001 	subs	r2, r2, #1	; 0x1
    85bc:	e4ce3001 	strb	r3, [lr], #1
    85c0:	1a00216b 	bne	85b4 <memmove+0x1c>
    85c4:	e49df004 	ldr	pc, [sp], #4
    85c8:	e3520000 	cmp	r2, #0	; 0x0
    85cc:	049df004 	ldreq	pc, [sp], #4
    85d0:	e2422001 	sub	r2, r2, #1	; 0x1
    85d4:	e7d13002 	ldrb	r3, [r1, r2]
    85d8:	e3520000 	cmp	r2, #0	; 0x0
    85dc:	e7c03002 	strb	r3, [r0, r2]
    85e0:	1a002172 	bne	85d0 <memmove+0x38>
    85e4:	e49df004 	ldr	pc, [sp], #4

000085e8 <memset>:
    85e8:	e3520000 	cmp	r2, #0	; 0x0
    85ec:	e1a03000 	mov	r3, r0
    85f0:	01a0f00e 	moveq	pc, lr
    85f4:	e2522001 	subs	r2, r2, #1	; 0x1
    85f8:	e4c31001 	strb	r1, [r3], #1
    85fc:	1a00217b 	bne	85f4 <memset+0xc>
    8600:	e1a0f00e 	mov	pc, lr

00008604 <strcat>:
    8604:	e1a02000 	mov	r2, r0
    8608:	e4d23001 	ldrb	r3, [r2], #1
    860c:	e3530000 	cmp	r3, #0	; 0x0
    8610:	1a002180 	bne	8608 <strcat+0x4>
    8614:	e2422001 	sub	r2, r2, #1	; 0x1
    8618:	e4d13001 	ldrb	r3, [r1], #1
    861c:	e31300ff 	tst	r3, #255	; 0xff
    8620:	e4c23001 	strb	r3, [r2], #1
    8624:	1a002184 	bne	8618 <strcat+0x14>
    8628:	e1a0f00e 	mov	pc, lr

0000862c <strchr>:
    862c:	e20110ff 	and	r1, r1, #255	; 0xff
    8630:	e5d03000 	ldrb	r3, [r0]
    8634:	e1530001 	cmp	r3, r1
    8638:	01a0f00e 	moveq	pc, lr
    863c:	e3530000 	cmp	r3, #0	; 0x0
    8640:	e2800001 	add	r0, r0, #1	; 0x1
    8644:	1a00218a 	bne	8630 <strchr+0x4>
    8648:	e1a00003 	mov	r0, r3
    864c:	e1a0f00e 	mov	pc, lr

00008650 <strcmp>:
    8650:	e5d02000 	ldrb	r2, [r0]
    8654:	e4d13001 	ldrb	r3, [r1], #1
    8658:	e0523003 	subs	r3, r2, r3
    865c:	e2800001 	add	r0, r0, #1	; 0x1
    8660:	0a002199 	beq	866c <strcmp+0x1c>
    8664:	e1a00003 	mov	r0, r3
    8668:	e1a0f00e 	mov	pc, lr
    866c:	e3520000 	cmp	r2, #0	; 0x0
    8670:	1a002192 	bne	8650 <strcmp>
    8674:	ea002197 	b	8664 <strcmp+0x14>

00008678 <strcpy>:
    8678:	e1a02000 	mov	r2, r0
    867c:	e4d13001 	ldrb	r3, [r1], #1
    8680:	e31300ff 	tst	r3, #255	; 0xff
    8684:	e4c23001 	strb	r3, [r2], #1
    8688:	1a00219d 	bne	867c <strcpy+0x4>
    868c:	e1a0f00e 	mov	pc, lr

00008690 <strdup>:
    8690:	e1a0c00d 	mov	ip, sp
    8694:	e92dd830 	stmdb	sp!, {r4, r5, fp, ip, lr, pc}
    8698:	e24cb004 	sub	fp, ip, #4	; 0x4
    869c:	e1a04000 	mov	r4, r0
    86a0:	ebfffffe 	bl	0 <_start>
    86a4:	e2800001 	add	r0, r0, #1	; 0x1
    86a8:	ebfffffe 	bl	0 <_start>
    86ac:	e1a05000 	mov	r5, r0
    86b0:	e3550000 	cmp	r5, #0	; 0x0
    86b4:	e1a01004 	mov	r1, r4
    86b8:	0a0021ae 	beq	86c0 <strdup+0x30>
    86bc:	ebfffffe 	bl	0 <_start>
    86c0:	e1a00005 	mov	r0, r5
    86c4:	e91ba830 	ldmdb	fp, {r4, r5, fp, sp, pc}

000086c8 <strlen>:
    86c8:	e1a02000 	mov	r2, r0
    86cc:	e5d23000 	ldrb	r3, [r2]
    86d0:	e3530000 	cmp	r3, #0	; 0x0
    86d4:	0a0021b7 	beq	86e4 <strlen+0x1c>
    86d8:	e5f03001 	ldrb	r3, [r0, #1]!
    86dc:	e3530000 	cmp	r3, #0	; 0x0
    86e0:	1a0021b4 	bne	86d8 <strlen+0x10>
    86e4:	e0620000 	rsb	r0, r2, r0
    86e8:	e1a0f00e 	mov	pc, lr

000086ec <strncat>:
    86ec:	e1a0c000 	mov	ip, r0
    86f0:	e4dc3001 	ldrb	r3, [ip], #1
    86f4:	e3530000 	cmp	r3, #0	; 0x0
    86f8:	1a0021ba 	bne	86f0 <strncat+0x4>
    86fc:	e3520000 	cmp	r2, #0	; 0x0
    8700:	e24cc001 	sub	ip, ip, #1	; 0x1
    8704:	0a0021c8 	beq	8728 <strncat+0x3c>
    8708:	ea0021c4 	b	8718 <strncat+0x2c>
    870c:	e2522001 	subs	r2, r2, #1	; 0x1
    8710:	e28cc001 	add	ip, ip, #1	; 0x1
    8714:	0a0021c8 	beq	8728 <strncat+0x3c>
    8718:	e4d13001 	ldrb	r3, [r1], #1
    871c:	e31300ff 	tst	r3, #255	; 0xff
    8720:	e5cc3000 	strb	r3, [ip]
    8724:	1a0021c1 	bne	870c <strncat+0x20>
    8728:	e3a03000 	mov	r3, #0	; 0x0
    872c:	e5cc3000 	strb	r3, [ip]
    8730:	e1a0f00e 	mov	pc, lr

00008734 <strncmp>:
    8734:	e3a03000 	mov	r3, #0	; 0x0
    8738:	e2422001 	sub	r2, r2, #1	; 0x1
    873c:	e3720001 	cmn	r2, #1	; 0x1
    8740:	0a0021d4 	beq	8758 <strncmp+0x24>
    8744:	e5d0c000 	ldrb	ip, [r0]
    8748:	e4d13001 	ldrb	r3, [r1], #1
    874c:	e05c3003 	subs	r3, ip, r3
    8750:	e2800001 	add	r0, r0, #1	; 0x1
    8754:	0a0021d6 	beq	8760 <strncmp+0x2c>
    8758:	e1a00003 	mov	r0, r3
    875c:	e1a0f00e 	mov	pc, lr
    8760:	e35c0000 	cmp	ip, #0	; 0x0
    8764:	1a0021cc 	bne	8738 <strncmp+0x4>
    8768:	ea0021d4 	b	8758 <strncmp+0x24>

0000876c <strncpy>:
    876c:	e3520000 	cmp	r2, #0	; 0x0
    8770:	e1a0c000 	mov	ip, r0
    8774:	01a0f00e 	moveq	pc, lr
    8778:	e5d13000 	ldrb	r3, [r1]
    877c:	e31300ff 	tst	r3, #255	; 0xff
    8780:	12811001 	addne	r1, r1, #1	; 0x1
    8784:	e2522001 	subs	r2, r2, #1	; 0x1
    8788:	e4cc3001 	strb	r3, [ip], #1
    878c:	1a0021dc 	bne	8778 <strncpy+0xc>
    8790:	e1a0f00e 	mov	pc, lr

00008794 <strnlen>:
    8794:	e3510000 	cmp	r1, #0	; 0x0
    8798:	e1a02000 	mov	r2, r0
    879c:	0a0021ef 	beq	87c4 <strnlen+0x30>
    87a0:	e5d23000 	ldrb	r3, [r2]
    87a4:	e3530000 	cmp	r3, #0	; 0x0
    87a8:	0a0021ef 	beq	87c4 <strnlen+0x30>
    87ac:	e2511001 	subs	r1, r1, #1	; 0x1
    87b0:	e2800001 	add	r0, r0, #1	; 0x1
    87b4:	0a0021ef 	beq	87c4 <strnlen+0x30>
    87b8:	e5d03000 	ldrb	r3, [r0]
    87bc:	e3530000 	cmp	r3, #0	; 0x0
    87c0:	1a0021e9 	bne	87ac <strnlen+0x18>
    87c4:	e0620000 	rsb	r0, r2, r0
    87c8:	e1a0f00e 	mov	pc, lr

000087cc <strrchr>:
    87cc:	e20110ff 	and	r1, r1, #255	; 0xff
    87d0:	e3a02000 	mov	r2, #0	; 0x0
    87d4:	e5d03000 	ldrb	r3, [r0]
    87d8:	e1530001 	cmp	r3, r1
    87dc:	01a02000 	moveq	r2, r0
    87e0:	e3530000 	cmp	r3, #0	; 0x0
    87e4:	e2800001 	add	r0, r0, #1	; 0x1
    87e8:	1a0021f3 	bne	87d4 <strrchr+0x8>
    87ec:	e1a00002 	mov	r0, r2
    87f0:	e1a0f00e 	mov	pc, lr

000087f4 <strerror>:
    87f4:	e1a0c00d 	mov	ip, sp
    87f8:	e92dd810 	stmdb	sp!, {r4, fp, ip, lr, pc}
    87fc:	e59f4014 	ldr	r4, [pc, #14]	; 8818 <strerror+0x24>
    8800:	e3a02032 	mov	r2, #50	; 0x32
    8804:	e1a01004 	mov	r1, r4
    8808:	e24cb004 	sub	fp, ip, #4	; 0x4
    880c:	ebfffffe 	bl	0 <_start>
    8810:	e1a00004 	mov	r0, r4
    8814:	e91ba810 	ldmdb	fp, {r4, fp, sp, pc}
    8818:	000008e8 	andeq	r0, r0, r8, ror #17

0000881c <_susv3_strerror_r>:
    881c:	e1a0c00d 	mov	ip, sp
    8820:	e92dd9f0 	stmdb	sp!, {r4, r5, r6, r7, r8, fp, ip, lr, pc}
    8824:	e1a04000 	mov	r4, r0
    8828:	e24cb004 	sub	fp, ip, #4	; 0x4
    882c:	e24dd038 	sub	sp, sp, #56	; 0x38
    8830:	e354007c 	cmp	r4, #124	; 0x7c
    8834:	e1a07001 	mov	r7, r1
    8838:	e1a06002 	mov	r6, r2
    883c:	e3a08016 	mov	r8, #22	; 0x16
    8840:	8a00221c 	bhi	8878 <_susv3_strerror_r+0x5c>
    8844:	e3540000 	cmp	r4, #0	; 0x0
    8848:	e59f50b4 	ldr	r5, [pc, #b4]	; 8904 <_susv3_strerror_r+0xe8>
    884c:	0a002218 	beq	8868 <_susv3_strerror_r+0x4c>
    8850:	e5d53000 	ldrb	r3, [r5]
    8854:	e3530000 	cmp	r3, #0	; 0x0
    8858:	02444001 	subeq	r4, r4, #1	; 0x1
    885c:	e3540000 	cmp	r4, #0	; 0x0
    8860:	e2855001 	add	r5, r5, #1	; 0x1
    8864:	1a002212 	bne	8850 <_susv3_strerror_r+0x34>
    8868:	e5d53000 	ldrb	r3, [r5]
    886c:	e3530000 	cmp	r3, #0	; 0x0
    8870:	13a08000 	movne	r8, #0	; 0x0
    8874:	1a002228 	bne	88a8 <_susv3_strerror_r+0x8c>
    8878:	e1a01000 	mov	r1, r0
    887c:	e1a02fc1 	mov	r2, r1, asr #31
    8880:	e3a0c000 	mov	ip, #0	; 0x0
    8884:	e24b0023 	sub	r0, fp, #35	; 0x23
    8888:	e3e03009 	mvn	r3, #9	; 0x9
    888c:	e58dc000 	str	ip, [sp]
    8890:	ebfffffe 	bl	0 <_start>
    8894:	e240500e 	sub	r5, r0, #14	; 0xe
    8898:	e59f1068 	ldr	r1, [pc, #68]	; 8908 <_susv3_strerror_r+0xec>
    889c:	e1a00005 	mov	r0, r5
    88a0:	e3a0200e 	mov	r2, #14	; 0xe
    88a4:	ebfffffe 	bl	0 <_start>
    88a8:	e1a00005 	mov	r0, r5
    88ac:	ebfffffe 	bl	0 <_start>
    88b0:	e3570000 	cmp	r7, #0	; 0x0
    88b4:	e2804001 	add	r4, r0, #1	; 0x1
    88b8:	03a06000 	moveq	r6, #0	; 0x0
    88bc:	e1540006 	cmp	r4, r6
    88c0:	81a04006 	movhi	r4, r6
    88c4:	83a08022 	movhi	r8, #34	; 0x22
    88c8:	e3540000 	cmp	r4, #0	; 0x0
    88cc:	0a002239 	beq	88ec <_susv3_strerror_r+0xd0>
    88d0:	e1a02004 	mov	r2, r4
    88d4:	e1a01005 	mov	r1, r5
    88d8:	e1a00007 	mov	r0, r7
    88dc:	ebfffffe 	bl	0 <_start>
    88e0:	e0872004 	add	r2, r7, r4
    88e4:	e3a03000 	mov	r3, #0	; 0x0
    88e8:	e5423001 	strb	r3, [r2, -#1]
    88ec:	e3580000 	cmp	r8, #0	; 0x0
    88f0:	0a00223d 	beq	88fc <_susv3_strerror_r+0xe0>
    88f4:	ebfffffe 	bl	0 <_start>
    88f8:	e5808000 	str	r8, [r0]
    88fc:	e1a00008 	mov	r0, r8
    8900:	e91ba9f0 	ldmdb	fp, {r4, r5, r6, r7, r8, fp, sp, pc}
    8904:	00000000 	andeq	r0, r0, r0
    8908:	00000b34 	andeq	r0, r0, r4, lsr fp

0000890c <_glibc_strerror_r>:
    890c:	e1a0c00d 	mov	ip, sp
    8910:	e92dd810 	stmdb	sp!, {r4, fp, ip, lr, pc}
    8914:	e1a04001 	mov	r4, r1
    8918:	e24cb004 	sub	fp, ip, #4	; 0x4
    891c:	ebfffffe 	bl	0 <_start>
    8920:	e1a00004 	mov	r0, r4
    8924:	e91ba810 	ldmdb	fp, {r4, fp, sp, pc}

00008928 <isatty>:
    8928:	e1a0c00d 	mov	ip, sp
    892c:	e92dd800 	stmdb	sp!, {fp, ip, lr, pc}
    8930:	e24cb004 	sub	fp, ip, #4	; 0x4
    8934:	e24dd03c 	sub	sp, sp, #60	; 0x3c
    8938:	e24b1048 	sub	r1, fp, #72	; 0x48
    893c:	ebfffffe 	bl	0 <_start>
    8940:	e3500000 	cmp	r0, #0	; 0x0
    8944:	13a00000 	movne	r0, #0	; 0x0
    8948:	03a00001 	moveq	r0, #1	; 0x1
    894c:	e91ba800 	ldmdb	fp, {fp, sp, pc}

00008950 <tcgetattr>:
    8950:	e1a0c00d 	mov	ip, sp
    8954:	e92dd830 	stmdb	sp!, {r4, r5, fp, ip, lr, pc}
    8958:	e3a03b15 	mov	r3, #21504	; 0x5400
    895c:	e24cb004 	sub	fp, ip, #4	; 0x4
    8960:	e2833001 	add	r3, r3, #1	; 0x1
    8964:	e1a04001 	mov	r4, r1
    8968:	e24dd024 	sub	sp, sp, #36	; 0x24
    896c:	e24b2038 	sub	r2, fp, #56	; 0x38
    8970:	e1a01003 	mov	r1, r3
    8974:	ebfffffe 	bl	0 <_start>
    8978:	e51b2034 	ldr	r2, [fp, -#52]
    897c:	e24b1030 	sub	r1, fp, #48	; 0x30
    8980:	e8911002 	ldmia	r1, {r1, ip}
    8984:	e55be028 	ldrb	lr, [fp, -#40]
    8988:	e51b3038 	ldr	r3, [fp, -#56]
    898c:	e1a05000 	mov	r5, r0
    8990:	e5843000 	str	r3, [r4]
    8994:	e5842004 	str	r2, [r4, #4]
    8998:	e5841008 	str	r1, [r4, #8]
    899c:	e584c00c 	str	ip, [r4, #12]
    89a0:	e24b1027 	sub	r1, fp, #39	; 0x27
    89a4:	e5c4e010 	strb	lr, [r4, #16]
    89a8:	e2840011 	add	r0, r4, #17	; 0x11
    89ac:	e3a02013 	mov	r2, #19	; 0x13
    89b0:	ebfffffe 	bl	0 <_start>
    89b4:	e3a01000 	mov	r1, #0	; 0x0
    89b8:	e3a0200d 	mov	r2, #13	; 0xd
    89bc:	ebfffffe 	bl	0 <_start>
    89c0:	e1a00005 	mov	r0, r5
    89c4:	e91ba830 	ldmdb	fp, {r4, r5, fp, sp, pc}

000089c8 <__libc_sigaction>:
    89c8:	e1a0c00d 	mov	ip, sp
    89cc:	e92dd870 	stmdb	sp!, {r4, r5, r6, fp, ip, lr, pc}
    89d0:	e1a04001 	mov	r4, r1
    89d4:	e24cb004 	sub	fp, ip, #4	; 0x4
    89d8:	e24ddf46 	sub	sp, sp, #280	; 0x118
    89dc:	e3540000 	cmp	r4, #0	; 0x0
    89e0:	e1a06000 	mov	r6, r0
    89e4:	e1a05002 	mov	r5, r2
    89e8:	0a0022a6 	beq	8aa0 <__libc_sigaction+0xd8>
    89ec:	e4913004 	ldr	r3, [r1], #4
    89f0:	e3a02080 	mov	r2, #128	; 0x80
    89f4:	e24b0098 	sub	r0, fp, #152	; 0x98
    89f8:	e50b30a4 	str	r3, [fp, -#164]
    89fc:	ebfffffe 	bl	0 <_start>
    8a00:	e5942084 	ldr	r2, [r4, #132]
    8a04:	e50b20a0 	str	r2, [fp, -#160]
    8a08:	e3120303 	tst	r2, #201326592	; 0xc000000
    8a0c:	15943088 	ldrne	r3, [r4, #136]
    8a10:	150b309c 	strne	r3, [fp, -#156]
    8a14:	1a00228b 	bne	8a34 <__libc_sigaction+0x6c>
    8a18:	e3120004 	tst	r2, #4	; 0x4
    8a1c:	159f3084 	ldrne	r3, [pc, #84]	; 8aa8 <__libc_sigaction+0xe0>
    8a20:	059f3084 	ldreq	r3, [pc, #84]	; 8aac <__libc_sigaction+0xe4>
    8a24:	03822301 	orreq	r2, r2, #67108864	; 0x4000000
    8a28:	150b309c 	strne	r3, [fp, -#156]
    8a2c:	050b309c 	streq	r3, [fp, -#156]
    8a30:	050b20a0 	streq	r2, [fp, -#160]
    8a34:	e24b10a4 	sub	r1, fp, #164	; 0xa4
    8a38:	e3550000 	cmp	r5, #0	; 0x0
    8a3c:	124b2e13 	subne	r2, fp, #304	; 0x130
    8a40:	01a02005 	moveq	r2, r5
    8a44:	e3a03008 	mov	r3, #8	; 0x8
    8a48:	e1a00006 	mov	r0, r6
    8a4c:	ebfffffe 	bl	0 <_start>
    8a50:	e1a04000 	mov	r4, r0
    8a54:	e1e03004 	mvn	r3, r4
    8a58:	e1a03fa3 	mov	r3, r3, lsr #31
    8a5c:	e3550000 	cmp	r5, #0	; 0x0
    8a60:	03a03000 	moveq	r3, #0	; 0x0
    8a64:	12033001 	andne	r3, r3, #1	; 0x1
    8a68:	e3530000 	cmp	r3, #0	; 0x0
    8a6c:	0a0022a4 	beq	8a98 <__libc_sigaction+0xd0>
    8a70:	e51b3130 	ldr	r3, [fp, -#304]
    8a74:	e1a00005 	mov	r0, r5
    8a78:	e4803004 	str	r3, [r0], #4
    8a7c:	e3a02080 	mov	r2, #128	; 0x80
    8a80:	e24b1f49 	sub	r1, fp, #292	; 0x124
    8a84:	ebfffffe 	bl	0 <_start>
    8a88:	e24b2f4b 	sub	r2, fp, #300	; 0x12c
    8a8c:	e892000c 	ldmia	r2, {r2, r3}
    8a90:	e5852084 	str	r2, [r5, #132]
    8a94:	e5853088 	str	r3, [r5, #136]
    8a98:	e1a00004 	mov	r0, r4
    8a9c:	e91ba870 	ldmdb	fp, {r4, r5, r6, fp, sp, pc}
    8aa0:	e1a01004 	mov	r1, r4
    8aa4:	ea00228c 	b	8a38 <__libc_sigaction+0x70>
	...

00008ab0 <bsd_signal>:
    8ab0:	e1a0c00d 	mov	ip, sp
    8ab4:	e92dd810 	stmdb	sp!, {r4, fp, ip, lr, pc}
    8ab8:	e1a04000 	mov	r4, r0
    8abc:	e24cb004 	sub	fp, ip, #4	; 0x4
    8ac0:	e24ddf46 	sub	sp, sp, #280	; 0x118
    8ac4:	e3710001 	cmn	r1, #1	; 0x1
    8ac8:	13540000 	cmpne	r4, #0	; 0x0
    8acc:	ca0022b8 	bgt	8ae8 <bsd_signal+0x38>
    8ad0:	ebfffffe 	bl	0 <_start>
    8ad4:	e3a03016 	mov	r3, #22	; 0x16
    8ad8:	e1a02000 	mov	r2, r0
    8adc:	e3e00000 	mvn	r0, #0	; 0x0
    8ae0:	e5823000 	str	r3, [r2]
    8ae4:	e91ba810 	ldmdb	fp, {r4, fp, sp, pc}
    8ae8:	e354003f 	cmp	r4, #63	; 0x3f
    8aec:	d3a03020 	movle	r3, #32	; 0x20
    8af0:	d24b0098 	suble	r0, fp, #152	; 0x98
    8af4:	d50b109c 	strle	r1, [fp, -#156]
    8af8:	ca0022b2 	bgt	8ad0 <bsd_signal+0x20>
    8afc:	e3a02000 	mov	r2, #0	; 0x0
    8b00:	e2533001 	subs	r3, r3, #1	; 0x1
    8b04:	57802103 	strpl	r2, [r0, r3, lsl #2]
    8b08:	5a0022bd 	bpl	8afc <bsd_signal+0x4c>
    8b0c:	e1a01004 	mov	r1, r4
    8b10:	ebfffffe 	bl	0 <_start>
    8b14:	e3500000 	cmp	r0, #0	; 0x0
    8b18:	b3e00000 	mvnlt	r0, #0	; 0x0
    8b1c:	b91ba810 	ldmltdb	fp, {r4, fp, sp, pc}
    8b20:	e1a01004 	mov	r1, r4
    8b24:	e59f0034 	ldr	r0, [pc, #34]	; 8b60 <bsd_signal+0xb0>
    8b28:	ebfffffe 	bl	0 <_start>
    8b2c:	e1a03000 	mov	r3, r0
    8b30:	e3530000 	cmp	r3, #0	; 0x0
    8b34:	03a03201 	moveq	r3, #268435456	; 0x10000000
    8b38:	13a03000 	movne	r3, #0	; 0x0
    8b3c:	e1a00004 	mov	r0, r4
    8b40:	e24b109c 	sub	r1, fp, #156	; 0x9c
    8b44:	e24b2f4a 	sub	r2, fp, #296	; 0x128
    8b48:	e50b3018 	str	r3, [fp, -#24]
    8b4c:	ebfffffe 	bl	0 <_start>
    8b50:	e3500000 	cmp	r0, #0	; 0x0
    8b54:	a51b0128 	ldrge	r0, [fp, -#296]
    8b58:	b3e00000 	mvnlt	r0, #0	; 0x0
    8b5c:	e91ba810 	ldmdb	fp, {r4, fp, sp, pc}
    8b60:	00000000 	andeq	r0, r0, r0

00008b64 <__sigismember>:
    8b64:	e2411001 	sub	r1, r1, #1	; 0x1
    8b68:	e1a032a1 	mov	r3, r1, lsr #5
    8b6c:	e7902103 	ldr	r2, [r0, r3, lsl #2]
    8b70:	e201101f 	and	r1, r1, #31	; 0x1f
    8b74:	e3a03001 	mov	r3, #1	; 0x1
    8b78:	e0123113 	ands	r3, r2, r3, lsl r1
    8b7c:	03a00000 	moveq	r0, #0	; 0x0
    8b80:	13a00001 	movne	r0, #1	; 0x1
    8b84:	e1a0f00e 	mov	pc, lr

00008b88 <__sigaddset>:
    8b88:	e2411001 	sub	r1, r1, #1	; 0x1
    8b8c:	e1a0c2a1 	mov	ip, r1, lsr #5
    8b90:	e1a0c10c 	mov	ip, ip, lsl #2
    8b94:	e790300c 	ldr	r3, [r0, ip]
    8b98:	e201101f 	and	r1, r1, #31	; 0x1f
    8b9c:	e3a02001 	mov	r2, #1	; 0x1
    8ba0:	e1833112 	orr	r3, r3, r2, lsl r1
    8ba4:	e780300c 	str	r3, [r0, ip]
    8ba8:	e3a00000 	mov	r0, #0	; 0x0
    8bac:	e1a0f00e 	mov	pc, lr

00008bb0 <__sigdelset>:
    8bb0:	e2411001 	sub	r1, r1, #1	; 0x1
    8bb4:	e1a0c2a1 	mov	ip, r1, lsr #5
    8bb8:	e1a0c10c 	mov	ip, ip, lsl #2
    8bbc:	e790300c 	ldr	r3, [r0, ip]
    8bc0:	e201101f 	and	r1, r1, #31	; 0x1f
    8bc4:	e3a02001 	mov	r2, #1	; 0x1
    8bc8:	e1c33112 	bic	r3, r3, r2, lsl r1
    8bcc:	e780300c 	str	r3, [r0, ip]
    8bd0:	e3a00000 	mov	r0, #0	; 0x0
    8bd4:	e1a0f00e 	mov	pc, lr

00008bd8 <atoi>:
    8bd8:	e52de004 	str	lr, [sp, -#4]!
    8bdc:	e3a01000 	mov	r1, #0	; 0x0
    8be0:	e3a0200a 	mov	r2, #10	; 0xa
    8be4:	e49de004 	ldr	lr, [sp], #4
    8be8:	eafffffe 	b	0 <_start>

00008bec <strtol>:
    8bec:	e52de004 	str	lr, [sp, -#4]!
    8bf0:	e3a03001 	mov	r3, #1	; 0x1
    8bf4:	e49de004 	ldr	lr, [sp], #4
    8bf8:	eafffffe 	b	0 <_start>

00008bfc <strtoul>:
    8bfc:	e52de004 	str	lr, [sp, -#4]!
    8c00:	e3a03000 	mov	r3, #0	; 0x0
    8c04:	e49de004 	ldr	lr, [sp], #4
    8c08:	eafffffe 	b	0 <_start>

00008c0c <_stdlib_strto_l>:
    8c0c:	e1a0c00d 	mov	ip, sp
    8c10:	e92ddff0 	stmdb	sp!, {r4, r5, r6, r7, r8, r9, sl, fp, ip, lr, pc}
    8c14:	e1a05000 	mov	r5, r0
    8c18:	e24cb004 	sub	fp, ip, #4	; 0x4
    8c1c:	e24dd008 	sub	sp, sp, #8	; 0x8
    8c20:	e1a06002 	mov	r6, r2
    8c24:	e1a07005 	mov	r7, r5
    8c28:	e50b102c 	str	r1, [fp, -#44]
    8c2c:	e50b3030 	str	r3, [fp, -#48]
    8c30:	e5d50000 	ldrb	r0, [r5]
    8c34:	ebfffffe 	bl	0 <_start>
    8c38:	e3500000 	cmp	r0, #0	; 0x0
    8c3c:	12855001 	addne	r5, r5, #1	; 0x1
    8c40:	1a00230a 	bne	8c30 <_stdlib_strto_l+0x24>
    8c44:	e5d53000 	ldrb	r3, [r5]
    8c48:	e353002b 	cmp	r3, #43	; 0x2b
    8c4c:	e1a09000 	mov	r9, r0
    8c50:	0a00236a 	beq	8db0 <_stdlib_strto_l+0x1a4>
    8c54:	e353002d 	cmp	r3, #45	; 0x2d
    8c58:	0a002369 	beq	8dac <_stdlib_strto_l+0x1a0>
    8c5c:	e3d62010 	bics	r2, r6, #16	; 0x10
    8c60:	0a002359 	beq	8d6c <_stdlib_strto_l+0x160>
    8c64:	e2463002 	sub	r3, r6, #2	; 0x2
    8c68:	e3530022 	cmp	r3, #34	; 0x22
    8c6c:	e3a08000 	mov	r8, #0	; 0x0
    8c70:	8a002334 	bhi	8cd8 <_stdlib_strto_l+0xcc>
    8c74:	e3e04000 	mvn	r4, #0	; 0x0
    8c78:	e1a01006 	mov	r1, r6
    8c7c:	e1a00004 	mov	r0, r4
    8c80:	ebfffffe 	bl	0 <_start>
    8c84:	e1a01006 	mov	r1, r6
    8c88:	e1a03000 	mov	r3, r0
    8c8c:	e1a00004 	mov	r0, r4
    8c90:	e203a0ff 	and	sl, r3, #255	; 0xff
    8c94:	ebfffffe 	bl	0 <_start>
    8c98:	e1a04000 	mov	r4, r0
    8c9c:	e5d52000 	ldrb	r2, [r5]
    8ca0:	e2423030 	sub	r3, r2, #48	; 0x30
    8ca4:	e20330ff 	and	r3, r3, #255	; 0xff
    8ca8:	e3530009 	cmp	r3, #9	; 0x9
    8cac:	e1a01003 	mov	r1, r3
    8cb0:	9a002330 	bls	8cc8 <_stdlib_strto_l+0xbc>
    8cb4:	e3823020 	orr	r3, r2, #32	; 0x20
    8cb8:	e2433057 	sub	r3, r3, #87	; 0x57
    8cbc:	e3520040 	cmp	r2, #64	; 0x40
    8cc0:	e20310ff 	and	r1, r3, #255	; 0xff
    8cc4:	93a01028 	movls	r1, #40	; 0x28
    8cc8:	e51b3030 	ldr	r3, [fp, -#48]
    8ccc:	e1510006 	cmp	r1, r6
    8cd0:	e0092003 	and	r2, r9, r3
    8cd4:	ba002346 	blt	8d20 <_stdlib_strto_l+0x114>
    8cd8:	e51b202c 	ldr	r2, [fp, -#44]
    8cdc:	e3520000 	cmp	r2, #0	; 0x0
    8ce0:	15827000 	strne	r7, [r2]
    8ce4:	e3590000 	cmp	r9, #0	; 0x0
    8ce8:	e51b2030 	ldr	r2, [fp, -#48]
    8cec:	03e03102 	mvneq	r3, #-2147483648	; 0x80000000
    8cf0:	13a03102 	movne	r3, #-2147483648	; 0x80000000
    8cf4:	e3520000 	cmp	r2, #0	; 0x0
    8cf8:	11580003 	cmpne	r8, r3
    8cfc:	9a002342 	bls	8d10 <_stdlib_strto_l+0x104>
    8d00:	e1a08003 	mov	r8, r3
    8d04:	ebfffffe 	bl	0 <_start>
    8d08:	e3a03022 	mov	r3, #34	; 0x22
    8d0c:	e5803000 	str	r3, [r0]
    8d10:	e3590000 	cmp	r9, #0	; 0x0
    8d14:	12680000 	rsbne	r0, r8, #0	; 0x0
    8d18:	01a00008 	moveq	r0, r8
    8d1c:	e91baff0 	ldmdb	fp, {r4, r5, r6, r7, r8, r9, sl, fp, sp, pc}
    8d20:	e1580004 	cmp	r8, r4
    8d24:	e2857001 	add	r7, r5, #1	; 0x1
    8d28:	13a03000 	movne	r3, #0	; 0x0
    8d2c:	03a03001 	moveq	r3, #1	; 0x1
    8d30:	e1a05007 	mov	r5, r7
    8d34:	9a002352 	bls	8d50 <_stdlib_strto_l+0x144>
    8d38:	e20290ff 	and	r9, r2, #255	; 0xff
    8d3c:	ebfffffe 	bl	0 <_start>
    8d40:	e3e08000 	mvn	r8, #0	; 0x0
    8d44:	e3a03022 	mov	r3, #34	; 0x22
    8d48:	e5803000 	str	r3, [r0]
    8d4c:	ea002325 	b	8c9c <_stdlib_strto_l+0x90>
    8d50:	e151000a 	cmp	r1, sl
    8d54:	93a03000 	movls	r3, #0	; 0x0
    8d58:	82033001 	andhi	r3, r3, #1	; 0x1
    8d5c:	e3530000 	cmp	r3, #0	; 0x0
    8d60:	1a00234c 	bne	8d38 <_stdlib_strto_l+0x12c>
    8d64:	e0281896 	mla	r8, r6, r8, r1
    8d68:	ea002325 	b	8c9c <_stdlib_strto_l+0x90>
    8d6c:	e5d53000 	ldrb	r3, [r5]
    8d70:	e3530030 	cmp	r3, #48	; 0x30
    8d74:	e286600a 	add	r6, r6, #10	; 0xa
    8d78:	0a002360 	beq	8d88 <_stdlib_strto_l+0x17c>
    8d7c:	e3560010 	cmp	r6, #16	; 0x10
    8d80:	a3a06010 	movge	r6, #16	; 0x10
    8d84:	ea002317 	b	8c64 <_stdlib_strto_l+0x58>
    8d88:	e2857001 	add	r7, r5, #1	; 0x1
    8d8c:	e5d73000 	ldrb	r3, [r7]
    8d90:	e3833020 	orr	r3, r3, #32	; 0x20
    8d94:	e3530078 	cmp	r3, #120	; 0x78
    8d98:	e2466002 	sub	r6, r6, #2	; 0x2
    8d9c:	e1a05007 	mov	r5, r7
    8da0:	01a06086 	moveq	r6, r6, lsl #1
    8da4:	02875001 	addeq	r5, r7, #1	; 0x1
    8da8:	ea00235d 	b	8d7c <_stdlib_strto_l+0x170>
    8dac:	e3a09001 	mov	r9, #1	; 0x1
    8db0:	e2855001 	add	r5, r5, #1	; 0x1
    8db4:	ea002315 	b	8c5c <_stdlib_strto_l+0x50>

00008db8 <qsort>:
    8db8:	e1a0c00d 	mov	ip, sp
    8dbc:	e92ddff0 	stmdb	sp!, {r4, r5, r6, r7, r8, r9, sl, fp, ip, lr, pc}
    8dc0:	e1a09001 	mov	r9, r1
    8dc4:	e1a0a002 	mov	sl, r2
    8dc8:	e24cb004 	sub	fp, ip, #4	; 0x4
    8dcc:	e24dd008 	sub	sp, sp, #8	; 0x8
    8dd0:	e35a0000 	cmp	sl, #0	; 0x0
    8dd4:	13590001 	cmpne	r9, #1	; 0x1
    8dd8:	e1a0c003 	mov	ip, r3
    8ddc:	e50b002c 	str	r0, [fp, -#44]
    8de0:	991baff0 	ldmlsdb	fp, {r4, r5, r6, r7, r8, r9, sl, fp, sp, pc}
    8de4:	e59f20a4 	ldr	r2, [pc, #a4]	; 8e90 <qsort+0xd8>
    8de8:	e2493001 	sub	r3, r9, #1	; 0x1
    8dec:	e0810392 	umull	r0, r1, r2, r3
    8df0:	e3a08000 	mov	r8, #0	; 0x0
    8df4:	e1a010a1 	mov	r1, r1, lsr #1
    8df8:	e0883088 	add	r3, r8, r8, lsl #1
    8dfc:	e2838001 	add	r8, r3, #1	; 0x1
    8e00:	e1580001 	cmp	r8, r1
    8e04:	3a00237c 	bcc	8df8 <qsort+0x40>
    8e08:	e008089a 	mul	r8, sl, r8
    8e0c:	e009099a 	mul	r9, sl, r9
    8e10:	e1a07008 	mov	r7, r8
    8e14:	e1a06007 	mov	r6, r7
    8e18:	e51b302c 	ldr	r3, [fp, -#44]
    8e1c:	e0686006 	rsb	r6, r8, r6
    8e20:	e0834006 	add	r4, r3, r6
    8e24:	e0845008 	add	r5, r4, r8
    8e28:	e50bc030 	str	ip, [fp, -#48]
    8e2c:	e1a00004 	mov	r0, r4
    8e30:	e1a01005 	mov	r1, r5
    8e34:	e1a0e00f 	mov	lr, pc
    8e38:	e1a0f00c 	mov	pc, ip
    8e3c:	e3500000 	cmp	r0, #0	; 0x0
    8e40:	e51bc030 	ldr	ip, [fp, -#48]
    8e44:	da002399 	ble	8e6c <qsort+0xb4>
    8e48:	e1a0100a 	mov	r1, sl
    8e4c:	e5d42000 	ldrb	r2, [r4]
    8e50:	e5d53000 	ldrb	r3, [r5]
    8e54:	e2511001 	subs	r1, r1, #1	; 0x1
    8e58:	e4c43001 	strb	r3, [r4], #1
    8e5c:	e4c52001 	strb	r2, [r5], #1
    8e60:	1a002391 	bne	8e4c <qsort+0x94>
    8e64:	e1560008 	cmp	r6, r8
    8e68:	2a002384 	bcs	8e18 <qsort+0x60>
    8e6c:	e087700a 	add	r7, r7, sl
    8e70:	e1570009 	cmp	r7, r9
    8e74:	3a002383 	bcc	8e14 <qsort+0x5c>
    8e78:	e59f1010 	ldr	r1, [pc, #10]	; 8e90 <qsort+0xd8>
    8e7c:	e06a2008 	rsb	r2, sl, r8
    8e80:	e0830291 	umull	r0, r3, r1, r2
    8e84:	e1b080a3 	movs	r8, r3, lsr #1
    8e88:	1a002382 	bne	8e10 <qsort+0x58>
    8e8c:	e91baff0 	ldmdb	fp, {r4, r5, r6, r7, r8, r9, sl, fp, sp, pc}
    8e90:	aaaaaaab 	bge	feab3944 <__bss_end__+0xfeaa4f3c>

00008e94 <_stdlib_strto_ll>:
    8e94:	e1a0c00d 	mov	ip, sp
    8e98:	e92ddff0 	stmdb	sp!, {r4, r5, r6, r7, r8, r9, sl, fp, ip, lr, pc}
    8e9c:	e1a0a000 	mov	sl, r0
    8ea0:	e24cb004 	sub	fp, ip, #4	; 0x4
    8ea4:	e24dd010 	sub	sp, sp, #16	; 0x10
    8ea8:	e1a09002 	mov	r9, r2
    8eac:	e1a0c00a 	mov	ip, sl
    8eb0:	e50b102c 	str	r1, [fp, -#44]
    8eb4:	e50b3030 	str	r3, [fp, -#48]
    8eb8:	e5da0000 	ldrb	r0, [sl]
    8ebc:	e50bc038 	str	ip, [fp, -#56]
    8ec0:	ebfffffe 	bl	0 <_start>
    8ec4:	e3500000 	cmp	r0, #0	; 0x0
    8ec8:	e51bc038 	ldr	ip, [fp, -#56]
    8ecc:	128aa001 	addne	sl, sl, #1	; 0x1
    8ed0:	1a0023ac 	bne	8eb8 <_stdlib_strto_ll+0x24>
    8ed4:	e5da3000 	ldrb	r3, [sl]
    8ed8:	e353002b 	cmp	r3, #43	; 0x2b
    8edc:	e50b0034 	str	r0, [fp, -#52]
    8ee0:	0a002433 	beq	90d4 <_stdlib_strto_ll+0x240>
    8ee4:	e353002d 	cmp	r3, #45	; 0x2d
    8ee8:	0a002431 	beq	90cc <_stdlib_strto_ll+0x238>
    8eec:	e3d91010 	bics	r1, r9, #16	; 0x10
    8ef0:	0a002421 	beq	908c <_stdlib_strto_ll+0x1f8>
    8ef4:	e2493002 	sub	r3, r9, #2	; 0x2
    8ef8:	e3530022 	cmp	r3, #34	; 0x22
    8efc:	e3a06000 	mov	r6, #0	; 0x0
    8f00:	e3a05000 	mov	r5, #0	; 0x0
    8f04:	8a0023cf 	bhi	8f44 <_stdlib_strto_ll+0xb0>
    8f08:	e1a07009 	mov	r7, r9
    8f0c:	e1a08fc7 	mov	r8, r7, asr #31
    8f10:	e5da1000 	ldrb	r1, [sl]
    8f14:	e2413030 	sub	r3, r1, #48	; 0x30
    8f18:	e20320ff 	and	r2, r3, #255	; 0xff
    8f1c:	e3520009 	cmp	r2, #9	; 0x9
    8f20:	91a01002 	movls	r1, r2
    8f24:	9a0023cd 	bls	8f3c <_stdlib_strto_ll+0xa8>
    8f28:	e3510040 	cmp	r1, #64	; 0x40
    8f2c:	83813020 	orrhi	r3, r1, #32	; 0x20
    8f30:	82433057 	subhi	r3, r3, #87	; 0x57
    8f34:	820310ff 	andhi	r1, r3, #255	; 0xff
    8f38:	93a01028 	movls	r1, #40	; 0x28
    8f3c:	e1510009 	cmp	r1, r9
    8f40:	ba0023f4 	blt	8fd8 <_stdlib_strto_ll+0x144>
    8f44:	e51b102c 	ldr	r1, [fp, -#44]
    8f48:	e3510000 	cmp	r1, #0	; 0x0
    8f4c:	1581c000 	strne	ip, [r1]
    8f50:	e51b2034 	ldr	r2, [fp, -#52]
    8f54:	e3520000 	cmp	r2, #0	; 0x0
    8f58:	0a0023f1 	beq	8fcc <_stdlib_strto_ll+0x138>
    8f5c:	e28f1f5e 	add	r1, pc, #376	; 0x178
    8f60:	e8910006 	ldmia	r1, {r1, r2}
    8f64:	e51b0030 	ldr	r0, [fp, -#48]
    8f68:	e2503000 	subs	r3, r0, #0	; 0x0
    8f6c:	13a03001 	movne	r3, #1	; 0x1
    8f70:	e1560002 	cmp	r6, r2
    8f74:	e3a00000 	mov	r0, #0	; 0x0
    8f78:	8a0023e0 	bhi	8f88 <_stdlib_strto_ll+0xf4>
    8f7c:	1a0023e1 	bne	8f8c <_stdlib_strto_ll+0xf8>
    8f80:	e1550001 	cmp	r5, r1
    8f84:	9a0023e1 	bls	8f8c <_stdlib_strto_ll+0xf8>
    8f88:	e3a00001 	mov	r0, #1	; 0x1
    8f8c:	e1130000 	tst	r3, r0
    8f90:	0a0023e8 	beq	8fa8 <_stdlib_strto_ll+0x114>
    8f94:	e1a06002 	mov	r6, r2
    8f98:	e1a05001 	mov	r5, r1
    8f9c:	ebfffffe 	bl	0 <_start>
    8fa0:	e3a03022 	mov	r3, #34	; 0x22
    8fa4:	e5803000 	str	r3, [r0]
    8fa8:	e51b1034 	ldr	r1, [fp, -#52]
    8fac:	e3510000 	cmp	r1, #0	; 0x0
    8fb0:	0a0023ee 	beq	8fc0 <_stdlib_strto_ll+0x12c>
    8fb4:	e2750000 	rsbs	r0, r5, #0	; 0x0
    8fb8:	e2e61000 	rsc	r1, r6, #0	; 0x0
    8fbc:	e91baff0 	ldmdb	fp, {r4, r5, r6, r7, r8, r9, sl, fp, sp, pc}
    8fc0:	e1a01006 	mov	r1, r6
    8fc4:	e1a00005 	mov	r0, r5
    8fc8:	e91baff0 	ldmdb	fp, {r4, r5, r6, r7, r8, r9, sl, fp, sp, pc}
    8fcc:	e28f1e11 	add	r1, pc, #272	; 0x110
    8fd0:	e8910006 	ldmia	r1, {r1, r2}
    8fd4:	ea0023d7 	b	8f64 <_stdlib_strto_ll+0xd0>
    8fd8:	e28ac001 	add	ip, sl, #1	; 0x1
    8fdc:	e376037f 	cmn	r6, #-67108863	; 0xfc000001
    8fe0:	e1a0a00c 	mov	sl, ip
    8fe4:	9a002419 	bls	906c <_stdlib_strto_ll+0x1d8>
    8fe8:	e1a02425 	mov	r2, r5, lsr #8
    8fec:	e1823c06 	orr	r3, r2, r6, lsl #24
    8ff0:	e1a04426 	mov	r4, r6, lsr #8
    8ff4:	e20520ff 	and	r2, r5, #255	; 0xff
    8ff8:	e0865793 	umull	r5, r6, r3, r7
    8ffc:	e0266893 	mla	r6, r3, r8, r6
    9000:	e0201299 	mla	r0, r9, r2, r1
    9004:	e0266497 	mla	r6, r7, r4, r6
    9008:	e1a02420 	mov	r2, r0, lsr #8
    900c:	e0953002 	adds	r3, r5, r2
    9010:	e2a64000 	adc	r4, r6, #0	; 0x0
    9014:	e3e014ff 	mvn	r1, #-16777216	; 0xff000000
    9018:	e1540001 	cmp	r4, r1
    901c:	9a002413 	bls	9054 <_stdlib_strto_ll+0x1c0>
    9020:	e51b2034 	ldr	r2, [fp, -#52]
    9024:	e51b0030 	ldr	r0, [fp, -#48]
    9028:	e0023000 	and	r3, r2, r0
    902c:	e20330ff 	and	r3, r3, #255	; 0xff
    9030:	e50b3034 	str	r3, [fp, -#52]
    9034:	e50bc038 	str	ip, [fp, -#56]
    9038:	ebfffffe 	bl	0 <_start>
    903c:	e3a03022 	mov	r3, #34	; 0x22
    9040:	e5803000 	str	r3, [r0]
    9044:	e51bc038 	ldr	ip, [fp, -#56]
    9048:	e3e06000 	mvn	r6, #0	; 0x0
    904c:	e3e05000 	mvn	r5, #0	; 0x0
    9050:	ea0023c2 	b	8f10 <_stdlib_strto_ll+0x7c>
    9054:	e1a02406 	mov	r2, r6, lsl #8
    9058:	e1a03405 	mov	r3, r5, lsl #8
    905c:	e1824c25 	orr	r4, r2, r5, lsr #24
    9060:	e0935000 	adds	r5, r3, r0
    9064:	e2a46000 	adc	r6, r4, #0	; 0x0
    9068:	ea0023c2 	b	8f10 <_stdlib_strto_ll+0x7c>
    906c:	e0843795 	umull	r3, r4, r5, r7
    9070:	e0244895 	mla	r4, r5, r8, r4
    9074:	e0244697 	mla	r4, r7, r6, r4
    9078:	e20150ff 	and	r5, r1, #255	; 0xff
    907c:	e3a06000 	mov	r6, #0	; 0x0
    9080:	e0955003 	adds	r5, r5, r3
    9084:	e0a66004 	adc	r6, r6, r4
    9088:	ea0023c2 	b	8f10 <_stdlib_strto_ll+0x7c>
    908c:	e5da3000 	ldrb	r3, [sl]
    9090:	e3530030 	cmp	r3, #48	; 0x30
    9094:	e289900a 	add	r9, r9, #10	; 0xa
    9098:	0a002428 	beq	90a8 <_stdlib_strto_ll+0x214>
    909c:	e3590010 	cmp	r9, #16	; 0x10
    90a0:	a3a09010 	movge	r9, #16	; 0x10
    90a4:	ea0023bb 	b	8ef4 <_stdlib_strto_ll+0x60>
    90a8:	e28ac001 	add	ip, sl, #1	; 0x1
    90ac:	e5dc3000 	ldrb	r3, [ip]
    90b0:	e3833020 	orr	r3, r3, #32	; 0x20
    90b4:	e3530078 	cmp	r3, #120	; 0x78
    90b8:	e2499002 	sub	r9, r9, #2	; 0x2
    90bc:	e1a0a00c 	mov	sl, ip
    90c0:	01a09089 	moveq	r9, r9, lsl #1
    90c4:	028ca001 	addeq	sl, ip, #1	; 0x1
    90c8:	ea002425 	b	909c <_stdlib_strto_ll+0x208>
    90cc:	e3a00001 	mov	r0, #1	; 0x1
    90d0:	e50b0034 	str	r0, [fp, -#52]
    90d4:	e28aa001 	add	sl, sl, #1	; 0x1
    90d8:	ea0023b9 	b	8eec <_stdlib_strto_ll+0x58>
    90dc:	00000000 	andeq	r0, r0, r0
    90e0:	80000000 	andhi	r0, r0, r0
    90e4:	ffffffff 	swinv	0x00ffffff
    90e8:	7fffffff 	swivc	0x00ffffff

000090ec <atexit>:
    90ec:	e1a0c00d 	mov	ip, sp
    90f0:	e92dd8f0 	stmdb	sp!, {r4, r5, r6, r7, fp, ip, lr, pc}
    90f4:	e59f70d4 	ldr	r7, [pc, #d4]	; 91d0 <atexit+0xe4>
    90f8:	e1a06000 	mov	r6, r0
    90fc:	e1a00007 	mov	r0, r7
    9100:	e24cb004 	sub	fp, ip, #4	; 0x4
    9104:	ebfffffe 	bl	0 <_start>
    9108:	e3560000 	cmp	r6, #0	; 0x0
    910c:	e59f40c0 	ldr	r4, [pc, #c0]	; 91d4 <atexit+0xe8>
    9110:	0a002465 	beq	919c <atexit+0xb0>
    9114:	e59f30bc 	ldr	r3, [pc, #bc]	; 91d8 <atexit+0xec>
    9118:	e5942000 	ldr	r2, [r4]
    911c:	e5930000 	ldr	r0, [r3]
    9120:	e0821082 	add	r1, r2, r2, lsl #1
    9124:	e2800001 	add	r0, r0, #1	; 0x1
    9128:	e1a01101 	mov	r1, r1, lsl #2
    912c:	e1520000 	cmp	r2, r0
    9130:	e59f50a4 	ldr	r5, [pc, #a4]	; 91dc <atexit+0xf0>
    9134:	e28110f0 	add	r1, r1, #240	; 0xf0
    9138:	aa002470 	bge	91c8 <atexit+0xdc>
    913c:	e5950000 	ldr	r0, [r5]
    9140:	ebfffffe 	bl	0 <_start>
    9144:	e1a03000 	mov	r3, r0
    9148:	e3530000 	cmp	r3, #0	; 0x0
    914c:	e1a00007 	mov	r0, r7
    9150:	e5853000 	str	r3, [r5]
    9154:	0a002469 	beq	91ac <atexit+0xc0>
    9158:	e5943000 	ldr	r3, [r4]
    915c:	e2833014 	add	r3, r3, #20	; 0x14
    9160:	e5843000 	str	r3, [r4]
    9164:	e59fc06c 	ldr	ip, [pc, #6c]	; 91d8 <atexit+0xec>
    9168:	e59c2000 	ldr	r2, [ip]
    916c:	e595e000 	ldr	lr, [r5]
    9170:	e0821082 	add	r1, r2, r2, lsl #1
    9174:	e59f3064 	ldr	r3, [pc, #64]	; 91e0 <atexit+0xf4>
    9178:	e59f0064 	ldr	r0, [pc, #64]	; 91e4 <atexit+0xf8>
    917c:	e1a01101 	mov	r1, r1, lsl #2
    9180:	e5830000 	str	r0, [r3]
    9184:	e08e4001 	add	r4, lr, r1
    9188:	e2822001 	add	r2, r2, #1	; 0x1
    918c:	e3a03000 	mov	r3, #0	; 0x0
    9190:	e58c2000 	str	r2, [ip]
    9194:	e78e3001 	str	r3, [lr, r1]
    9198:	e5846004 	str	r6, [r4, #4]
    919c:	e59f002c 	ldr	r0, [pc, #2c]	; 91d0 <atexit+0xe4>
    91a0:	ebfffffe 	bl	0 <_start>
    91a4:	e3a00000 	mov	r0, #0	; 0x0
    91a8:	e91ba8f0 	ldmdb	fp, {r4, r5, r6, r7, fp, sp, pc}
    91ac:	ebfffffe 	bl	0 <_start>
    91b0:	ebfffffe 	bl	0 <_start>
    91b4:	e3a0300c 	mov	r3, #12	; 0xc
    91b8:	e1a02000 	mov	r2, r0
    91bc:	e3e00000 	mvn	r0, #0	; 0x0
    91c0:	e5823000 	str	r3, [r2]
    91c4:	e91ba8f0 	ldmdb	fp, {r4, r5, r6, r7, fp, sp, pc}
    91c8:	e59f500c 	ldr	r5, [pc, #c]	; 91dc <atexit+0xf0>
    91cc:	ea002457 	b	9164 <atexit+0x78>
	...

000091e8 <__exit_handler>:
    91e8:	e1a0c00d 	mov	ip, sp
    91ec:	e92dd8f0 	stmdb	sp!, {r4, r5, r6, r7, fp, ip, lr, pc}
    91f0:	e59f50a4 	ldr	r5, [pc, #a4]	; 929c <__exit_handler+0xb4>
    91f4:	e5953000 	ldr	r3, [r5]
    91f8:	e3530000 	cmp	r3, #0	; 0x0
    91fc:	e24cb004 	sub	fp, ip, #4	; 0x4
    9200:	e1a06000 	mov	r6, r0
    9204:	0a002491 	beq	924c <__exit_handler+0x64>
    9208:	e59f7090 	ldr	r7, [pc, #90]	; 92a0 <__exit_handler+0xb8>
    920c:	e1a04005 	mov	r4, r5
    9210:	e5943000 	ldr	r3, [r4]
    9214:	e2433001 	sub	r3, r3, #1	; 0x1
    9218:	e5971000 	ldr	r1, [r7]
    921c:	e0832083 	add	r2, r3, r3, lsl #1
    9220:	e1a02102 	mov	r2, r2, lsl #2
    9224:	e7910002 	ldr	r0, [r1, r2]
    9228:	e3500000 	cmp	r0, #0	; 0x0
    922c:	e5843000 	str	r3, [r4]
    9230:	e0811002 	add	r1, r1, r2
    9234:	0a00249f 	beq	9284 <__exit_handler+0x9c>
    9238:	e3500001 	cmp	r0, #1	; 0x1
    923c:	0a002497 	beq	9264 <__exit_handler+0x7c>
    9240:	e5953000 	ldr	r3, [r5]
    9244:	e3530000 	cmp	r3, #0	; 0x0
    9248:	1a002482 	bne	9210 <__exit_handler+0x28>
    924c:	e59f304c 	ldr	r3, [pc, #4c]	; 92a0 <__exit_handler+0xb8>
    9250:	e5930000 	ldr	r0, [r3]
    9254:	e3500000 	cmp	r0, #0	; 0x0
    9258:	091ba8f0 	ldmeqdb	fp, {r4, r5, r6, r7, fp, sp, pc}
    925c:	e91b68f0 	ldmdb	fp, {r4, r5, r6, r7, fp, sp, lr}
    9260:	eafffffe 	b	0 <_start>
    9264:	e5913004 	ldr	r3, [r1, #4]
    9268:	e3530000 	cmp	r3, #0	; 0x0
    926c:	e1a00006 	mov	r0, r6
    9270:	0a00248e 	beq	9240 <__exit_handler+0x58>
    9274:	e5911008 	ldr	r1, [r1, #8]
    9278:	e1a0e00f 	mov	lr, pc
    927c:	e1a0f003 	mov	pc, r3
    9280:	ea00248e 	b	9240 <__exit_handler+0x58>
    9284:	e5911004 	ldr	r1, [r1, #4]
    9288:	e3510000 	cmp	r1, #0	; 0x0
    928c:	0a00248e 	beq	9240 <__exit_handler+0x58>
    9290:	e1a0e00f 	mov	lr, pc
    9294:	e1a0f001 	mov	pc, r1
    9298:	ea00248e 	b	9240 <__exit_handler+0x58>
	...

000092a4 <exit>:
    92a4:	e1a0c00d 	mov	ip, sp
    92a8:	e92dd830 	stmdb	sp!, {r4, r5, fp, ip, lr, pc}
    92ac:	e59f504c 	ldr	r5, [pc, #4c]	; 9300 <exit+0x5c>
    92b0:	e1a04000 	mov	r4, r0
    92b4:	e1a00005 	mov	r0, r5
    92b8:	e24cb004 	sub	fp, ip, #4	; 0x4
    92bc:	ebfffffe 	bl	0 <_start>
    92c0:	e59f303c 	ldr	r3, [pc, #3c]	; 9304 <exit+0x60>
    92c4:	e5933000 	ldr	r3, [r3]
    92c8:	e3530000 	cmp	r3, #0	; 0x0
    92cc:	0a0024b5 	beq	92dc <exit+0x38>
    92d0:	e1a00004 	mov	r0, r4
    92d4:	e1a0e00f 	mov	lr, pc
    92d8:	e1a0f003 	mov	pc, r3
    92dc:	e1a00005 	mov	r0, r5
    92e0:	ebfffffe 	bl	0 <_start>
    92e4:	e59f301c 	ldr	r3, [pc, #1c]	; 9308 <exit+0x64>
    92e8:	e3530000 	cmp	r3, #0	; 0x0
    92ec:	0a0024bc 	beq	92f8 <exit+0x54>
    92f0:	e1a0e00f 	mov	lr, pc
    92f4:	e1a0f003 	mov	pc, r3
    92f8:	e1a00004 	mov	r0, r4
    92fc:	ebfffffe 	bl	0 <_start>
	...

0000930c <abort>:
    930c:	e1a0c00d 	mov	ip, sp
    9310:	e92dd830 	stmdb	sp!, {r4, r5, fp, ip, lr, pc}
    9314:	e59f012c 	ldr	r0, [pc, #12c]	; 9448 <abort+0x13c>
    9318:	e24cb004 	sub	fp, ip, #4	; 0x4
    931c:	e24ddf43 	sub	sp, sp, #268	; 0x10c
    9320:	ebfffffe 	bl	0 <_start>
    9324:	e3a0201f 	mov	r2, #31	; 0x1f
    9328:	e24b4094 	sub	r4, fp, #148	; 0x94
    932c:	e3a01000 	mov	r1, #0	; 0x0
    9330:	e1a03102 	mov	r3, r2, lsl #2
    9334:	e2522001 	subs	r2, r2, #1	; 0x1
    9338:	e7841003 	str	r1, [r4, r3]
    933c:	5a0024ca 	bpl	9330 <abort+0x24>
    9340:	e1a00004 	mov	r0, r4
    9344:	e3a01006 	mov	r1, #6	; 0x6
    9348:	ebfffffe 	bl	0 <_start>
    934c:	e3500000 	cmp	r0, #0	; 0x0
    9350:	0a002507 	beq	9424 <abort+0x118>
    9354:	e59f30f0 	ldr	r3, [pc, #f0]	; 944c <abort+0x140>
    9358:	e3530000 	cmp	r3, #0	; 0x0
    935c:	0a0024d8 	beq	9368 <abort+0x5c>
    9360:	e1a0e00f 	mov	lr, pc
    9364:	e1a0f003 	mov	pc, r3
    9368:	e59f50e0 	ldr	r5, [pc, #e0]	; 9450 <abort+0x144>
    936c:	e5953000 	ldr	r3, [r5]
    9370:	e3530000 	cmp	r3, #0	; 0x0
    9374:	0a0024fc 	beq	93f8 <abort+0xec>
    9378:	e3530001 	cmp	r3, #1	; 0x1
    937c:	0a0024e6 	beq	93a0 <abort+0x94>
    9380:	e59f20c8 	ldr	r2, [pc, #c8]	; 9450 <abort+0x144>
    9384:	e5923000 	ldr	r3, [r2]
    9388:	e3530002 	cmp	r3, #2	; 0x2
    938c:	02833001 	addeq	r3, r3, #1	; 0x1
    9390:	05823000 	streq	r3, [r2]
    9394:	e3530003 	cmp	r3, #3	; 0x3
    9398:	0a00250c 	beq	9438 <abort+0x12c>
    939c:	ea0024e5 	b	939c <abort+0x90>
    93a0:	e24b4e12 	sub	r4, fp, #288	; 0x120
    93a4:	e2833001 	add	r3, r3, #1	; 0x1
    93a8:	e3a01000 	mov	r1, #0	; 0x0
    93ac:	e3a0208c 	mov	r2, #140	; 0x8c
    93b0:	e1a00004 	mov	r0, r4
    93b4:	e5853000 	str	r3, [r5]
    93b8:	ebfffffe 	bl	0 <_start>
    93bc:	e3a03000 	mov	r3, #0	; 0x0
    93c0:	e50b3120 	str	r3, [fp, -#288]
    93c4:	e24b1f47 	sub	r1, fp, #284	; 0x11c
    93c8:	e283301f 	add	r3, r3, #31	; 0x1f
    93cc:	e3e02000 	mvn	r2, #0	; 0x0
    93d0:	e7812103 	str	r2, [r1, r3, lsl #2]
    93d4:	e2533001 	subs	r3, r3, #1	; 0x1
    93d8:	5a0024f2 	bpl	93d0 <abort+0xc4>
    93dc:	e3a03000 	mov	r3, #0	; 0x0
    93e0:	e1a01004 	mov	r1, r4
    93e4:	e1a02003 	mov	r2, r3
    93e8:	e3a00006 	mov	r0, #6	; 0x6
    93ec:	e50b309c 	str	r3, [fp, -#156]
    93f0:	ebfffffe 	bl	0 <_start>
    93f4:	ea0024de 	b	9380 <abort+0x74>
    93f8:	e59f4048 	ldr	r4, [pc, #48]	; 9448 <abort+0x13c>
    93fc:	e2833001 	add	r3, r3, #1	; 0x1
    9400:	e1a00004 	mov	r0, r4
    9404:	e5853000 	str	r3, [r5]
    9408:	ebfffffe 	bl	0 <_start>
    940c:	e3a00006 	mov	r0, #6	; 0x6
    9410:	ebfffffe 	bl	0 <_start>
    9414:	e1a00004 	mov	r0, r4
    9418:	ebfffffe 	bl	0 <_start>
    941c:	e5953000 	ldr	r3, [r5]
    9420:	ea0024dc 	b	9378 <abort+0x6c>
    9424:	e1a02000 	mov	r2, r0
    9428:	e1a01004 	mov	r1, r4
    942c:	e3a00001 	mov	r0, #1	; 0x1
    9430:	ebfffffe 	bl	0 <_start>
    9434:	ea0024d3 	b	9354 <abort+0x48>
    9438:	e2833001 	add	r3, r3, #1	; 0x1
    943c:	e3a0007f 	mov	r0, #127	; 0x7f
    9440:	e5823000 	str	r3, [r2]
    9444:	ebfffffe 	bl	0 <_start>
    9448:	0000212c 	andeq	r2, r0, ip, lsr #2
    944c:	00000000 	andeq	r0, r0, r0
    9450:	00002128 	andeq	r2, r0, r8, lsr #2

00009454 <getenv>:
    9454:	e1a0c00d 	mov	ip, sp
    9458:	e92dd8f0 	stmdb	sp!, {r4, r5, r6, r7, fp, ip, lr, pc}
    945c:	e59f3074 	ldr	r3, [pc, #74]	; 94d8 <getenv+0x84>
    9460:	e5935000 	ldr	r5, [r3]
    9464:	e3550000 	cmp	r5, #0	; 0x0
    9468:	e24cb004 	sub	fp, ip, #4	; 0x4
    946c:	e1a07000 	mov	r7, r0
    9470:	0a002532 	beq	94d0 <getenv+0x7c>
    9474:	ebfffffe 	bl	0 <_start>
    9478:	e5954000 	ldr	r4, [r5]
    947c:	e3540000 	cmp	r4, #0	; 0x0
    9480:	e1a06000 	mov	r6, r0
    9484:	0a00252a 	beq	94b0 <getenv+0x5c>
    9488:	e1a01004 	mov	r1, r4
    948c:	e1a00007 	mov	r0, r7
    9490:	e1a02006 	mov	r2, r6
    9494:	ebfffffe 	bl	0 <_start>
    9498:	e3500000 	cmp	r0, #0	; 0x0
    949c:	0a00252c 	beq	94b8 <getenv+0x64>
    94a0:	e5b53004 	ldr	r3, [r5, #4]!
    94a4:	e1a04003 	mov	r4, r3
    94a8:	e3540000 	cmp	r4, #0	; 0x0
    94ac:	1a002520 	bne	9488 <getenv+0x34>
    94b0:	e3a00000 	mov	r0, #0	; 0x0
    94b4:	e91ba8f0 	ldmdb	fp, {r4, r5, r6, r7, fp, sp, pc}
    94b8:	e7d43006 	ldrb	r3, [r4, r6]
    94bc:	e353003d 	cmp	r3, #61	; 0x3d
    94c0:	00840006 	addeq	r0, r4, r6
    94c4:	02800001 	addeq	r0, r0, #1	; 0x1
    94c8:	1a002526 	bne	94a0 <getenv+0x4c>
    94cc:	e91ba8f0 	ldmdb	fp, {r4, r5, r6, r7, fp, sp, pc}
    94d0:	e1a00005 	mov	r0, r5
    94d4:	e91ba8f0 	ldmdb	fp, {r4, r5, r6, r7, fp, sp, pc}
    94d8:	00000000 	andeq	r0, r0, r0

000094dc <__add_to_environ>:
    94dc:	e1a0c00d 	mov	ip, sp
    94e0:	e92ddff0 	stmdb	sp!, {r4, r5, r6, r7, r8, r9, sl, fp, ip, lr, pc}
    94e4:	e24cb004 	sub	fp, ip, #4	; 0x4
    94e8:	e24dd008 	sub	sp, sp, #8	; 0x8
    94ec:	e50b3030 	str	r3, [fp, -#48]
    94f0:	e50b102c 	str	r1, [fp, -#44]
    94f4:	e1a08002 	mov	r8, r2
    94f8:	e1a09000 	mov	r9, r0
    94fc:	ebfffffe 	bl	0 <_start>
    9500:	e51b302c 	ldr	r3, [fp, -#44]
    9504:	e3530000 	cmp	r3, #0	; 0x0
    9508:	e1a06000 	mov	r6, r0
    950c:	051ba02c 	ldreq	sl, [fp, -#44]
    9510:	0a002546 	beq	9520 <__add_to_environ+0x44>
    9514:	e1a00003 	mov	r0, r3
    9518:	ebfffffe 	bl	0 <_start>
    951c:	e280a001 	add	sl, r0, #1	; 0x1
    9520:	e59f0194 	ldr	r0, [pc, #194]	; 96bc <__add_to_environ+0x1e0>
    9524:	ebfffffe 	bl	0 <_start>
    9528:	e59f3190 	ldr	r3, [pc, #190]	; 96c0 <__add_to_environ+0x1e4>
    952c:	e5935000 	ldr	r5, [r3]
    9530:	e3550000 	cmp	r5, #0	; 0x0
    9534:	e3a07000 	mov	r7, #0	; 0x0
    9538:	0a002579 	beq	95ec <__add_to_environ+0x110>
    953c:	e5954000 	ldr	r4, [r5]
    9540:	e3540000 	cmp	r4, #0	; 0x0
    9544:	e1a01009 	mov	r1, r9
    9548:	e1a00004 	mov	r0, r4
    954c:	e1a02006 	mov	r2, r6
    9550:	0a002579 	beq	95ec <__add_to_environ+0x110>
    9554:	ebfffffe 	bl	0 <_start>
    9558:	e3500000 	cmp	r0, #0	; 0x0
    955c:	0a002559 	beq	956c <__add_to_environ+0x90>
    9560:	e2877001 	add	r7, r7, #1	; 0x1
    9564:	e2855004 	add	r5, r5, #4	; 0x4
    9568:	ea00254d 	b	953c <__add_to_environ+0x60>
    956c:	e7d43006 	ldrb	r3, [r4, r6]
    9570:	e353003d 	cmp	r3, #61	; 0x3d
    9574:	1a002556 	bne	9560 <__add_to_environ+0x84>
    9578:	e3540000 	cmp	r4, #0	; 0x0
    957c:	0a002579 	beq	95ec <__add_to_environ+0x110>
    9580:	e51b3030 	ldr	r3, [fp, -#48]
    9584:	e3530000 	cmp	r3, #0	; 0x0
    9588:	0a002575 	beq	95dc <__add_to_environ+0x100>
    958c:	e3580000 	cmp	r8, #0	; 0x0
    9590:	11a04008 	movne	r4, r8
    9594:	1a002574 	bne	95d8 <__add_to_environ+0xfc>
    9598:	e086000a 	add	r0, r6, sl
    959c:	e2800001 	add	r0, r0, #1	; 0x1
    95a0:	ebfffffe 	bl	0 <_start>
    95a4:	e1a04000 	mov	r4, r0
    95a8:	e3540000 	cmp	r4, #0	; 0x0
    95ac:	0a0025a9 	beq	96ac <__add_to_environ+0x1d0>
    95b0:	e1a01009 	mov	r1, r9
    95b4:	e1a02006 	mov	r2, r6
    95b8:	ebfffffe 	bl	0 <_start>
    95bc:	e3a0303d 	mov	r3, #61	; 0x3d
    95c0:	e0840006 	add	r0, r4, r6
    95c4:	e7c43006 	strb	r3, [r4, r6]
    95c8:	e2800001 	add	r0, r0, #1	; 0x1
    95cc:	e51b102c 	ldr	r1, [fp, -#44]
    95d0:	e1a0200a 	mov	r2, sl
    95d4:	ebfffffe 	bl	0 <_start>
    95d8:	e5854000 	str	r4, [r5]
    95dc:	e59f00d8 	ldr	r0, [pc, #d8]	; 96bc <__add_to_environ+0x1e0>
    95e0:	ebfffffe 	bl	0 <_start>
    95e4:	e3a00000 	mov	r0, #0	; 0x0
    95e8:	e91baff0 	ldmdb	fp, {r4, r5, r6, r7, r8, r9, sl, fp, sp, pc}
    95ec:	e59f30d0 	ldr	r3, [pc, #d0]	; 96c4 <__add_to_environ+0x1e8>
    95f0:	e1a05107 	mov	r5, r7, lsl #2
    95f4:	e5930000 	ldr	r0, [r3]
    95f8:	e2851008 	add	r1, r5, #8	; 0x8
    95fc:	ebfffffe 	bl	0 <_start>
    9600:	e1a04000 	mov	r4, r0
    9604:	e3540000 	cmp	r4, #0	; 0x0
    9608:	0a0025a9 	beq	96ac <__add_to_environ+0x1d0>
    960c:	e3580000 	cmp	r8, #0	; 0x0
    9610:	17848107 	strne	r8, [r4, r7, lsl #2]
    9614:	1a002597 	bne	9664 <__add_to_environ+0x188>
    9618:	e086000a 	add	r0, r6, sl
    961c:	e2800001 	add	r0, r0, #1	; 0x1
    9620:	ebfffffe 	bl	0 <_start>
    9624:	e1a03000 	mov	r3, r0
    9628:	e3530000 	cmp	r3, #0	; 0x0
    962c:	e7843107 	str	r3, [r4, r7, lsl #2]
    9630:	0a0025a6 	beq	96a0 <__add_to_environ+0x1c4>
    9634:	e1a01009 	mov	r1, r9
    9638:	e1a02006 	mov	r2, r6
    963c:	ebfffffe 	bl	0 <_start>
    9640:	e7942107 	ldr	r2, [r4, r7, lsl #2]
    9644:	e3a0303d 	mov	r3, #61	; 0x3d
    9648:	e7c23006 	strb	r3, [r2, r6]
    964c:	e7940107 	ldr	r0, [r4, r7, lsl #2]
    9650:	e0800006 	add	r0, r0, r6
    9654:	e2800001 	add	r0, r0, #1	; 0x1
    9658:	e51b102c 	ldr	r1, [fp, -#44]
    965c:	e1a0200a 	mov	r2, sl
    9660:	ebfffffe 	bl	0 <_start>
    9664:	e59f7054 	ldr	r7, [pc, #54]	; 96c0 <__add_to_environ+0x1e4>
    9668:	e59f6054 	ldr	r6, [pc, #54]	; 96c4 <__add_to_environ+0x1e8>
    966c:	e5971000 	ldr	r1, [r7]
    9670:	e5963000 	ldr	r3, [r6]
    9674:	e1510003 	cmp	r1, r3
    9678:	0a0025a0 	beq	9688 <__add_to_environ+0x1ac>
    967c:	e1a00004 	mov	r0, r4
    9680:	e1a02005 	mov	r2, r5
    9684:	ebfffffe 	bl	0 <_start>
    9688:	e0852004 	add	r2, r5, r4
    968c:	e3a03000 	mov	r3, #0	; 0x0
    9690:	e5864000 	str	r4, [r6]
    9694:	e5823004 	str	r3, [r2, #4]
    9698:	e5874000 	str	r4, [r7]
    969c:	ea002575 	b	95dc <__add_to_environ+0x100>
    96a0:	ebfffffe 	bl	0 <_start>
    96a4:	e3a0300c 	mov	r3, #12	; 0xc
    96a8:	e5803000 	str	r3, [r0]
    96ac:	e59f0008 	ldr	r0, [pc, #8]	; 96bc <__add_to_environ+0x1e0>
    96b0:	ebfffffe 	bl	0 <_start>
    96b4:	e3e00000 	mvn	r0, #0	; 0x0
    96b8:	e91baff0 	ldmdb	fp, {r4, r5, r6, r7, r8, r9, sl, fp, sp, pc}
    96bc:	00002144 	andeq	r2, r0, r4, asr #2
    96c0:	00000000 	andeq	r0, r0, r0
    96c4:	0000091c 	andeq	r0, r0, ip, lsl r9

000096c8 <setenv>:
    96c8:	e52de004 	str	lr, [sp, -#4]!
    96cc:	e1a03002 	mov	r3, r2
    96d0:	e3a02000 	mov	r2, #0	; 0x0
    96d4:	e49de004 	ldr	lr, [sp], #4
    96d8:	eafffffe 	b	0 <_start>

000096dc <unsetenv>:
    96dc:	e1a0c00d 	mov	ip, sp
    96e0:	e92dd8f0 	stmdb	sp!, {r4, r5, r6, r7, fp, ip, lr, pc}
    96e4:	e1a07000 	mov	r7, r0
    96e8:	e3570000 	cmp	r7, #0	; 0x0
    96ec:	e24cb004 	sub	fp, ip, #4	; 0x4
    96f0:	0a0025c2 	beq	9710 <unsetenv+0x34>
    96f4:	e5d73000 	ldrb	r3, [r7]
    96f8:	e3530000 	cmp	r3, #0	; 0x0
    96fc:	0a0025c2 	beq	9710 <unsetenv+0x34>
    9700:	e3a0103d 	mov	r1, #61	; 0x3d
    9704:	ebfffffe 	bl	0 <_start>
    9708:	e3500000 	cmp	r0, #0	; 0x0
    970c:	0a0025c8 	beq	9728 <unsetenv+0x4c>
    9710:	ebfffffe 	bl	0 <_start>
    9714:	e3a03016 	mov	r3, #22	; 0x16
    9718:	e1a02000 	mov	r2, r0
    971c:	e3e00000 	mvn	r0, #0	; 0x0
    9720:	e5823000 	str	r3, [r2]
    9724:	e91ba8f0 	ldmdb	fp, {r4, r5, r6, r7, fp, sp, pc}
    9728:	e1a00007 	mov	r0, r7
    972c:	ebfffffe 	bl	0 <_start>
    9730:	e1a06000 	mov	r6, r0
    9734:	e59f0068 	ldr	r0, [pc, #68]	; 97a4 <unsetenv+0xc8>
    9738:	ebfffffe 	bl	0 <_start>
    973c:	e59f3064 	ldr	r3, [pc, #64]	; 97a8 <unsetenv+0xcc>
    9740:	e5935000 	ldr	r5, [r3]
    9744:	e5954000 	ldr	r4, [r5]
    9748:	e3540000 	cmp	r4, #0	; 0x0
    974c:	0a0025e3 	beq	9794 <unsetenv+0xb8>
    9750:	e1a00004 	mov	r0, r4
    9754:	e1a01007 	mov	r1, r7
    9758:	e1a02006 	mov	r2, r6
    975c:	ebfffffe 	bl	0 <_start>
    9760:	e3500000 	cmp	r0, #0	; 0x0
    9764:	0a0025da 	beq	9770 <unsetenv+0x94>
    9768:	e2855004 	add	r5, r5, #4	; 0x4
    976c:	ea0025cf 	b	9744 <unsetenv+0x68>
    9770:	e7d43006 	ldrb	r3, [r4, r6]
    9774:	e353003d 	cmp	r3, #61	; 0x3d
    9778:	1a0025d8 	bne	9768 <unsetenv+0x8c>
    977c:	e1a02005 	mov	r2, r5
    9780:	e5923004 	ldr	r3, [r2, #4]
    9784:	e3530000 	cmp	r3, #0	; 0x0
    9788:	e4823004 	str	r3, [r2], #4
    978c:	1a0025de 	bne	9780 <unsetenv+0xa4>
    9790:	ea0025cf 	b	9744 <unsetenv+0x68>
    9794:	e59f0008 	ldr	r0, [pc, #8]	; 97a4 <unsetenv+0xc8>
    9798:	ebfffffe 	bl	0 <_start>
    979c:	e1a00004 	mov	r0, r4
    97a0:	e91ba8f0 	ldmdb	fp, {r4, r5, r6, r7, fp, sp, pc}
    97a4:	00002144 	andeq	r2, r0, r4, asr #2
    97a8:	00000000 	andeq	r0, r0, r0

000097ac <clearenv>:
    97ac:	e1a0c00d 	mov	ip, sp
    97b0:	e59f0058 	ldr	r0, [pc, #58]	; 9810 <clearenv+0x64>
    97b4:	e92dd830 	stmdb	sp!, {r4, r5, fp, ip, lr, pc}
    97b8:	e24cb004 	sub	fp, ip, #4	; 0x4
    97bc:	e59f4050 	ldr	r4, [pc, #50]	; 9814 <clearenv+0x68>
    97c0:	ebfffffe 	bl	0 <_start>
    97c4:	e59f304c 	ldr	r3, [pc, #4c]	; 9818 <clearenv+0x6c>
    97c8:	e5942000 	ldr	r2, [r4]
    97cc:	e5933000 	ldr	r3, [r3]
    97d0:	e1530002 	cmp	r3, r2
    97d4:	e3a05000 	mov	r5, #0	; 0x0
    97d8:	0a0025fb 	beq	97f4 <clearenv+0x48>
    97dc:	e59f3034 	ldr	r3, [pc, #34]	; 9818 <clearenv+0x6c>
    97e0:	e59f0028 	ldr	r0, [pc, #28]	; 9810 <clearenv+0x64>
    97e4:	e5835000 	str	r5, [r3]
    97e8:	ebfffffe 	bl	0 <_start>
    97ec:	e1a00005 	mov	r0, r5
    97f0:	e91ba830 	ldmdb	fp, {r4, r5, fp, sp, pc}
    97f4:	e1530005 	cmp	r3, r5
    97f8:	e1a00003 	mov	r0, r3
    97fc:	0a0025f5 	beq	97dc <clearenv+0x30>
    9800:	ebfffffe 	bl	0 <_start>
    9804:	e1a03005 	mov	r3, r5
    9808:	e5843000 	str	r3, [r4]
    980c:	ea0025f5 	b	97dc <clearenv+0x30>
    9810:	00002144 	andeq	r2, r0, r4, asr #2
    9814:	0000091c 	andeq	r0, r0, ip, lsl r9
    9818:	00000000 	andeq	r0, r0, r0

0000981c <putenv>:
    981c:	e1a0c00d 	mov	ip, sp
    9820:	e92dd870 	stmdb	sp!, {r4, r5, r6, fp, ip, lr, pc}
    9824:	e3a0103d 	mov	r1, #61	; 0x3d
    9828:	e1a06000 	mov	r6, r0
    982c:	e24cb004 	sub	fp, ip, #4	; 0x4
    9830:	ebfffffe 	bl	0 <_start>
    9834:	e1a04000 	mov	r4, r0
    9838:	e3540000 	cmp	r4, #0	; 0x0
    983c:	e0661004 	rsb	r1, r6, r4
    9840:	e1a00006 	mov	r0, r6
    9844:	0a00261b 	beq	9874 <putenv+0x58>
    9848:	ebfffffe 	bl	0 <_start>
    984c:	e1a02006 	mov	r2, r6
    9850:	e3a03001 	mov	r3, #1	; 0x1
    9854:	e3a01000 	mov	r1, #0	; 0x0
    9858:	e1a05000 	mov	r5, r0
    985c:	ebfffffe 	bl	0 <_start>
    9860:	e1a04000 	mov	r4, r0
    9864:	e1a00005 	mov	r0, r5
    9868:	ebfffffe 	bl	0 <_start>
    986c:	e1a00004 	mov	r0, r4
    9870:	e91ba870 	ldmdb	fp, {r4, r5, r6, fp, sp, pc}
    9874:	e1a00006 	mov	r0, r6
    9878:	ebfffffe 	bl	0 <_start>
    987c:	e1a00004 	mov	r0, r4
    9880:	e91ba870 	ldmdb	fp, {r4, r5, r6, fp, sp, pc}

00009884 <calloc>:
    9884:	e1a0c00d 	mov	ip, sp
    9888:	e92dd830 	stmdb	sp!, {r4, r5, fp, ip, lr, pc}
    988c:	e1a05001 	mov	r5, r1
    9890:	e0040590 	mul	r4, r0, r5
    9894:	e2501000 	subs	r1, r0, #0	; 0x0
    9898:	e24cb004 	sub	fp, ip, #4	; 0x4
    989c:	e1a00004 	mov	r0, r4
    98a0:	0a002630 	beq	98c8 <calloc+0x44>
    98a4:	ebfffffe 	bl	0 <_start>
    98a8:	e1550000 	cmp	r5, r0
    98ac:	0a002630 	beq	98c8 <calloc+0x44>
    98b0:	ebfffffe 	bl	0 <_start>
    98b4:	e3a0300c 	mov	r3, #12	; 0xc
    98b8:	e1a02000 	mov	r2, r0
    98bc:	e3a00000 	mov	r0, #0	; 0x0
    98c0:	e5823000 	str	r3, [r2]
    98c4:	e91ba830 	ldmdb	fp, {r4, r5, fp, sp, pc}
    98c8:	e1a00004 	mov	r0, r4
    98cc:	ebfffffe 	bl	0 <_start>
    98d0:	e3a01000 	mov	r1, #0	; 0x0
    98d4:	e1a05000 	mov	r5, r0
    98d8:	e1550001 	cmp	r5, r1
    98dc:	e1a02004 	mov	r2, r4
    98e0:	0a002638 	beq	98e8 <calloc+0x64>
    98e4:	ebfffffe 	bl	0 <_start>
    98e8:	e1a00005 	mov	r0, r5
    98ec:	e91ba830 	ldmdb	fp, {r4, r5, fp, sp, pc}

000098f0 <get_block>:
    98f0:	e1a0c00d 	mov	ip, sp
    98f4:	e92dd870 	stmdb	sp!, {r4, r5, r6, fp, ip, lr, pc}
    98f8:	e3a06000 	mov	r6, #0	; 0x0
    98fc:	e1a04000 	mov	r4, r0
    9900:	e24dd008 	sub	sp, sp, #8	; 0x8
    9904:	e24cb004 	sub	fp, ip, #4	; 0x4
    9908:	e1a01004 	mov	r1, r4
    990c:	e3a02003 	mov	r2, #3	; 0x3
    9910:	e3a03021 	mov	r3, #33	; 0x21
    9914:	e1a00006 	mov	r0, r6
    9918:	e58d6000 	str	r6, [sp]
    991c:	e58d6004 	str	r6, [sp, #4]
    9920:	ebfffffe 	bl	0 <_start>
    9924:	e1a05000 	mov	r5, r0
    9928:	e3750001 	cmn	r5, #1	; 0x1
    992c:	e1a01004 	mov	r1, r4
    9930:	01a00006 	moveq	r0, r6
    9934:	091ba870 	ldmeqdb	fp, {r4, r5, r6, fp, sp, pc}
    9938:	ebfffffe 	bl	0 <_start>
    993c:	e1a00005 	mov	r0, r5
    9940:	e91ba870 	ldmdb	fp, {r4, r5, r6, fp, sp, pc}

00009944 <malloc>:
    9944:	e1a0c00d 	mov	ip, sp
    9948:	e92dd9f0 	stmdb	sp!, {r4, r5, r6, r7, r8, fp, ip, lr, pc}
    994c:	e1a05000 	mov	r5, r0
    9950:	e3550003 	cmp	r5, #3	; 0x3
    9954:	93a05004 	movls	r5, #4	; 0x4
    9958:	e2853003 	add	r3, r5, #3	; 0x3
    995c:	e3c35003 	bic	r5, r3, #3	; 0x3
    9960:	e35500c7 	cmp	r5, #199	; 0xc7
    9964:	e24cb004 	sub	fp, ip, #4	; 0x4
    9968:	9a002660 	bls	9988 <malloc+0x44>
    996c:	e2850004 	add	r0, r5, #4	; 0x4
    9970:	eb00263a 	bl	98f0 <get_block>
    9974:	e1a04000 	mov	r4, r0
    9978:	e3540000 	cmp	r4, #0	; 0x0
    997c:	14845004 	strne	r5, [r4], #4
    9980:	11a00004 	movne	r0, r4
    9984:	e91ba9f0 	ldmdb	fp, {r4, r5, r6, r7, r8, fp, sp, pc}
    9988:	e59f0190 	ldr	r0, [pc, #190]	; 9b20 <malloc+0x1dc>
    998c:	ebfffffe 	bl	0 <_start>
    9990:	e59f318c 	ldr	r3, [pc, #18c]	; 9b24 <malloc+0x1e0>
    9994:	e5933000 	ldr	r3, [r3]
    9998:	e3530000 	cmp	r3, #0	; 0x0
    999c:	0a002689 	beq	9a2c <malloc+0xe8>
    99a0:	e3a01000 	mov	r1, #0	; 0x0
    99a4:	e1a00003 	mov	r0, r3
    99a8:	e1a0c001 	mov	ip, r1
    99ac:	e3500000 	cmp	r0, #0	; 0x0
    99b0:	0a00267a 	beq	99f0 <malloc+0xac>
    99b4:	e5902000 	ldr	r2, [r0]
    99b8:	e1520005 	cmp	r2, r5
    99bc:	3a002677 	bcc	99e4 <malloc+0xa0>
    99c0:	e3510000 	cmp	r1, #0	; 0x0
    99c4:	0a002673 	beq	99d4 <malloc+0x90>
    99c8:	e5913000 	ldr	r3, [r1]
    99cc:	e1520003 	cmp	r2, r3
    99d0:	2a002677 	bcs	99e4 <malloc+0xa0>
    99d4:	e1520005 	cmp	r2, r5
    99d8:	e1a0400c 	mov	r4, ip
    99dc:	e1a01000 	mov	r1, r0
    99e0:	0a00267a 	beq	99f0 <malloc+0xac>
    99e4:	e1a0c000 	mov	ip, r0
    99e8:	e5900004 	ldr	r0, [r0, #4]
    99ec:	ea002669 	b	99ac <malloc+0x68>
    99f0:	e3510000 	cmp	r1, #0	; 0x0
    99f4:	0a002689 	beq	9a2c <malloc+0xe8>
    99f8:	e3540000 	cmp	r4, #0	; 0x0
    99fc:	15913004 	ldrne	r3, [r1, #4]
    9a00:	15843004 	strne	r3, [r4, #4]
    9a04:	05912004 	ldreq	r2, [r1, #4]
    9a08:	059f3114 	ldreq	r3, [pc, #114]	; 9b24 <malloc+0x1e0>
    9a0c:	e5915000 	ldr	r5, [r1]
    9a10:	05832000 	streq	r2, [r3]
    9a14:	e1a04001 	mov	r4, r1
    9a18:	e3a03000 	mov	r3, #0	; 0x0
    9a1c:	e5813004 	str	r3, [r1, #4]
    9a20:	e59f00f8 	ldr	r0, [pc, #f8]	; 9b20 <malloc+0x1dc>
    9a24:	e4845004 	str	r5, [r4], #4
    9a28:	ea0026c3 	b	9b14 <malloc+0x1d0>
    9a2c:	e59f70f4 	ldr	r7, [pc, #f4]	; 9b28 <malloc+0x1e4>
    9a30:	e5973000 	ldr	r3, [r7]
    9a34:	e2856004 	add	r6, r5, #4	; 0x4
    9a38:	e1530006 	cmp	r3, r6
    9a3c:	259f80e8 	ldrcs	r8, [pc, #e8]	; 9b2c <malloc+0x1e8>
    9a40:	2a0026a5 	bcs	9a9c <malloc+0x158>
    9a44:	e3530007 	cmp	r3, #7	; 0x7
    9a48:	859f80dc 	ldrhi	r8, [pc, #dc]	; 9b2c <malloc+0x1e8>
    9a4c:	859f10d0 	ldrhi	r1, [pc, #d0]	; 9b24 <malloc+0x1e0>
    9a50:	85980000 	ldrhi	r0, [r8]
    9a54:	85912000 	ldrhi	r2, [r1]
    9a58:	e59f40d0 	ldr	r4, [pc, #d0]	; 9b30 <malloc+0x1ec>
    9a5c:	82433004 	subhi	r3, r3, #4	; 0x4
    9a60:	85803000 	strhi	r3, [r0]
    9a64:	85802004 	strhi	r2, [r0, #4]
    9a68:	85810000 	strhi	r0, [r1]
    9a6c:	e1a00004 	mov	r0, r4
    9a70:	959f80b4 	ldrls	r8, [pc, #b4]	; 9b2c <malloc+0x1e8>
    9a74:	ebfffffe 	bl	0 <_start>
    9a78:	e1a00006 	mov	r0, r6
    9a7c:	ebfffffe 	bl	0 <_start>
    9a80:	e5880000 	str	r0, [r8]
    9a84:	e1a00004 	mov	r0, r4
    9a88:	ebfffffe 	bl	0 <_start>
    9a8c:	e5983000 	ldr	r3, [r8]
    9a90:	e3730001 	cmn	r3, #1	; 0x1
    9a94:	0a0026ba 	beq	9af0 <malloc+0x1ac>
    9a98:	e5876000 	str	r6, [r7]
    9a9c:	e59f0084 	ldr	r0, [pc, #84]	; 9b28 <malloc+0x1e4>
    9aa0:	e5903000 	ldr	r3, [r0]
    9aa4:	e5984000 	ldr	r4, [r8]
    9aa8:	e0653003 	rsb	r3, r5, r3
    9aac:	e2431004 	sub	r1, r3, #4	; 0x4
    9ab0:	e0842005 	add	r2, r4, r5
    9ab4:	e2822004 	add	r2, r2, #4	; 0x4
    9ab8:	e3510007 	cmp	r1, #7	; 0x7
    9abc:	e5882000 	str	r2, [r8]
    9ac0:	e5801000 	str	r1, [r0]
    9ac4:	8a0026b5 	bhi	9adc <malloc+0x198>
    9ac8:	e3a03000 	mov	r3, #0	; 0x0
    9acc:	e0855001 	add	r5, r5, r1
    9ad0:	e5803000 	str	r3, [r0]
    9ad4:	e35500c7 	cmp	r5, #199	; 0xc7
    9ad8:	23a050c7 	movcs	r5, #199	; 0xc7
    9adc:	e4845004 	str	r5, [r4], #4
    9ae0:	e59f0038 	ldr	r0, [pc, #38]	; 9b20 <malloc+0x1dc>
    9ae4:	ebfffffe 	bl	0 <_start>
    9ae8:	e1a00004 	mov	r0, r4
    9aec:	e91ba9f0 	ldmdb	fp, {r4, r5, r6, r7, r8, fp, sp, pc}
    9af0:	e3a00eff 	mov	r0, #4080	; 0xff0
    9af4:	eb00263a 	bl	98f0 <get_block>
    9af8:	e1a04000 	mov	r4, r0
    9afc:	e3540000 	cmp	r4, #0	; 0x0
    9b00:	13a03eff 	movne	r3, #4080	; 0xff0
    9b04:	e5884000 	str	r4, [r8]
    9b08:	15873000 	strne	r3, [r7]
    9b0c:	1a0026a5 	bne	9a9c <malloc+0x158>
    9b10:	e59f0008 	ldr	r0, [pc, #8]	; 9b20 <malloc+0x1dc>
    9b14:	ebfffffe 	bl	0 <_start>
    9b18:	e1a00004 	mov	r0, r4
    9b1c:	e91ba9f0 	ldmdb	fp, {r4, r5, r6, r7, r8, fp, sp, pc}
    9b20:	00002174 	andeq	r2, r0, r4, ror r1
    9b24:	00000000 	andeq	r0, r0, r0
    9b28:	00000924 	andeq	r0, r0, r4, lsr #18
    9b2c:	00000920 	andeq	r0, r0, r0, lsr #18
    9b30:	0000215c 	andeq	r2, r0, ip, asr r1

00009b34 <free>:
    9b34:	e1a0c00d 	mov	ip, sp
    9b38:	e92dd8f0 	stmdb	sp!, {r4, r5, r6, r7, fp, ip, lr, pc}
    9b3c:	e1a06000 	mov	r6, r0
    9b40:	e3560000 	cmp	r6, #0	; 0x0
    9b44:	e24cb004 	sub	fp, ip, #4	; 0x4
    9b48:	091ba8f0 	ldmeqdb	fp, {r4, r5, r6, r7, fp, sp, pc}
    9b4c:	e5165004 	ldr	r5, [r6, -#4]
    9b50:	e59f7040 	ldr	r7, [pc, #40]	; 9b98 <free+0x64>
    9b54:	e35500c7 	cmp	r5, #199	; 0xc7
    9b58:	e1a00007 	mov	r0, r7
    9b5c:	e2851004 	add	r1, r5, #4	; 0x4
    9b60:	e2464004 	sub	r4, r6, #4	; 0x4
    9b64:	9a0026db 	bls	9b74 <free+0x40>
    9b68:	e1a00004 	mov	r0, r4
    9b6c:	ebfffffe 	bl	0 <_start>
    9b70:	e91ba8f0 	ldmdb	fp, {r4, r5, r6, r7, fp, sp, pc}
    9b74:	ebfffffe 	bl	0 <_start>
    9b78:	e59f201c 	ldr	r2, [pc, #1c]	; 9b9c <free+0x68>
    9b7c:	e5923000 	ldr	r3, [r2]
    9b80:	e1a00007 	mov	r0, r7
    9b84:	e5065004 	str	r5, [r6, -#4]
    9b88:	e5843004 	str	r3, [r4, #4]
    9b8c:	e5824000 	str	r4, [r2]
    9b90:	ebfffffe 	bl	0 <_start>
    9b94:	e91ba8f0 	ldmdb	fp, {r4, r5, r6, r7, fp, sp, pc}
    9b98:	000021a8 	andeq	r2, r0, r8, lsr #3
    9b9c:	00000000 	andeq	r0, r0, r0

00009ba0 <realloc>:
    9ba0:	e1a0c00d 	mov	ip, sp
    9ba4:	e92dd8f0 	stmdb	sp!, {r4, r5, r6, r7, fp, ip, lr, pc}
    9ba8:	e1a05000 	mov	r5, r0
    9bac:	e3550000 	cmp	r5, #0	; 0x0
    9bb0:	e24cb004 	sub	fp, ip, #4	; 0x4
    9bb4:	e1a04001 	mov	r4, r1
    9bb8:	0a0026fe 	beq	9c00 <realloc+0x60>
    9bbc:	e5156004 	ldr	r6, [r5, -#4]
    9bc0:	e1560004 	cmp	r6, r4
    9bc4:	291ba8f0 	ldmcsdb	fp, {r4, r5, r6, r7, fp, sp, pc}
    9bc8:	e1a00004 	mov	r0, r4
    9bcc:	ebfffffe 	bl	0 <_start>
    9bd0:	e1a07000 	mov	r7, r0
    9bd4:	e3570000 	cmp	r7, #0	; 0x0
    9bd8:	e1a01005 	mov	r1, r5
    9bdc:	0a0026fa 	beq	9bf0 <realloc+0x50>
    9be0:	e1540006 	cmp	r4, r6
    9be4:	31a02004 	movcc	r2, r4
    9be8:	21a02006 	movcs	r2, r6
    9bec:	ebfffffe 	bl	0 <_start>
    9bf0:	e1a00005 	mov	r0, r5
    9bf4:	ebfffffe 	bl	0 <_start>
    9bf8:	e1a00007 	mov	r0, r7
    9bfc:	e91ba8f0 	ldmdb	fp, {r4, r5, r6, r7, fp, sp, pc}
    9c00:	e1a00004 	mov	r0, r4
    9c04:	e91b68f0 	ldmdb	fp, {r4, r5, r6, r7, fp, sp, lr}
    9c08:	eafffffe 	b	0 <_start>

00009c0c <gethostname>:
    9c0c:	e1a0c00d 	mov	ip, sp
    9c10:	e92dd870 	stmdb	sp!, {r4, r5, r6, fp, ip, lr, pc}
    9c14:	e24cb004 	sub	fp, ip, #4	; 0x4
    9c18:	e1a05000 	mov	r5, r0
    9c1c:	e24ddf62 	sub	sp, sp, #392	; 0x188
    9c20:	e24b3e1a 	sub	r3, fp, #416	; 0x1a0
    9c24:	e3550000 	cmp	r5, #0	; 0x0
    9c28:	e1a00003 	mov	r0, r3
    9c2c:	e1a06001 	mov	r6, r1
    9c30:	0a00271a 	beq	9c70 <gethostname+0x64>
    9c34:	e2834041 	add	r4, r3, #65	; 0x41
    9c38:	ebfffffe 	bl	0 <_start>
    9c3c:	e1a03000 	mov	r3, r0
    9c40:	e3730001 	cmn	r3, #1	; 0x1
    9c44:	091ba870 	ldmeqdb	fp, {r4, r5, r6, fp, sp, pc}
    9c48:	e1a00004 	mov	r0, r4
    9c4c:	ebfffffe 	bl	0 <_start>
    9c50:	e2800001 	add	r0, r0, #1	; 0x1
    9c54:	e1500006 	cmp	r0, r6
    9c58:	e1a01004 	mov	r1, r4
    9c5c:	e1a00005 	mov	r0, r5
    9c60:	8a00271a 	bhi	9c70 <gethostname+0x64>
    9c64:	ebfffffe 	bl	0 <_start>
    9c68:	e3a00000 	mov	r0, #0	; 0x0
    9c6c:	e91ba870 	ldmdb	fp, {r4, r5, r6, fp, sp, pc}
    9c70:	ebfffffe 	bl	0 <_start>
    9c74:	e3a03016 	mov	r3, #22	; 0x16
    9c78:	e1a02000 	mov	r2, r0
    9c7c:	e3e00000 	mvn	r0, #0	; 0x0
    9c80:	e5823000 	str	r3, [r2]
    9c84:	e91ba870 	ldmdb	fp, {r4, r5, r6, fp, sp, pc}

00009c88 <getcwd>:
    9c88:	e1a0c00d 	mov	ip, sp
    9c8c:	e92dd8f0 	stmdb	sp!, {r4, r5, r6, r7, fp, ip, lr, pc}
    9c90:	e1a05001 	mov	r5, r1
    9c94:	e3550000 	cmp	r5, #0	; 0x0
    9c98:	e24cb004 	sub	fp, ip, #4	; 0x4
    9c9c:	e1a04000 	mov	r4, r0
    9ca0:	0a00274a 	beq	9d30 <getcwd+0xa8>
    9ca4:	e3550002 	cmp	r5, #2	; 0x2
    9ca8:	ca00272c 	bgt	9cb8 <getcwd+0x30>
    9cac:	ebfffffe 	bl	0 <_start>
    9cb0:	e3a03022 	mov	r3, #34	; 0x22
    9cb4:	ea00274e 	b	9d40 <getcwd+0xb8>
    9cb8:	ebfffffe 	bl	0 <_start>
    9cbc:	e3540000 	cmp	r4, #0	; 0x0
    9cc0:	e1a06000 	mov	r6, r0
    9cc4:	e3a02000 	mov	r2, #0	; 0x0
    9cc8:	e5967000 	ldr	r7, [r6]
    9ccc:	0a002743 	beq	9d14 <getcwd+0x8c>
    9cd0:	e1a01005 	mov	r1, r5
    9cd4:	e1a00004 	mov	r0, r4
    9cd8:	ef9000b7 	swi	0x009000b7
    9cdc:	e3700a01 	cmn	r0, #4096	; 0x1000
    9ce0:	82603000 	rsbhi	r3, r0, #0	; 0x0
    9ce4:	83e00000 	mvnhi	r0, #0	; 0x0
    9ce8:	85863000 	strhi	r3, [r6]
    9cec:	e3500000 	cmp	r0, #0	; 0x0
    9cf0:	a5867000 	strge	r7, [r6]
    9cf4:	a1a00004 	movge	r0, r4
    9cf8:	a91ba8f0 	ldmgedb	fp, {r4, r5, r6, r7, fp, sp, pc}
    9cfc:	e3520000 	cmp	r2, #0	; 0x0
    9d00:	0a002741 	beq	9d0c <getcwd+0x84>
    9d04:	e1a00002 	mov	r0, r2
    9d08:	ebfffffe 	bl	0 <_start>
    9d0c:	e3a00000 	mov	r0, #0	; 0x0
    9d10:	e91ba8f0 	ldmdb	fp, {r4, r5, r6, r7, fp, sp, pc}
    9d14:	e1a00005 	mov	r0, r5
    9d18:	ebfffffe 	bl	0 <_start>
    9d1c:	e1a04000 	mov	r4, r0
    9d20:	e3540000 	cmp	r4, #0	; 0x0
    9d24:	e1a02004 	mov	r2, r4
    9d28:	091ba8f0 	ldmeqdb	fp, {r4, r5, r6, r7, fp, sp, pc}
    9d2c:	ea002732 	b	9cd0 <getcwd+0x48>
    9d30:	e3540000 	cmp	r4, #0	; 0x0
    9d34:	0a002752 	beq	9d50 <getcwd+0xc8>
    9d38:	ebfffffe 	bl	0 <_start>
    9d3c:	e3a03016 	mov	r3, #22	; 0x16
    9d40:	e1a02000 	mov	r2, r0
    9d44:	e3a00000 	mov	r0, #0	; 0x0
    9d48:	e5823000 	str	r3, [r2]
    9d4c:	e91ba8f0 	ldmdb	fp, {r4, r5, r6, r7, fp, sp, pc}
    9d50:	e3a05a01 	mov	r5, #4096	; 0x1000
    9d54:	ea002727 	b	9ca4 <getcwd+0x1c>

00009d58 <__libc_lseek64>:
    9d58:	e1a0c00d 	mov	ip, sp
    9d5c:	e92dd870 	stmdb	sp!, {r4, r5, r6, fp, ip, lr, pc}
    9d60:	e24cb004 	sub	fp, ip, #4	; 0x4
    9d64:	e1a06002 	mov	r6, r2
    9d68:	e1a05001 	mov	r5, r1
    9d6c:	e24dd008 	sub	sp, sp, #8	; 0x8
    9d70:	e1a04003 	mov	r4, r3
    9d74:	e1a01006 	mov	r1, r6
    9d78:	e1a02005 	mov	r2, r5
    9d7c:	e24b3020 	sub	r3, fp, #32	; 0x20
    9d80:	ef90008c 	swi	0x0090008c
    9d84:	e1a04000 	mov	r4, r0
    9d88:	e3740a01 	cmn	r4, #4096	; 0x1000
    9d8c:	9a002766 	bls	9da0 <__libc_lseek64+0x48>
    9d90:	ebfffffe 	bl	0 <_start>
    9d94:	e2643000 	rsb	r3, r4, #0	; 0x0
    9d98:	e5803000 	str	r3, [r0]
    9d9c:	e3e04000 	mvn	r4, #0	; 0x0
    9da0:	e3540000 	cmp	r4, #0	; 0x0
    9da4:	e1a00004 	mov	r0, r4
    9da8:	e1a01fc0 	mov	r1, r0, asr #31
    9dac:	191ba870 	ldmnedb	fp, {r4, r5, r6, fp, sp, pc}
    9db0:	e24b3020 	sub	r3, fp, #32	; 0x20
    9db4:	e8930003 	ldmia	r3, {r0, r1}
    9db8:	e91ba870 	ldmdb	fp, {r4, r5, r6, fp, sp, pc}

00009dbc <_exit>:
    9dbc:	e1a0c00d 	mov	ip, sp
    9dc0:	e92dd810 	stmdb	sp!, {r4, fp, ip, lr, pc}
    9dc4:	e24cb004 	sub	fp, ip, #4	; 0x4
    9dc8:	ef900001 	swi	0x00900001
    9dcc:	e1a04000 	mov	r4, r0
    9dd0:	e3740a01 	cmn	r4, #4096	; 0x1000
    9dd4:	991ba810 	ldmlsdb	fp, {r4, fp, sp, pc}
    9dd8:	ebfffffe 	bl	0 <_start>
    9ddc:	e2643000 	rsb	r3, r4, #0	; 0x0
    9de0:	e5803000 	str	r3, [r0]
    9de4:	e91ba810 	ldmdb	fp, {r4, fp, sp, pc}

00009de8 <sync>:
    9de8:	e1a0c00d 	mov	ip, sp
    9dec:	e92dd810 	stmdb	sp!, {r4, fp, ip, lr, pc}
    9df0:	e24cb004 	sub	fp, ip, #4	; 0x4
    9df4:	ef900024 	swi	0x00900024
    9df8:	e1a04000 	mov	r4, r0
    9dfc:	e3740a01 	cmn	r4, #4096	; 0x1000
    9e00:	991ba810 	ldmlsdb	fp, {r4, fp, sp, pc}
    9e04:	ebfffffe 	bl	0 <_start>
    9e08:	e2643000 	rsb	r3, r4, #0	; 0x0
    9e0c:	e5803000 	str	r3, [r0]
    9e10:	e91ba810 	ldmdb	fp, {r4, fp, sp, pc}

00009e14 <__getdents>:
    9e14:	e1a0c00d 	mov	ip, sp
    9e18:	e92ddff0 	stmdb	sp!, {r4, r5, r6, r7, r8, r9, sl, fp, ip, lr, pc}
    9e1c:	e1a08002 	mov	r8, r2
    9e20:	e59f2108 	ldr	r2, [pc, #108]	; 9f30 <__getdents+0x11c>
    9e24:	e24cb004 	sub	fp, ip, #4	; 0x4
    9e28:	e083c892 	umull	ip, r3, r2, r8
    9e2c:	e2482001 	sub	r2, r8, #1	; 0x1
    9e30:	e04831a3 	sub	r3, r8, r3, lsr #3
    9e34:	e1520003 	cmp	r2, r3
    9e38:	21a02003 	movcs	r2, r3
    9e3c:	e282c003 	add	ip, r2, #3	; 0x3
    9e40:	e24dd004 	sub	sp, sp, #4	; 0x4
    9e44:	e3ccc003 	bic	ip, ip, #3	; 0x3
    9e48:	e1a07001 	mov	r7, r1
    9e4c:	e06cd00d 	rsb	sp, ip, sp
    9e50:	e50b002c 	str	r0, [fp, -#44]
    9e54:	e3e0a000 	mvn	sl, #0	; 0x0
    9e58:	e1a05007 	mov	r5, r7
    9e5c:	e1a0400d 	mov	r4, sp
    9e60:	e1a0100d 	mov	r1, sp
    9e64:	ef90008d 	swi	0x0090008d
    9e68:	e1a06000 	mov	r6, r0
    9e6c:	e3760a01 	cmn	r6, #4096	; 0x1000
    9e70:	9a00279f 	bls	9e84 <__getdents+0x70>
    9e74:	ebfffffe 	bl	0 <_start>
    9e78:	e2663000 	rsb	r3, r6, #0	; 0x0
    9e7c:	e5803000 	str	r3, [r0]
    9e80:	e1a0600a 	mov	r6, sl
    9e84:	e3760001 	cmn	r6, #1	; 0x1
    9e88:	01a0000a 	moveq	r0, sl
    9e8c:	091baff0 	ldmeqdb	fp, {r4, r5, r6, r7, r8, r9, sl, fp, sp, pc}
    9e90:	e08d9006 	add	r9, sp, r6
    9e94:	e1540009 	cmp	r4, r9
    9e98:	e3a0e000 	mov	lr, #0	; 0x0
    9e9c:	e285000b 	add	r0, r5, #11	; 0xb
    9ea0:	e284100a 	add	r1, r4, #10	; 0xa
    9ea4:	e0872008 	add	r2, r7, r8
    9ea8:	2a0027b5 	bcs	9edc <__getdents+0xc8>
    9eac:	e1d430b8 	ldrh	r3, [r4, #8]
    9eb0:	e2833004 	add	r3, r3, #4	; 0x4
    9eb4:	e3c3c003 	bic	ip, r3, #3	; 0x3
    9eb8:	e085600c 	add	r6, r5, ip
    9ebc:	e1560002 	cmp	r6, r2
    9ec0:	9a0027bd 	bls	9efc <__getdents+0xe8>
    9ec4:	e51b002c 	ldr	r0, [fp, -#44]
    9ec8:	e1a0100a 	mov	r1, sl
    9ecc:	e1a0200e 	mov	r2, lr
    9ed0:	ebfffffe 	bl	0 <_start>
    9ed4:	e1550007 	cmp	r5, r7
    9ed8:	0a0027b7 	beq	9ee4 <__getdents+0xd0>
    9edc:	e0670005 	rsb	r0, r7, r5
    9ee0:	e91baff0 	ldmdb	fp, {r4, r5, r6, r7, r8, r9, sl, fp, sp, pc}
    9ee4:	ebfffffe 	bl	0 <_start>
    9ee8:	e3a03016 	mov	r3, #22	; 0x16
    9eec:	e1a02000 	mov	r2, r0
    9ef0:	e3e00000 	mvn	r0, #0	; 0x0
    9ef4:	e5823000 	str	r3, [r2]
    9ef8:	e91baff0 	ldmdb	fp, {r4, r5, r6, r7, r8, r9, sl, fp, sp, pc}
    9efc:	e8940408 	ldmia	r4, {r3, sl}
    9f00:	e5853000 	str	r3, [r5]
    9f04:	e5942004 	ldr	r2, [r4, #4]
    9f08:	e1c5c0b8 	strh	ip, [r5, #8]
    9f0c:	e5852004 	str	r2, [r5, #4]
    9f10:	e5c5e00a 	strb	lr, [r5, #10]
    9f14:	e1d420b8 	ldrh	r2, [r4, #8]
    9f18:	e242200a 	sub	r2, r2, #10	; 0xa
    9f1c:	ebfffffe 	bl	0 <_start>
    9f20:	e1d430b8 	ldrh	r3, [r4, #8]
    9f24:	e1a05006 	mov	r5, r6
    9f28:	e0844003 	add	r4, r4, r3
    9f2c:	ea0027a3 	b	9e94 <__getdents+0x80>
    9f30:	51eb851f 	mvnpl	r8, pc, lsl r5

00009f34 <sbrk>:
    9f34:	e1a0c00d 	mov	ip, sp
    9f38:	e92dd830 	stmdb	sp!, {r4, r5, fp, ip, lr, pc}
    9f3c:	e59f305c 	ldr	r3, [pc, #5c]	; 9fa0 <sbrk+0x6c>
    9f40:	e5932000 	ldr	r2, [r3]
    9f44:	e3520000 	cmp	r2, #0	; 0x0
    9f48:	e1a05000 	mov	r5, r0
    9f4c:	e24cb004 	sub	fp, ip, #4	; 0x4
    9f50:	e1a00002 	mov	r0, r2
    9f54:	0a0027e0 	beq	9f88 <sbrk+0x54>
    9f58:	e3550000 	cmp	r5, #0	; 0x0
    9f5c:	059f303c 	ldreq	r3, [pc, #3c]	; 9fa0 <sbrk+0x6c>
    9f60:	05930000 	ldreq	r0, [r3]
    9f64:	091ba830 	ldmeqdb	fp, {r4, r5, fp, sp, pc}
    9f68:	e59f3030 	ldr	r3, [pc, #30]	; 9fa0 <sbrk+0x6c>
    9f6c:	e5934000 	ldr	r4, [r3]
    9f70:	e0840005 	add	r0, r4, r5
    9f74:	ebfffffe 	bl	0 <_start>
    9f78:	e3500000 	cmp	r0, #0	; 0x0
    9f7c:	a1a00004 	movge	r0, r4
    9f80:	b3e00000 	mvnlt	r0, #0	; 0x0
    9f84:	e91ba830 	ldmdb	fp, {r4, r5, fp, sp, pc}
    9f88:	ebfffffe 	bl	0 <_start>
    9f8c:	e1a03000 	mov	r3, r0
    9f90:	e3530000 	cmp	r3, #0	; 0x0
    9f94:	e3e00000 	mvn	r0, #0	; 0x0
    9f98:	b91ba830 	ldmltdb	fp, {r4, r5, fp, sp, pc}
    9f9c:	ea0027d4 	b	9f58 <sbrk+0x24>
    9fa0:	00000000 	andeq	r0, r0, r0

00009fa4 <__libc_read>:
    9fa4:	e1a0c00d 	mov	ip, sp
    9fa8:	e92dd810 	stmdb	sp!, {r4, fp, ip, lr, pc}
    9fac:	e24cb004 	sub	fp, ip, #4	; 0x4
    9fb0:	ef900003 	swi	0x00900003
    9fb4:	e1a04000 	mov	r4, r0
    9fb8:	e3740a01 	cmn	r4, #4096	; 0x1000
    9fbc:	9a0027f2 	bls	9fd0 <__libc_read+0x2c>
    9fc0:	ebfffffe 	bl	0 <_start>
    9fc4:	e2643000 	rsb	r3, r4, #0	; 0x0
    9fc8:	e5803000 	str	r3, [r0]
    9fcc:	e3e04000 	mvn	r4, #0	; 0x0
    9fd0:	e1a00004 	mov	r0, r4
    9fd4:	e91ba810 	ldmdb	fp, {r4, fp, sp, pc}

00009fd8 <__libc_write>:
    9fd8:	e1a0c00d 	mov	ip, sp
    9fdc:	e92dd810 	stmdb	sp!, {r4, fp, ip, lr, pc}
    9fe0:	e24cb004 	sub	fp, ip, #4	; 0x4
    9fe4:	ef900004 	swi	0x00900004
    9fe8:	e1a04000 	mov	r4, r0
    9fec:	e3740a01 	cmn	r4, #4096	; 0x1000
    9ff0:	9a0027ff 	bls	a004 <__libc_write+0x2c>
    9ff4:	ebfffffe 	bl	0 <_start>
    9ff8:	e2643000 	rsb	r3, r4, #0	; 0x0
    9ffc:	e5803000 	str	r3, [r0]
    a000:	e3e04000 	mvn	r4, #0	; 0x0
    a004:	e1a00004 	mov	r0, r4
    a008:	e91ba810 	ldmdb	fp, {r4, fp, sp, pc}

0000a00c <__libc_open>:
    a00c:	e1a0c00d 	mov	ip, sp
    a010:	e1a02802 	mov	r2, r2, lsl #16
    a014:	e92dd810 	stmdb	sp!, {r4, fp, ip, lr, pc}
    a018:	e1a02822 	mov	r2, r2, lsr #16
    a01c:	e24cb004 	sub	fp, ip, #4	; 0x4
    a020:	ef900005 	swi	0x00900005
    a024:	e1a04000 	mov	r4, r0
    a028:	e3740a01 	cmn	r4, #4096	; 0x1000
    a02c:	9a00280e 	bls	a040 <__libc_open+0x34>
    a030:	ebfffffe 	bl	0 <_start>
    a034:	e2643000 	rsb	r3, r4, #0	; 0x0
    a038:	e5803000 	str	r3, [r0]
    a03c:	e3e04000 	mvn	r4, #0	; 0x0
    a040:	e1a00004 	mov	r0, r4
    a044:	e91ba810 	ldmdb	fp, {r4, fp, sp, pc}

0000a048 <__libc_close>:
    a048:	e1a0c00d 	mov	ip, sp
    a04c:	e92dd810 	stmdb	sp!, {r4, fp, ip, lr, pc}
    a050:	e24cb004 	sub	fp, ip, #4	; 0x4
    a054:	ef900006 	swi	0x00900006
    a058:	e1a04000 	mov	r4, r0
    a05c:	e3740a01 	cmn	r4, #4096	; 0x1000
    a060:	9a00281b 	bls	a074 <__libc_close+0x2c>
    a064:	ebfffffe 	bl	0 <_start>
    a068:	e2643000 	rsb	r3, r4, #0	; 0x0
    a06c:	e5803000 	str	r3, [r0]
    a070:	e3e04000 	mvn	r4, #0	; 0x0
    a074:	e1a00004 	mov	r0, r4
    a078:	e91ba810 	ldmdb	fp, {r4, fp, sp, pc}

0000a07c <link>:
    a07c:	e1a0c00d 	mov	ip, sp
    a080:	e92dd810 	stmdb	sp!, {r4, fp, ip, lr, pc}
    a084:	e24cb004 	sub	fp, ip, #4	; 0x4
    a088:	ef900009 	swi	0x00900009
    a08c:	e1a04000 	mov	r4, r0
    a090:	e3740a01 	cmn	r4, #4096	; 0x1000
    a094:	9a002828 	bls	a0a8 <link+0x2c>
    a098:	ebfffffe 	bl	0 <_start>
    a09c:	e2643000 	rsb	r3, r4, #0	; 0x0
    a0a0:	e5803000 	str	r3, [r0]
    a0a4:	e3e04000 	mvn	r4, #0	; 0x0
    a0a8:	e1a00004 	mov	r0, r4
    a0ac:	e91ba810 	ldmdb	fp, {r4, fp, sp, pc}

0000a0b0 <unlink>:
    a0b0:	e1a0c00d 	mov	ip, sp
    a0b4:	e92dd810 	stmdb	sp!, {r4, fp, ip, lr, pc}
    a0b8:	e24cb004 	sub	fp, ip, #4	; 0x4
    a0bc:	ef90000a 	swi	0x0090000a
    a0c0:	e1a04000 	mov	r4, r0
    a0c4:	e3740a01 	cmn	r4, #4096	; 0x1000
    a0c8:	9a002835 	bls	a0dc <unlink+0x2c>
    a0cc:	ebfffffe 	bl	0 <_start>
    a0d0:	e2643000 	rsb	r3, r4, #0	; 0x0
    a0d4:	e5803000 	str	r3, [r0]
    a0d8:	e3e04000 	mvn	r4, #0	; 0x0
    a0dc:	e1a00004 	mov	r0, r4
    a0e0:	e91ba810 	ldmdb	fp, {r4, fp, sp, pc}

0000a0e4 <chdir>:
    a0e4:	e1a0c00d 	mov	ip, sp
    a0e8:	e92dd810 	stmdb	sp!, {r4, fp, ip, lr, pc}
    a0ec:	e24cb004 	sub	fp, ip, #4	; 0x4
    a0f0:	ef90000c 	swi	0x0090000c
    a0f4:	e1a04000 	mov	r4, r0
    a0f8:	e3740a01 	cmn	r4, #4096	; 0x1000
    a0fc:	9a002842 	bls	a110 <chdir+0x2c>
    a100:	ebfffffe 	bl	0 <_start>
    a104:	e2643000 	rsb	r3, r4, #0	; 0x0
    a108:	e5803000 	str	r3, [r0]
    a10c:	e3e04000 	mvn	r4, #0	; 0x0
    a110:	e1a00004 	mov	r0, r4
    a114:	e91ba810 	ldmdb	fp, {r4, fp, sp, pc}

0000a118 <time>:
    a118:	e1a0c00d 	mov	ip, sp
    a11c:	e92dd810 	stmdb	sp!, {r4, fp, ip, lr, pc}
    a120:	e24cb004 	sub	fp, ip, #4	; 0x4
    a124:	ef90000d 	swi	0x0090000d
    a128:	e1a04000 	mov	r4, r0
    a12c:	e3740a01 	cmn	r4, #4096	; 0x1000
    a130:	9a00284f 	bls	a144 <time+0x2c>
    a134:	ebfffffe 	bl	0 <_start>
    a138:	e2643000 	rsb	r3, r4, #0	; 0x0
    a13c:	e5803000 	str	r3, [r0]
    a140:	e3e04000 	mvn	r4, #0	; 0x0
    a144:	e1a00004 	mov	r0, r4
    a148:	e91ba810 	ldmdb	fp, {r4, fp, sp, pc}

0000a14c <__syscall_mknod>:
    a14c:	e1a0c00d 	mov	ip, sp
    a150:	e1a02802 	mov	r2, r2, lsl #16
    a154:	e1a01801 	mov	r1, r1, lsl #16
    a158:	e92dd810 	stmdb	sp!, {r4, fp, ip, lr, pc}
    a15c:	e1a02822 	mov	r2, r2, lsr #16
    a160:	e24cb004 	sub	fp, ip, #4	; 0x4
    a164:	e1a01821 	mov	r1, r1, lsr #16
    a168:	ef90000e 	swi	0x0090000e
    a16c:	e1a04000 	mov	r4, r0
    a170:	e3740a01 	cmn	r4, #4096	; 0x1000
    a174:	9a002860 	bls	a188 <__syscall_mknod+0x3c>
    a178:	ebfffffe 	bl	0 <_start>
    a17c:	e2643000 	rsb	r3, r4, #0	; 0x0
    a180:	e5803000 	str	r3, [r0]
    a184:	e3e04000 	mvn	r4, #0	; 0x0
    a188:	e1a00004 	mov	r0, r4
    a18c:	e91ba810 	ldmdb	fp, {r4, fp, sp, pc}

0000a190 <mknod>:
    a190:	e92d4070 	stmdb	sp!, {r4, r5, r6, lr}
    a194:	e1a0c002 	mov	ip, r2
    a198:	e1a06422 	mov	r6, r2, lsr #8
    a19c:	e1864c03 	orr	r4, r6, r3, lsl #24
    a1a0:	e20cc0ff 	and	ip, ip, #255	; 0xff
    a1a4:	e18cc404 	orr	ip, ip, r4, lsl #8
    a1a8:	e1a0c80c 	mov	ip, ip, lsl #16
    a1ac:	e1a0c82c 	mov	ip, ip, lsr #16
    a1b0:	e1a01801 	mov	r1, r1, lsl #16
    a1b4:	e1a05423 	mov	r5, r3, lsr #8
    a1b8:	e1a01821 	mov	r1, r1, lsr #16
    a1bc:	e1a0200c 	mov	r2, ip
    a1c0:	e8bd4070 	ldmia	sp!, {r4, r5, r6, lr}
    a1c4:	eafffffe 	b	0 <_start>

0000a1c8 <chmod>:
    a1c8:	e1a0c00d 	mov	ip, sp
    a1cc:	e1a01801 	mov	r1, r1, lsl #16
    a1d0:	e92dd810 	stmdb	sp!, {r4, fp, ip, lr, pc}
    a1d4:	e1a01821 	mov	r1, r1, lsr #16
    a1d8:	e24cb004 	sub	fp, ip, #4	; 0x4
    a1dc:	ef90000f 	swi	0x0090000f
    a1e0:	e1a04000 	mov	r4, r0
    a1e4:	e3740a01 	cmn	r4, #4096	; 0x1000
    a1e8:	9a00287d 	bls	a1fc <chmod+0x34>
    a1ec:	ebfffffe 	bl	0 <_start>
    a1f0:	e2643000 	rsb	r3, r4, #0	; 0x0
    a1f4:	e5803000 	str	r3, [r0]
    a1f8:	e3e04000 	mvn	r4, #0	; 0x0
    a1fc:	e1a00004 	mov	r0, r4
    a200:	e91ba810 	ldmdb	fp, {r4, fp, sp, pc}

0000a204 <__libc_lseek>:
    a204:	e1a0c00d 	mov	ip, sp
    a208:	e92dd810 	stmdb	sp!, {r4, fp, ip, lr, pc}
    a20c:	e24cb004 	sub	fp, ip, #4	; 0x4
    a210:	ef900013 	swi	0x00900013
    a214:	e1a04000 	mov	r4, r0
    a218:	e3740a01 	cmn	r4, #4096	; 0x1000
    a21c:	9a00288a 	bls	a230 <__libc_lseek+0x2c>
    a220:	ebfffffe 	bl	0 <_start>
    a224:	e2643000 	rsb	r3, r4, #0	; 0x0
    a228:	e5803000 	str	r3, [r0]
    a22c:	e3e04000 	mvn	r4, #0	; 0x0
    a230:	e1a00004 	mov	r0, r4
    a234:	e91ba810 	ldmdb	fp, {r4, fp, sp, pc}

0000a238 <__libc_getpid>:
    a238:	e1a0c00d 	mov	ip, sp
    a23c:	e92dd810 	stmdb	sp!, {r4, fp, ip, lr, pc}
    a240:	e24cb004 	sub	fp, ip, #4	; 0x4
    a244:	ef900014 	swi	0x00900014
    a248:	e1a04000 	mov	r4, r0
    a24c:	e3740a01 	cmn	r4, #4096	; 0x1000
    a250:	9a002897 	bls	a264 <__libc_getpid+0x2c>
    a254:	ebfffffe 	bl	0 <_start>
    a258:	e2643000 	rsb	r3, r4, #0	; 0x0
    a25c:	e5803000 	str	r3, [r0]
    a260:	e3e04000 	mvn	r4, #0	; 0x0
    a264:	e1a00004 	mov	r0, r4
    a268:	e91ba810 	ldmdb	fp, {r4, fp, sp, pc}

0000a26c <mount>:
    a26c:	e1a0c00d 	mov	ip, sp
    a270:	e92dd810 	stmdb	sp!, {r4, fp, ip, lr, pc}
    a274:	e24cb004 	sub	fp, ip, #4	; 0x4
    a278:	e59b4004 	ldr	r4, [fp, #4]
    a27c:	ef900015 	swi	0x00900015
    a280:	e1a04000 	mov	r4, r0
    a284:	e3740a01 	cmn	r4, #4096	; 0x1000
    a288:	9a0028a5 	bls	a29c <mount+0x30>
    a28c:	ebfffffe 	bl	0 <_start>
    a290:	e2643000 	rsb	r3, r4, #0	; 0x0
    a294:	e5803000 	str	r3, [r0]
    a298:	e3e04000 	mvn	r4, #0	; 0x0
    a29c:	e1a00004 	mov	r0, r4
    a2a0:	e91ba810 	ldmdb	fp, {r4, fp, sp, pc}

0000a2a4 <umount>:
    a2a4:	e1a0c00d 	mov	ip, sp
    a2a8:	e92dd810 	stmdb	sp!, {r4, fp, ip, lr, pc}
    a2ac:	e24cb004 	sub	fp, ip, #4	; 0x4
    a2b0:	ef900016 	swi	0x00900016
    a2b4:	e1a04000 	mov	r4, r0
    a2b8:	e3740a01 	cmn	r4, #4096	; 0x1000
    a2bc:	9a0028b2 	bls	a2d0 <umount+0x2c>
    a2c0:	ebfffffe 	bl	0 <_start>
    a2c4:	e2643000 	rsb	r3, r4, #0	; 0x0
    a2c8:	e5803000 	str	r3, [r0]
    a2cc:	e3e04000 	mvn	r4, #0	; 0x0
    a2d0:	e1a00004 	mov	r0, r4
    a2d4:	e91ba810 	ldmdb	fp, {r4, fp, sp, pc}

0000a2d8 <stime>:
    a2d8:	e1a0c00d 	mov	ip, sp
    a2dc:	e92dd800 	stmdb	sp!, {fp, ip, lr, pc}
    a2e0:	e3a02000 	mov	r2, #0	; 0x0
    a2e4:	e1a03000 	mov	r3, r0
    a2e8:	e1a01002 	mov	r1, r2
    a2ec:	e24cb004 	sub	fp, ip, #4	; 0x4
    a2f0:	e24dd008 	sub	sp, sp, #8	; 0x8
    a2f4:	e1530001 	cmp	r3, r1
    a2f8:	e24b0014 	sub	r0, fp, #20	; 0x14
    a2fc:	0a0028c3 	beq	a314 <stime+0x3c>
    a300:	e5933000 	ldr	r3, [r3]
    a304:	e50b2010 	str	r2, [fp, -#16]
    a308:	e50b3014 	str	r3, [fp, -#20]
    a30c:	ebfffffe 	bl	0 <_start>
    a310:	e91ba800 	ldmdb	fp, {fp, sp, pc}
    a314:	ebfffffe 	bl	0 <_start>
    a318:	e3a03016 	mov	r3, #22	; 0x16
    a31c:	e1a02000 	mov	r2, r0
    a320:	e3e00000 	mvn	r0, #0	; 0x0
    a324:	e5823000 	str	r3, [r2]
    a328:	e91ba800 	ldmdb	fp, {fp, sp, pc}

0000a32c <utime>:
    a32c:	e1a0c00d 	mov	ip, sp
    a330:	e92dd810 	stmdb	sp!, {r4, fp, ip, lr, pc}
    a334:	e24cb004 	sub	fp, ip, #4	; 0x4
    a338:	ef90001e 	swi	0x0090001e
    a33c:	e1a04000 	mov	r4, r0
    a340:	e3740a01 	cmn	r4, #4096	; 0x1000
    a344:	9a0028d4 	bls	a358 <utime+0x2c>
    a348:	ebfffffe 	bl	0 <_start>
    a34c:	e2643000 	rsb	r3, r4, #0	; 0x0
    a350:	e5803000 	str	r3, [r0]
    a354:	e3e04000 	mvn	r4, #0	; 0x0
    a358:	e1a00004 	mov	r0, r4
    a35c:	e91ba810 	ldmdb	fp, {r4, fp, sp, pc}

0000a360 <access>:
    a360:	e1a0c00d 	mov	ip, sp
    a364:	e92dd810 	stmdb	sp!, {r4, fp, ip, lr, pc}
    a368:	e24cb004 	sub	fp, ip, #4	; 0x4
    a36c:	ef900021 	swi	0x00900021
    a370:	e1a04000 	mov	r4, r0
    a374:	e3740a01 	cmn	r4, #4096	; 0x1000
    a378:	9a0028e1 	bls	a38c <access+0x2c>
    a37c:	ebfffffe 	bl	0 <_start>
    a380:	e2643000 	rsb	r3, r4, #0	; 0x0
    a384:	e5803000 	str	r3, [r0]
    a388:	e3e04000 	mvn	r4, #0	; 0x0
    a38c:	e1a00004 	mov	r0, r4
    a390:	e91ba810 	ldmdb	fp, {r4, fp, sp, pc}

0000a394 <kill>:
    a394:	e1a0c00d 	mov	ip, sp
    a398:	e92dd810 	stmdb	sp!, {r4, fp, ip, lr, pc}
    a39c:	e24cb004 	sub	fp, ip, #4	; 0x4
    a3a0:	ef900025 	swi	0x00900025
    a3a4:	e1a04000 	mov	r4, r0
    a3a8:	e3740a01 	cmn	r4, #4096	; 0x1000
    a3ac:	9a0028ee 	bls	a3c0 <kill+0x2c>
    a3b0:	ebfffffe 	bl	0 <_start>
    a3b4:	e2643000 	rsb	r3, r4, #0	; 0x0
    a3b8:	e5803000 	str	r3, [r0]
    a3bc:	e3e04000 	mvn	r4, #0	; 0x0
    a3c0:	e1a00004 	mov	r0, r4
    a3c4:	e91ba810 	ldmdb	fp, {r4, fp, sp, pc}

0000a3c8 <rename>:
    a3c8:	e1a0c00d 	mov	ip, sp
    a3cc:	e92dd810 	stmdb	sp!, {r4, fp, ip, lr, pc}
    a3d0:	e24cb004 	sub	fp, ip, #4	; 0x4
    a3d4:	ef900026 	swi	0x00900026
    a3d8:	e1a04000 	mov	r4, r0
    a3dc:	e3740a01 	cmn	r4, #4096	; 0x1000
    a3e0:	9a0028fb 	bls	a3f4 <rename+0x2c>
    a3e4:	ebfffffe 	bl	0 <_start>
    a3e8:	e2643000 	rsb	r3, r4, #0	; 0x0
    a3ec:	e5803000 	str	r3, [r0]
    a3f0:	e3e04000 	mvn	r4, #0	; 0x0
    a3f4:	e1a00004 	mov	r0, r4
    a3f8:	e91ba810 	ldmdb	fp, {r4, fp, sp, pc}

0000a3fc <mkdir>:
    a3fc:	e1a0c00d 	mov	ip, sp
    a400:	e1a01801 	mov	r1, r1, lsl #16
    a404:	e92dd810 	stmdb	sp!, {r4, fp, ip, lr, pc}
    a408:	e1a01821 	mov	r1, r1, lsr #16
    a40c:	e24cb004 	sub	fp, ip, #4	; 0x4
    a410:	ef900027 	swi	0x00900027
    a414:	e1a04000 	mov	r4, r0
    a418:	e3740a01 	cmn	r4, #4096	; 0x1000
    a41c:	9a00290a 	bls	a430 <mkdir+0x34>
    a420:	ebfffffe 	bl	0 <_start>
    a424:	e2643000 	rsb	r3, r4, #0	; 0x0
    a428:	e5803000 	str	r3, [r0]
    a42c:	e3e04000 	mvn	r4, #0	; 0x0
    a430:	e1a00004 	mov	r0, r4
    a434:	e91ba810 	ldmdb	fp, {r4, fp, sp, pc}

0000a438 <rmdir>:
    a438:	e1a0c00d 	mov	ip, sp
    a43c:	e92dd810 	stmdb	sp!, {r4, fp, ip, lr, pc}
    a440:	e24cb004 	sub	fp, ip, #4	; 0x4
    a444:	ef900028 	swi	0x00900028
    a448:	e1a04000 	mov	r4, r0
    a44c:	e3740a01 	cmn	r4, #4096	; 0x1000
    a450:	9a002917 	bls	a464 <rmdir+0x2c>
    a454:	ebfffffe 	bl	0 <_start>
    a458:	e2643000 	rsb	r3, r4, #0	; 0x0
    a45c:	e5803000 	str	r3, [r0]
    a460:	e3e04000 	mvn	r4, #0	; 0x0
    a464:	e1a00004 	mov	r0, r4
    a468:	e91ba810 	ldmdb	fp, {r4, fp, sp, pc}

0000a46c <__syscall_ioctl>:
    a46c:	e1a0c00d 	mov	ip, sp
    a470:	e92dd810 	stmdb	sp!, {r4, fp, ip, lr, pc}
    a474:	e24cb004 	sub	fp, ip, #4	; 0x4
    a478:	ef900036 	swi	0x00900036
    a47c:	e1a04000 	mov	r4, r0
    a480:	e3740a01 	cmn	r4, #4096	; 0x1000
    a484:	9a002924 	bls	a498 <__syscall_ioctl+0x2c>
    a488:	ebfffffe 	bl	0 <_start>
    a48c:	e2643000 	rsb	r3, r4, #0	; 0x0
    a490:	e5803000 	str	r3, [r0]
    a494:	e3e04000 	mvn	r4, #0	; 0x0
    a498:	e1a00004 	mov	r0, r4
    a49c:	e91ba810 	ldmdb	fp, {r4, fp, sp, pc}

0000a4a0 <ioctl>:
    a4a0:	e1a0c00d 	mov	ip, sp
    a4a4:	e92d000e 	stmdb	sp!, {r1, r2, r3}
    a4a8:	e92dd800 	stmdb	sp!, {fp, ip, lr, pc}
    a4ac:	e24cb010 	sub	fp, ip, #16	; 0x10
    a4b0:	e99b0006 	ldmib	fp, {r1, r2}
    a4b4:	ebfffffe 	bl	0 <_start>
    a4b8:	e91ba800 	ldmdb	fp, {fp, sp, pc}

0000a4bc <_fcntl>:
    a4bc:	e1a0c00d 	mov	ip, sp
    a4c0:	e92dd810 	stmdb	sp!, {r4, fp, ip, lr, pc}
    a4c4:	e24cb004 	sub	fp, ip, #4	; 0x4
    a4c8:	ef900037 	swi	0x00900037
    a4cc:	e1a04000 	mov	r4, r0
    a4d0:	e3740a01 	cmn	r4, #4096	; 0x1000
    a4d4:	9a002938 	bls	a4e8 <_fcntl+0x2c>
    a4d8:	ebfffffe 	bl	0 <_start>
    a4dc:	e2643000 	rsb	r3, r4, #0	; 0x0
    a4e0:	e5803000 	str	r3, [r0]
    a4e4:	e3e04000 	mvn	r4, #0	; 0x0
    a4e8:	e1a00004 	mov	r0, r4
    a4ec:	e91ba810 	ldmdb	fp, {r4, fp, sp, pc}

0000a4f0 <__libc_fcntl>:
    a4f0:	e1a0c00d 	mov	ip, sp
    a4f4:	e92d000e 	stmdb	sp!, {r1, r2, r3}
    a4f8:	e92dd800 	stmdb	sp!, {fp, ip, lr, pc}
    a4fc:	e24cb010 	sub	fp, ip, #16	; 0x10
    a500:	e99b0006 	ldmib	fp, {r1, r2}
    a504:	ebfffffe 	bl	0 <_start>
    a508:	e91ba800 	ldmdb	fp, {fp, sp, pc}

0000a50c <umask>:
    a50c:	e1a0c00d 	mov	ip, sp
    a510:	e1a00800 	mov	r0, r0, lsl #16
    a514:	e92dd810 	stmdb	sp!, {r4, fp, ip, lr, pc}
    a518:	e1a00820 	mov	r0, r0, lsr #16
    a51c:	e24cb004 	sub	fp, ip, #4	; 0x4
    a520:	ef90003c 	swi	0x0090003c
    a524:	e1a04000 	mov	r4, r0
    a528:	e3740a01 	cmn	r4, #4096	; 0x1000
    a52c:	9a00294e 	bls	a540 <umask+0x34>
    a530:	ebfffffe 	bl	0 <_start>
    a534:	e2643000 	rsb	r3, r4, #0	; 0x0
    a538:	e5803000 	str	r3, [r0]
    a53c:	e3e04000 	mvn	r4, #0	; 0x0
    a540:	e1a00804 	mov	r0, r4, lsl #16
    a544:	e1a00820 	mov	r0, r0, lsr #16
    a548:	e91ba810 	ldmdb	fp, {r4, fp, sp, pc}

0000a54c <sethostname>:
    a54c:	e1a0c00d 	mov	ip, sp
    a550:	e92dd810 	stmdb	sp!, {r4, fp, ip, lr, pc}
    a554:	e24cb004 	sub	fp, ip, #4	; 0x4
    a558:	ef90004a 	swi	0x0090004a
    a55c:	e1a04000 	mov	r4, r0
    a560:	e3740a01 	cmn	r4, #4096	; 0x1000
    a564:	9a00295c 	bls	a578 <sethostname+0x2c>
    a568:	ebfffffe 	bl	0 <_start>
    a56c:	e2643000 	rsb	r3, r4, #0	; 0x0
    a570:	e5803000 	str	r3, [r0]
    a574:	e3e04000 	mvn	r4, #0	; 0x0
    a578:	e1a00004 	mov	r0, r4
    a57c:	e91ba810 	ldmdb	fp, {r4, fp, sp, pc}

0000a580 <gettimeofday>:
    a580:	e1a0c00d 	mov	ip, sp
    a584:	e92dd810 	stmdb	sp!, {r4, fp, ip, lr, pc}
    a588:	e24cb004 	sub	fp, ip, #4	; 0x4
    a58c:	ef90004e 	swi	0x0090004e
    a590:	e1a04000 	mov	r4, r0
    a594:	e3740a01 	cmn	r4, #4096	; 0x1000
    a598:	9a002969 	bls	a5ac <gettimeofday+0x2c>
    a59c:	ebfffffe 	bl	0 <_start>
    a5a0:	e2643000 	rsb	r3, r4, #0	; 0x0
    a5a4:	e5803000 	str	r3, [r0]
    a5a8:	e3e04000 	mvn	r4, #0	; 0x0
    a5ac:	e1a00004 	mov	r0, r4
    a5b0:	e91ba810 	ldmdb	fp, {r4, fp, sp, pc}

0000a5b4 <settimeofday>:
    a5b4:	e1a0c00d 	mov	ip, sp
    a5b8:	e92dd810 	stmdb	sp!, {r4, fp, ip, lr, pc}
    a5bc:	e24cb004 	sub	fp, ip, #4	; 0x4
    a5c0:	ef90004f 	swi	0x0090004f
    a5c4:	e1a04000 	mov	r4, r0
    a5c8:	e3740a01 	cmn	r4, #4096	; 0x1000
    a5cc:	9a002976 	bls	a5e0 <settimeofday+0x2c>
    a5d0:	ebfffffe 	bl	0 <_start>
    a5d4:	e2643000 	rsb	r3, r4, #0	; 0x0
    a5d8:	e5803000 	str	r3, [r0]
    a5dc:	e3e04000 	mvn	r4, #0	; 0x0
    a5e0:	e1a00004 	mov	r0, r4
    a5e4:	e91ba810 	ldmdb	fp, {r4, fp, sp, pc}

0000a5e8 <symlink>:
    a5e8:	e1a0c00d 	mov	ip, sp
    a5ec:	e92dd810 	stmdb	sp!, {r4, fp, ip, lr, pc}
    a5f0:	e24cb004 	sub	fp, ip, #4	; 0x4
    a5f4:	ef900053 	swi	0x00900053
    a5f8:	e1a04000 	mov	r4, r0
    a5fc:	e3740a01 	cmn	r4, #4096	; 0x1000
    a600:	9a002983 	bls	a614 <symlink+0x2c>
    a604:	ebfffffe 	bl	0 <_start>
    a608:	e2643000 	rsb	r3, r4, #0	; 0x0
    a60c:	e5803000 	str	r3, [r0]
    a610:	e3e04000 	mvn	r4, #0	; 0x0
    a614:	e1a00004 	mov	r0, r4
    a618:	e91ba810 	ldmdb	fp, {r4, fp, sp, pc}

0000a61c <readlink>:
    a61c:	e1a0c00d 	mov	ip, sp
    a620:	e92dd810 	stmdb	sp!, {r4, fp, ip, lr, pc}
    a624:	e24cb004 	sub	fp, ip, #4	; 0x4
    a628:	ef900055 	swi	0x00900055
    a62c:	e1a04000 	mov	r4, r0
    a630:	e3740a01 	cmn	r4, #4096	; 0x1000
    a634:	9a002990 	bls	a648 <readlink+0x2c>
    a638:	ebfffffe 	bl	0 <_start>
    a63c:	e2643000 	rsb	r3, r4, #0	; 0x0
    a640:	e5803000 	str	r3, [r0]
    a644:	e3e04000 	mvn	r4, #0	; 0x0
    a648:	e1a00004 	mov	r0, r4
    a64c:	e91ba810 	ldmdb	fp, {r4, fp, sp, pc}

0000a650 <_mmap>:
    a650:	e1a0c00d 	mov	ip, sp
    a654:	e92dd810 	stmdb	sp!, {r4, fp, ip, lr, pc}
    a658:	e24cb004 	sub	fp, ip, #4	; 0x4
    a65c:	ef90005a 	swi	0x0090005a
    a660:	e1a04000 	mov	r4, r0
    a664:	e3740a01 	cmn	r4, #4096	; 0x1000
    a668:	9a00299d 	bls	a67c <_mmap+0x2c>
    a66c:	ebfffffe 	bl	0 <_start>
    a670:	e2643000 	rsb	r3, r4, #0	; 0x0
    a674:	e5803000 	str	r3, [r0]
    a678:	e3e04000 	mvn	r4, #0	; 0x0
    a67c:	e1a00004 	mov	r0, r4
    a680:	e91ba810 	ldmdb	fp, {r4, fp, sp, pc}

0000a684 <mmap>:
    a684:	e1a0c00d 	mov	ip, sp
    a688:	e92dd800 	stmdb	sp!, {fp, ip, lr, pc}
    a68c:	e24cb004 	sub	fp, ip, #4	; 0x4
    a690:	e24dd018 	sub	sp, sp, #24	; 0x18
    a694:	e50b201c 	str	r2, [fp, -#28]
    a698:	e50b3018 	str	r3, [fp, -#24]
    a69c:	e59b2008 	ldr	r2, [fp, #8]
    a6a0:	e59b3004 	ldr	r3, [fp, #4]
    a6a4:	e1a0c000 	mov	ip, r0
    a6a8:	e24b0024 	sub	r0, fp, #36	; 0x24
    a6ac:	e50bc024 	str	ip, [fp, -#36]
    a6b0:	e50b1020 	str	r1, [fp, -#32]
    a6b4:	e50b3014 	str	r3, [fp, -#20]
    a6b8:	e50b2010 	str	r2, [fp, -#16]
    a6bc:	ebfffffe 	bl	0 <_start>
    a6c0:	e91ba800 	ldmdb	fp, {fp, sp, pc}

0000a6c4 <munmap>:
    a6c4:	e1a0c00d 	mov	ip, sp
    a6c8:	e92dd810 	stmdb	sp!, {r4, fp, ip, lr, pc}
    a6cc:	e24cb004 	sub	fp, ip, #4	; 0x4
    a6d0:	ef90005b 	swi	0x0090005b
    a6d4:	e1a04000 	mov	r4, r0
    a6d8:	e3740a01 	cmn	r4, #4096	; 0x1000
    a6dc:	9a0029ba 	bls	a6f0 <munmap+0x2c>
    a6e0:	ebfffffe 	bl	0 <_start>
    a6e4:	e2643000 	rsb	r3, r4, #0	; 0x0
    a6e8:	e5803000 	str	r3, [r0]
    a6ec:	e3e04000 	mvn	r4, #0	; 0x0
    a6f0:	e1a00004 	mov	r0, r4
    a6f4:	e91ba810 	ldmdb	fp, {r4, fp, sp, pc}

0000a6f8 <statfs>:
    a6f8:	e1a0c00d 	mov	ip, sp
    a6fc:	e92dd810 	stmdb	sp!, {r4, fp, ip, lr, pc}
    a700:	e24cb004 	sub	fp, ip, #4	; 0x4
    a704:	ef900063 	swi	0x00900063
    a708:	e1a04000 	mov	r4, r0
    a70c:	e3740a01 	cmn	r4, #4096	; 0x1000
    a710:	9a0029c7 	bls	a724 <statfs+0x2c>
    a714:	ebfffffe 	bl	0 <_start>
    a718:	e2643000 	rsb	r3, r4, #0	; 0x0
    a71c:	e5803000 	str	r3, [r0]
    a720:	e3e04000 	mvn	r4, #0	; 0x0
    a724:	e1a00004 	mov	r0, r4
    a728:	e91ba810 	ldmdb	fp, {r4, fp, sp, pc}

0000a72c <__syscall_stat>:
    a72c:	e1a0c00d 	mov	ip, sp
    a730:	e92dd810 	stmdb	sp!, {r4, fp, ip, lr, pc}
    a734:	e24cb004 	sub	fp, ip, #4	; 0x4
    a738:	ef90006a 	swi	0x0090006a
    a73c:	e1a04000 	mov	r4, r0
    a740:	e3740a01 	cmn	r4, #4096	; 0x1000
    a744:	9a0029d4 	bls	a758 <__syscall_stat+0x2c>
    a748:	ebfffffe 	bl	0 <_start>
    a74c:	e2643000 	rsb	r3, r4, #0	; 0x0
    a750:	e5803000 	str	r3, [r0]
    a754:	e3e04000 	mvn	r4, #0	; 0x0
    a758:	e1a00004 	mov	r0, r4
    a75c:	e91ba810 	ldmdb	fp, {r4, fp, sp, pc}

0000a760 <stat>:
    a760:	e1a0c00d 	mov	ip, sp
    a764:	e92dd870 	stmdb	sp!, {r4, r5, r6, fp, ip, lr, pc}
    a768:	e24cb004 	sub	fp, ip, #4	; 0x4
    a76c:	e24b4058 	sub	r4, fp, #88	; 0x58
    a770:	e24dd040 	sub	sp, sp, #64	; 0x40
    a774:	e1a05001 	mov	r5, r1
    a778:	e1a01004 	mov	r1, r4
    a77c:	ebfffffe 	bl	0 <_start>
    a780:	e1a06000 	mov	r6, r0
    a784:	e3560000 	cmp	r6, #0	; 0x0
    a788:	e1a00004 	mov	r0, r4
    a78c:	e1a01005 	mov	r1, r5
    a790:	0a0029e5 	beq	a79c <stat+0x3c>
    a794:	e1a00006 	mov	r0, r6
    a798:	e91ba870 	ldmdb	fp, {r4, r5, r6, fp, sp, pc}
    a79c:	ebfffffe 	bl	0 <_start>
    a7a0:	ea0029e3 	b	a794 <stat+0x34>

0000a7a4 <__syscall_lstat>:
    a7a4:	e1a0c00d 	mov	ip, sp
    a7a8:	e92dd810 	stmdb	sp!, {r4, fp, ip, lr, pc}
    a7ac:	e24cb004 	sub	fp, ip, #4	; 0x4
    a7b0:	ef90006b 	swi	0x0090006b
    a7b4:	e1a04000 	mov	r4, r0
    a7b8:	e3740a01 	cmn	r4, #4096	; 0x1000
    a7bc:	9a0029f2 	bls	a7d0 <__syscall_lstat+0x2c>
    a7c0:	ebfffffe 	bl	0 <_start>
    a7c4:	e2643000 	rsb	r3, r4, #0	; 0x0
    a7c8:	e5803000 	str	r3, [r0]
    a7cc:	e3e04000 	mvn	r4, #0	; 0x0
    a7d0:	e1a00004 	mov	r0, r4
    a7d4:	e91ba810 	ldmdb	fp, {r4, fp, sp, pc}

0000a7d8 <lstat>:
    a7d8:	e1a0c00d 	mov	ip, sp
    a7dc:	e92dd870 	stmdb	sp!, {r4, r5, r6, fp, ip, lr, pc}
    a7e0:	e24cb004 	sub	fp, ip, #4	; 0x4
    a7e4:	e24b4058 	sub	r4, fp, #88	; 0x58
    a7e8:	e24dd040 	sub	sp, sp, #64	; 0x40
    a7ec:	e1a05001 	mov	r5, r1
    a7f0:	e1a01004 	mov	r1, r4
    a7f4:	ebfffffe 	bl	0 <_start>
    a7f8:	e1a06000 	mov	r6, r0
    a7fc:	e3560000 	cmp	r6, #0	; 0x0
    a800:	e1a00004 	mov	r0, r4
    a804:	e1a01005 	mov	r1, r5
    a808:	0a002a03 	beq	a814 <lstat+0x3c>
    a80c:	e1a00006 	mov	r0, r6
    a810:	e91ba870 	ldmdb	fp, {r4, r5, r6, fp, sp, pc}
    a814:	ebfffffe 	bl	0 <_start>
    a818:	ea002a01 	b	a80c <lstat+0x34>

0000a81c <wait4>:
    a81c:	e1a0c00d 	mov	ip, sp
    a820:	e92dd810 	stmdb	sp!, {r4, fp, ip, lr, pc}
    a824:	e24cb004 	sub	fp, ip, #4	; 0x4
    a828:	ef900072 	swi	0x00900072
    a82c:	e1a04000 	mov	r4, r0
    a830:	e3740a01 	cmn	r4, #4096	; 0x1000
    a834:	9a002a10 	bls	a848 <wait4+0x2c>
    a838:	ebfffffe 	bl	0 <_start>
    a83c:	e2643000 	rsb	r3, r4, #0	; 0x0
    a840:	e5803000 	str	r3, [r0]
    a844:	e3e04000 	mvn	r4, #0	; 0x0
    a848:	e1a00004 	mov	r0, r4
    a84c:	e91ba810 	ldmdb	fp, {r4, fp, sp, pc}

0000a850 <uname>:
    a850:	e1a0c00d 	mov	ip, sp
    a854:	e92dd810 	stmdb	sp!, {r4, fp, ip, lr, pc}
    a858:	e24cb004 	sub	fp, ip, #4	; 0x4
    a85c:	ef90007a 	swi	0x0090007a
    a860:	e1a04000 	mov	r4, r0
    a864:	e3740a01 	cmn	r4, #4096	; 0x1000
    a868:	9a002a1d 	bls	a87c <uname+0x2c>
    a86c:	ebfffffe 	bl	0 <_start>
    a870:	e2643000 	rsb	r3, r4, #0	; 0x0
    a874:	e5803000 	str	r3, [r0]
    a878:	e3e04000 	mvn	r4, #0	; 0x0
    a87c:	e1a00004 	mov	r0, r4
    a880:	e91ba810 	ldmdb	fp, {r4, fp, sp, pc}

0000a884 <__syscall_rt_sigaction>:
    a884:	e1a0c00d 	mov	ip, sp
    a888:	e92dd810 	stmdb	sp!, {r4, fp, ip, lr, pc}
    a88c:	e24cb004 	sub	fp, ip, #4	; 0x4
    a890:	ef9000ae 	swi	0x009000ae
    a894:	e1a04000 	mov	r4, r0
    a898:	e3740a01 	cmn	r4, #4096	; 0x1000
    a89c:	9a002a2a 	bls	a8b0 <__syscall_rt_sigaction+0x2c>
    a8a0:	ebfffffe 	bl	0 <_start>
    a8a4:	e2643000 	rsb	r3, r4, #0	; 0x0
    a8a8:	e5803000 	str	r3, [r0]
    a8ac:	e3e04000 	mvn	r4, #0	; 0x0
    a8b0:	e1a00004 	mov	r0, r4
    a8b4:	e91ba810 	ldmdb	fp, {r4, fp, sp, pc}

0000a8b8 <__rt_sigprocmask>:
    a8b8:	e1a0c00d 	mov	ip, sp
    a8bc:	e92dd810 	stmdb	sp!, {r4, fp, ip, lr, pc}
    a8c0:	e24cb004 	sub	fp, ip, #4	; 0x4
    a8c4:	ef9000af 	swi	0x009000af
    a8c8:	e1a04000 	mov	r4, r0
    a8cc:	e3740a01 	cmn	r4, #4096	; 0x1000
    a8d0:	9a002a37 	bls	a8e4 <__rt_sigprocmask+0x2c>
    a8d4:	ebfffffe 	bl	0 <_start>
    a8d8:	e2643000 	rsb	r3, r4, #0	; 0x0
    a8dc:	e5803000 	str	r3, [r0]
    a8e0:	e3e04000 	mvn	r4, #0	; 0x0
    a8e4:	e1a00004 	mov	r0, r4
    a8e8:	e91ba810 	ldmdb	fp, {r4, fp, sp, pc}

0000a8ec <sigprocmask>:
    a8ec:	e52de004 	str	lr, [sp, -#4]!
    a8f0:	e3a03008 	mov	r3, #8	; 0x8
    a8f4:	e49de004 	ldr	lr, [sp], #4
    a8f8:	eafffffe 	b	0 <_start>

0000a8fc <chown>:
    a8fc:	e1a0c00d 	mov	ip, sp
    a900:	e1a02802 	mov	r2, r2, lsl #16
    a904:	e1a01801 	mov	r1, r1, lsl #16
    a908:	e92dd810 	stmdb	sp!, {r4, fp, ip, lr, pc}
    a90c:	e1a02822 	mov	r2, r2, lsr #16
    a910:	e24cb004 	sub	fp, ip, #4	; 0x4
    a914:	e1a01821 	mov	r1, r1, lsr #16
    a918:	ef9000b6 	swi	0x009000b6
    a91c:	e1a04000 	mov	r4, r0
    a920:	e3740a01 	cmn	r4, #4096	; 0x1000
    a924:	9a002a4c 	bls	a938 <chown+0x3c>
    a928:	ebfffffe 	bl	0 <_start>
    a92c:	e2643000 	rsb	r3, r4, #0	; 0x0
    a930:	e5803000 	str	r3, [r0]
    a934:	e3e04000 	mvn	r4, #0	; 0x0
    a938:	e1a00004 	mov	r0, r4
    a93c:	e91ba810 	ldmdb	fp, {r4, fp, sp, pc}

0000a940 <vfork>:
    a940:	ef9000be 	swi	0x009000be
    a944:	e3700a01 	cmn	r0, #4096	; 0x1000
    a948:	31a0f00e 	movcc	pc, lr
    a94c:	e59f1028 	ldr	r1, [pc, #28]	; a97c <__syscall_error+0x18>
    a950:	e1300001 	teq	r0, r1
    a954:	1a002a57 	bne	a964 <__syscall_error>
    a958:	ef900002 	swi	0x00900002
    a95c:	e3700a01 	cmn	r0, #4096	; 0x1000
    a960:	31a0f00e 	movcc	pc, lr

0000a964 <__syscall_error>:
    a964:	e59f300c 	ldr	r3, [pc, #c]	; a978 <__syscall_error+0x14>
    a968:	e2602000 	rsb	r2, r0, #0	; 0x0
    a96c:	e7892003 	str	r2, [r9, r3]
    a970:	e3e00000 	mvn	r0, #0	; 0x0
    a974:	e1a0f00e 	mov	pc, lr
    a978:	00000000 	andeq	r0, r0, r0
    a97c:	ffffffda 	swinv	0x00ffffda

0000a980 <__default_sa_restorer>:
    a980:	ef900077 	swi	0x00900077
	...

0000a990 <__default_rt_sa_restorer>:
    a990:	ef9000ad 	swi	0x009000ad
    a994:	e1a00000 	nop			(mov r0,r0)
    a998:	e1a00000 	nop			(mov r0,r0)
    a99c:	e1a00000 	nop			(mov r0,r0)

0000a9a0 <brk>:
    a9a0:	e1a03000 	mov	r3, r0
    a9a4:	e59f2040 	ldr	r2, [pc, #40]	; a9ec <brk+0x4c>
    a9a8:	e1a00003 	mov	r0, r3
    a9ac:	ef90002d 	swi	0x0090002d
    a9b0:	e1a01000 	mov	r1, r0
    a9b4:	e1a0c00d 	mov	ip, sp
    a9b8:	e1510003 	cmp	r1, r3
    a9bc:	e92dd800 	stmdb	sp!, {fp, ip, lr, pc}
    a9c0:	e24cb004 	sub	fp, ip, #4	; 0x4
    a9c4:	e5821000 	str	r1, [r2]
    a9c8:	2a002a77 	bcs	a9e4 <brk+0x44>
    a9cc:	ebfffffe 	bl	0 <_start>
    a9d0:	e3a0300c 	mov	r3, #12	; 0xc
    a9d4:	e1a02000 	mov	r2, r0
    a9d8:	e3e00000 	mvn	r0, #0	; 0x0
    a9dc:	e5823000 	str	r3, [r2]
    a9e0:	e91ba800 	ldmdb	fp, {fp, sp, pc}
    a9e4:	e3a00000 	mov	r0, #0	; 0x0
    a9e8:	e91ba800 	ldmdb	fp, {fp, sp, pc}
    a9ec:	00000000 	andeq	r0, r0, r0

0000a9f0 <execvp>:
    a9f0:	e52de004 	str	lr, [sp, -#4]!
    a9f4:	e59f3008 	ldr	r3, [pc, #8]	; aa04 <execvp+0x14>
    a9f8:	e5932000 	ldr	r2, [r3]
    a9fc:	e49de004 	ldr	lr, [sp], #4
    aa00:	eafffffe 	b	0 <_start>
    aa04:	00000000 	andeq	r0, r0, r0

0000aa08 <sleep>:
    aa08:	e1a0c00d 	mov	ip, sp
    aa0c:	e92dd870 	stmdb	sp!, {r4, r5, r6, fp, ip, lr, pc}
    aa10:	e3a03000 	mov	r3, #0	; 0x0
    aa14:	e24cb004 	sub	fp, ip, #4	; 0x4
    aa18:	e1a04000 	mov	r4, r0
    aa1c:	e24dd010 	sub	sp, sp, #16	; 0x10
    aa20:	e50b301c 	str	r3, [fp, -#28]
    aa24:	e50b4020 	str	r4, [fp, -#32]
    aa28:	e24b6020 	sub	r6, fp, #32	; 0x20
    aa2c:	e24b2028 	sub	r2, fp, #40	; 0x28
    aa30:	e8960060 	ldmia	r6, {r5, r6}
    aa34:	e1a00002 	mov	r0, r2
    aa38:	e1a01000 	mov	r1, r0
    aa3c:	e8820060 	stmia	r2, {r5, r6}
    aa40:	ebfffffe 	bl	0 <_start>
    aa44:	e51b3028 	ldr	r3, [fp, -#40]
    aa48:	e0634004 	rsb	r4, r3, r4
    aa4c:	e1a00004 	mov	r0, r4
    aa50:	e91ba870 	ldmdb	fp, {r4, r5, r6, fp, sp, pc}

0000aa54 <usleep>:
    aa54:	e59f3058 	ldr	r3, [pc, #58]	; aab4 <usleep+0x60>
    aa58:	e0812093 	umull	r2, r1, r3, r0
    aa5c:	e1a01921 	mov	r1, r1, lsr #18
    aa60:	e0613281 	rsb	r3, r1, r1, lsl #5
    aa64:	e0633303 	rsb	r3, r3, r3, lsl #6
    aa68:	e0813183 	add	r3, r1, r3, lsl #3
    aa6c:	e0400303 	sub	r0, r0, r3, lsl #6
    aa70:	e0602280 	rsb	r2, r0, r0, lsl #5
    aa74:	e1a0c00d 	mov	ip, sp
    aa78:	e0800102 	add	r0, r0, r2, lsl #2
    aa7c:	e92dd830 	stmdb	sp!, {r4, r5, fp, ip, lr, pc}
    aa80:	e1a00180 	mov	r0, r0, lsl #3
    aa84:	e24cb004 	sub	fp, ip, #4	; 0x4
    aa88:	e50b0018 	str	r0, [fp, -#24]
    aa8c:	e50b101c 	str	r1, [fp, -#28]
    aa90:	e24b5020 	sub	r5, fp, #32	; 0x20
    aa94:	e9950030 	ldmib	r5, {r4, r5}
    aa98:	e24b3024 	sub	r3, fp, #36	; 0x24
    aa9c:	e24dd010 	sub	sp, sp, #16	; 0x10
    aaa0:	e1a00003 	mov	r0, r3
    aaa4:	e3a01000 	mov	r1, #0	; 0x0
    aaa8:	e8830030 	stmia	r3, {r4, r5}
    aaac:	ebfffffe 	bl	0 <_start>
    aab0:	e91ba830 	ldmdb	fp, {r4, r5, fp, sp, pc}
    aab4:	431bde83 	tstmi	fp, #2096	; 0x830

0000aab8 <isalpha>:
    aab8:	e3800020 	orr	r0, r0, #32	; 0x20
    aabc:	e2400061 	sub	r0, r0, #97	; 0x61
    aac0:	e3500019 	cmp	r0, #25	; 0x19
    aac4:	83a00000 	movhi	r0, #0	; 0x0
    aac8:	93a00001 	movls	r0, #1	; 0x1
    aacc:	e1a0f00e 	mov	pc, lr

0000aad0 <isascii>:
    aad0:	e3d0307f 	bics	r3, r0, #127	; 0x7f
    aad4:	13a00000 	movne	r0, #0	; 0x0
    aad8:	03a00001 	moveq	r0, #1	; 0x1
    aadc:	e1a0f00e 	mov	pc, lr

0000aae0 <isxdigit>:
    aae0:	e3803020 	orr	r3, r0, #32	; 0x20
    aae4:	e2400030 	sub	r0, r0, #48	; 0x30
    aae8:	e3500009 	cmp	r0, #9	; 0x9
    aaec:	e2433061 	sub	r3, r3, #97	; 0x61
    aaf0:	e3a00000 	mov	r0, #0	; 0x0
    aaf4:	9a002abe 	bls	ab00 <isxdigit+0x20>
    aaf8:	e3530005 	cmp	r3, #5	; 0x5
    aafc:	81a0f00e 	movhi	pc, lr
    ab00:	e3a00001 	mov	r0, #1	; 0x1
    ab04:	e1a0f00e 	mov	pc, lr

0000ab08 <__getgrent>:
    ab08:	e1a0c00d 	mov	ip, sp
    ab0c:	e92ddff0 	stmdb	sp!, {r4, r5, r6, r7, r8, r9, sl, fp, ip, lr, pc}
    ab10:	e24cb004 	sub	fp, ip, #4	; 0x4
    ab14:	e24dd004 	sub	sp, sp, #4	; 0x4
    ab18:	e1a0a000 	mov	sl, r0
    ab1c:	e1a05001 	mov	r5, r1
    ab20:	e1a09002 	mov	r9, r2
    ab24:	e3a07c01 	mov	r7, #256	; 0x100
    ab28:	e1a00005 	mov	r0, r5
    ab2c:	e1a01007 	mov	r1, r7
    ab30:	ebfffffe 	bl	0 <_start>
    ab34:	e3a06000 	mov	r6, #0	; 0x0
    ab38:	e1a05000 	mov	r5, r0
    ab3c:	e0851006 	add	r1, r5, r6
    ab40:	e0662007 	rsb	r2, r6, r7
    ab44:	e1a0000a 	mov	r0, sl
    ab48:	ebfffffe 	bl	0 <_start>
    ab4c:	e1a04000 	mov	r4, r0
    ab50:	e3540000 	cmp	r4, #0	; 0x0
    ab54:	e1a00005 	mov	r0, r5
    ab58:	e3a0100a 	mov	r1, #10	; 0xa
    ab5c:	d3a00000 	movle	r0, #0	; 0x0
    ab60:	d91baff0 	ldmledb	fp, {r4, r5, r6, r7, r8, r9, sl, fp, sp, pc}
    ab64:	ebfffffe 	bl	0 <_start>
    ab68:	e1a08000 	mov	r8, r0
    ab6c:	e3580000 	cmp	r8, #0	; 0x0
    ab70:	e1a00005 	mov	r0, r5
    ab74:	1a002ae3 	bne	ab94 <__getgrent+0x8c>
    ab78:	e1a06007 	mov	r6, r7
    ab7c:	e2863c01 	add	r3, r6, #256	; 0x100
    ab80:	e1a03803 	mov	r3, r3, lsl #16
    ab84:	e1a07843 	mov	r7, r3, asr #16
    ab88:	e1a01007 	mov	r1, r7
    ab8c:	ebfffffe 	bl	0 <_start>
    ab90:	ea002acc 	b	ab38 <__getgrent+0x30>
    ab94:	e0841006 	add	r1, r4, r6
    ab98:	e0851001 	add	r1, r5, r1
    ab9c:	e0611008 	rsb	r1, r1, r8
    aba0:	e2811001 	add	r1, r1, #1	; 0x1
    aba4:	e1a0000a 	mov	r0, sl
    aba8:	e3a02001 	mov	r2, #1	; 0x1
    abac:	ebfffffe 	bl	0 <_start>
    abb0:	e3a03000 	mov	r3, #0	; 0x0
    abb4:	e5c83000 	strb	r3, [r8]
    abb8:	e5d53000 	ldrb	r3, [r5]
    abbc:	e3530020 	cmp	r3, #32	; 0x20
    abc0:	13530023 	cmpne	r3, #35	; 0x23
    abc4:	0a002ac7 	beq	ab24 <__getgrent+0x1c>
    abc8:	e20330ff 	and	r3, r3, #255	; 0xff
    abcc:	e353000a 	cmp	r3, #10	; 0xa
    abd0:	0a002ac7 	beq	ab24 <__getgrent+0x1c>
    abd4:	e3530009 	cmp	r3, #9	; 0x9
    abd8:	0a002ac7 	beq	ab24 <__getgrent+0x1c>
    abdc:	e59f7120 	ldr	r7, [pc, #120]	; ad04 <__getgrent+0x1fc>
    abe0:	e1a00005 	mov	r0, r5
    abe4:	e5875000 	str	r5, [r7]
    abe8:	e3a0103a 	mov	r1, #58	; 0x3a
    abec:	ebfffffe 	bl	0 <_start>
    abf0:	e1a04000 	mov	r4, r0
    abf4:	e3540000 	cmp	r4, #0	; 0x0
    abf8:	0a002ac7 	beq	ab24 <__getgrent+0x1c>
    abfc:	e3a06000 	mov	r6, #0	; 0x0
    ac00:	e4c46001 	strb	r6, [r4], #1
    ac04:	e3a0103a 	mov	r1, #58	; 0x3a
    ac08:	e5874004 	str	r4, [r7, #4]
    ac0c:	e1a00004 	mov	r0, r4
    ac10:	ebfffffe 	bl	0 <_start>
    ac14:	e1a04000 	mov	r4, r0
    ac18:	e1540006 	cmp	r4, r6
    ac1c:	0a002ac7 	beq	ab24 <__getgrent+0x1c>
    ac20:	e4c46001 	strb	r6, [r4], #1
    ac24:	e1a08004 	mov	r8, r4
    ac28:	e1a00008 	mov	r0, r8
    ac2c:	e3a0103a 	mov	r1, #58	; 0x3a
    ac30:	ebfffffe 	bl	0 <_start>
    ac34:	e1a04000 	mov	r4, r0
    ac38:	e1540006 	cmp	r4, r6
    ac3c:	0a002ac7 	beq	ab24 <__getgrent+0x1c>
    ac40:	e4c46001 	strb	r6, [r4], #1
    ac44:	e24b102c 	sub	r1, fp, #44	; 0x2c
    ac48:	e1a00008 	mov	r0, r8
    ac4c:	e3a0200a 	mov	r2, #10	; 0xa
    ac50:	ebfffffe 	bl	0 <_start>
    ac54:	e5870008 	str	r0, [r7, #8]
    ac58:	e51b302c 	ldr	r3, [fp, -#44]
    ac5c:	e5d33000 	ldrb	r3, [r3]
    ac60:	e1530006 	cmp	r3, r6
    ac64:	1a002ac7 	bne	ab24 <__getgrent+0x1c>
    ac68:	e1590006 	cmp	r9, r6
    ac6c:	e1a08004 	mov	r8, r4
    ac70:	e1a06003 	mov	r6, r3
    ac74:	0a002b1e 	beq	ac80 <__getgrent+0x178>
    ac78:	e1a00009 	mov	r0, r9
    ac7c:	ebfffffe 	bl	0 <_start>
    ac80:	e2865004 	add	r5, r6, #4	; 0x4
    ac84:	e1a00005 	mov	r0, r5
    ac88:	ebfffffe 	bl	0 <_start>
    ac8c:	e3540000 	cmp	r4, #0	; 0x0
    ac90:	ea002b35 	b	acdc <__getgrent+0x1d4>
    ac94:	e1a00004 	mov	r0, r4
    ac98:	e3a0102c 	mov	r1, #44	; 0x2c
    ac9c:	ebfffffe 	bl	0 <_start>
    aca0:	e1a02006 	mov	r2, r6
    aca4:	e2823001 	add	r3, r2, #1	; 0x1
    aca8:	e1a04000 	mov	r4, r0
    acac:	e1a03803 	mov	r3, r3, lsl #16
    acb0:	e3540000 	cmp	r4, #0	; 0x0
    acb4:	e2855004 	add	r5, r5, #4	; 0x4
    acb8:	e1a06843 	mov	r6, r3, asr #16
    acbc:	e3a03000 	mov	r3, #0	; 0x0
    acc0:	14c43001 	strneb	r3, [r4], #1
    acc4:	e1a00009 	mov	r0, r9
    acc8:	e7898102 	str	r8, [r9, r2, lsl #2]
    accc:	e1a01005 	mov	r1, r5
    acd0:	ebfffffe 	bl	0 <_start>
    acd4:	e3540000 	cmp	r4, #0	; 0x0
    acd8:	e1a08004 	mov	r8, r4
    acdc:	e1a09000 	mov	r9, r0
    ace0:	0a002b3a 	beq	acf0 <__getgrent+0x1e8>
    ace4:	e5d43000 	ldrb	r3, [r4]
    ace8:	e3530000 	cmp	r3, #0	; 0x0
    acec:	1a002b23 	bne	ac94 <__getgrent+0x18c>
    acf0:	e59f000c 	ldr	r0, [pc, #c]	; ad04 <__getgrent+0x1fc>
    acf4:	e3a03000 	mov	r3, #0	; 0x0
    acf8:	e7893106 	str	r3, [r9, r6, lsl #2]
    acfc:	e580900c 	str	r9, [r0, #12]
    ad00:	e91baff0 	ldmdb	fp, {r4, r5, r6, r7, r8, r9, sl, fp, sp, pc}
    ad04:	00000928 	andeq	r0, r0, r8, lsr #18

0000ad08 <ungetc>:
    ad08:	e1a0c00d 	mov	ip, sp
    ad0c:	e92dd830 	stmdb	sp!, {r4, r5, fp, ip, lr, pc}
    ad10:	e1a04001 	mov	r4, r1
    ad14:	e5943038 	ldr	r3, [r4, #56]
    ad18:	e3530000 	cmp	r3, #0	; 0x0
    ad1c:	e24cb004 	sub	fp, ip, #4	; 0x4
    ad20:	e1a05000 	mov	r5, r0
    ad24:	0a002b6f 	beq	adc4 <ungetc+0xbc>
    ad28:	e1d420b0 	ldrh	r2, [r4]
    ad2c:	e3120012 	tst	r2, #18	; 0x12
    ad30:	0a002b54 	beq	ad58 <ungetc+0x50>
    ad34:	e3e05000 	mvn	r5, #0	; 0x0
    ad38:	e5943038 	ldr	r3, [r4, #56]
    ad3c:	e3530000 	cmp	r3, #0	; 0x0
    ad40:	0a002b51 	beq	ad4c <ungetc+0x44>
    ad44:	e1a00005 	mov	r0, r5
    ad48:	e91ba830 	ldmdb	fp, {r4, r5, fp, sp, pc}
    ad4c:	e284003c 	add	r0, r4, #60	; 0x3c
    ad50:	ebfffffe 	bl	0 <_start>
    ad54:	ea002b4f 	b	ad44 <ungetc+0x3c>
    ad58:	e3120001 	tst	r2, #1	; 0x1
    ad5c:	0a002b59 	beq	ad6c <ungetc+0x64>
    ad60:	e5d43003 	ldrb	r3, [r4, #3]
    ad64:	e3530000 	cmp	r3, #0	; 0x0
    ad68:	1a002b4b 	bne	ad34 <ungetc+0x2c>
    ad6c:	e3750001 	cmn	r5, #1	; 0x1
    ad70:	0a002b4b 	beq	ad34 <ungetc+0x2c>
    ad74:	e3120a02 	tst	r2, #8192	; 0x2000
    ad78:	0a002b60 	beq	ad88 <ungetc+0x80>
    ad7c:	e1a00004 	mov	r0, r4
    ad80:	ebfffffe 	bl	0 <_start>
    ad84:	e1d420b0 	ldrh	r2, [r4]
    ad88:	e3c23a02 	bic	r3, r2, #8192	; 0x2000
    ad8c:	e3c33004 	bic	r3, r3, #4	; 0x4
    ad90:	e1a03803 	mov	r3, r3, lsl #16
    ad94:	e1a03823 	mov	r3, r3, lsr #16
    ad98:	e3833a01 	orr	r3, r3, #4096	; 0x1000
    ad9c:	e1a01004 	mov	r1, r4
    ada0:	e2830001 	add	r0, r3, #1	; 0x1
    ada4:	e3a02001 	mov	r2, #1	; 0x1
    ada8:	e5c42003 	strb	r2, [r4, #3]
    adac:	e0c100b2 	strh	r0, [r1], #2
    adb0:	e2033003 	and	r3, r3, #3	; 0x3
    adb4:	e7c15003 	strb	r5, [r1, r3]
    adb8:	e594200c 	ldr	r2, [r4, #12]
    adbc:	e584201c 	str	r2, [r4, #28]
    adc0:	ea002b4c 	b	ad38 <ungetc+0x30>
    adc4:	e284003c 	add	r0, r4, #60	; 0x3c
    adc8:	ebfffffe 	bl	0 <_start>
    adcc:	ea002b48 	b	ad28 <ungetc+0x20>

0000add0 <_uintmaxtostr>:
    add0:	e1a0c00d 	mov	ip, sp
    add4:	e92ddff0 	stmdb	sp!, {r4, r5, r6, r7, r8, r9, sl, fp, ip, lr, pc}
    add8:	e1a07003 	mov	r7, r3
    addc:	e24cb004 	sub	fp, ip, #4	; 0x4
    ade0:	e24dd008 	sub	sp, sp, #8	; 0x8
    ade4:	e1a06002 	mov	r6, r2
    ade8:	e1a05001 	mov	r5, r1
    adec:	e3a02000 	mov	r2, #0	; 0x0
    adf0:	e3570000 	cmp	r7, #0	; 0x0
    adf4:	e1a0a000 	mov	sl, r0
    adf8:	e50b202c 	str	r2, [fp, -#44]
    adfc:	ba002bba 	blt	aef0 <_uintmaxtostr+0x120>
    ae00:	e3a08000 	mov	r8, #0	; 0x0
    ae04:	e3e04000 	mvn	r4, #0	; 0x0
    ae08:	e5ca8000 	strb	r8, [sl]
    ae0c:	e1a00004 	mov	r0, r4
    ae10:	e1a01007 	mov	r1, r7
    ae14:	ebfffffe 	bl	0 <_start>
    ae18:	e1a01007 	mov	r1, r7
    ae1c:	e50b0030 	str	r0, [fp, -#48]
    ae20:	e1a00004 	mov	r0, r4
    ae24:	ebfffffe 	bl	0 <_start>
    ae28:	e2809001 	add	r9, r0, #1	; 0x1
    ae2c:	e1590007 	cmp	r9, r7
    ae30:	051b2030 	ldreq	r2, [fp, -#48]
    ae34:	02822001 	addeq	r2, r2, #1	; 0x1
    ae38:	e1a03006 	mov	r3, r6
    ae3c:	050b2030 	streq	r2, [fp, -#48]
    ae40:	01a09008 	moveq	r9, r8
    ae44:	e1a04005 	mov	r4, r5
    ae48:	e1a08003 	mov	r8, r3
    ae4c:	e1a00008 	mov	r0, r8
    ae50:	e1a01007 	mov	r1, r7
    ae54:	ebfffffe 	bl	0 <_start>
    ae58:	e1a01007 	mov	r1, r7
    ae5c:	e1a05000 	mov	r5, r0
    ae60:	e1a00008 	mov	r0, r8
    ae64:	ebfffffe 	bl	0 <_start>
    ae68:	e1a01007 	mov	r1, r7
    ae6c:	e1a08000 	mov	r8, r0
    ae70:	e1a00004 	mov	r0, r4
    ae74:	ebfffffe 	bl	0 <_start>
    ae78:	e1a01007 	mov	r1, r7
    ae7c:	e0260995 	mla	r6, r5, r9, r0
    ae80:	e1a00004 	mov	r0, r4
    ae84:	ebfffffe 	bl	0 <_start>
    ae88:	e51b4030 	ldr	r4, [fp, -#48]
    ae8c:	e1a01007 	mov	r1, r7
    ae90:	e0240495 	mla	r4, r5, r4, r0
    ae94:	e1a00006 	mov	r0, r6
    ae98:	ebfffffe 	bl	0 <_start>
    ae9c:	e1a01007 	mov	r1, r7
    aea0:	e1a03000 	mov	r3, r0
    aea4:	e1a00006 	mov	r0, r6
    aea8:	e0844003 	add	r4, r4, r3
    aeac:	ebfffffe 	bl	0 <_start>
    aeb0:	e59b2004 	ldr	r2, [fp, #4]
    aeb4:	e1a06000 	mov	r6, r0
    aeb8:	e3560009 	cmp	r6, #9	; 0x9
    aebc:	e2863030 	add	r3, r6, #48	; 0x30
    aec0:	e24aa001 	sub	sl, sl, #1	; 0x1
    aec4:	e0860002 	add	r0, r6, r2
    aec8:	95ca3000 	strlsb	r3, [sl]
    aecc:	85ca0000 	strhib	r0, [sl]
    aed0:	e1943008 	orrs	r3, r4, r8
    aed4:	1a002b91 	bne	ae4c <_uintmaxtostr+0x7c>
    aed8:	e51b202c 	ldr	r2, [fp, -#44]
    aedc:	e3520000 	cmp	r2, #0	; 0x0
    aee0:	13a0302d 	movne	r3, #45	; 0x2d
    aee4:	156a3001 	strneb	r3, [sl, -#1]!
    aee8:	e1a0000a 	mov	r0, sl
    aeec:	e91baff0 	ldmdb	fp, {r4, r5, r6, r7, r8, r9, sl, fp, sp, pc}
    aef0:	e3760106 	cmn	r6, #-2147483647	; 0x80000001
    aef4:	e2677000 	rsb	r7, r7, #0	; 0x0
    aef8:	9a002b7e 	bls	ae00 <_uintmaxtostr+0x30>
    aefc:	e3a03001 	mov	r3, #1	; 0x1
    af00:	e50b302c 	str	r3, [fp, -#44]
    af04:	e2755000 	rsbs	r5, r5, #0	; 0x0
    af08:	e2e66000 	rsc	r6, r6, #0	; 0x0
    af0c:	ea002b7e 	b	ae00 <_uintmaxtostr+0x30>

0000af10 <vsnprintf>:
    af10:	e1a0c00d 	mov	ip, sp
    af14:	e92dd8f0 	stmdb	sp!, {r4, r5, r6, r7, fp, ip, lr, pc}
    af18:	e1a0e000 	mov	lr, r0
    af1c:	e1a04001 	mov	r4, r1
    af20:	e1e0100e 	mvn	r1, lr
    af24:	e24cb004 	sub	fp, ip, #4	; 0x4
    af28:	e1540001 	cmp	r4, r1
    af2c:	21a04001 	movcs	r4, r1
    af30:	e3a0cd82 	mov	ip, #8320	; 0x2080
    af34:	e08e1004 	add	r1, lr, r4
    af38:	e24dd054 	sub	sp, sp, #84	; 0x54
    af3c:	e24b0034 	sub	r0, fp, #52	; 0x34
    af40:	e28cc010 	add	ip, ip, #16	; 0x10
    af44:	e1a06003 	mov	r6, r3
    af48:	e3a07000 	mov	r7, #0	; 0x0
    af4c:	e3e03001 	mvn	r3, #1	; 0x1
    af50:	e1a05002 	mov	r5, r2
    af54:	e50b1050 	str	r1, [fp, -#80]
    af58:	e50b1060 	str	r1, [fp, -#96]
    af5c:	e50b306c 	str	r3, [fp, -#108]
    af60:	e14bc7b0 	strh	ip, [fp, -#112]
    af64:	e50be064 	str	lr, [fp, -#100]
    af68:	e50be058 	str	lr, [fp, -#88]
    af6c:	e50be05c 	str	lr, [fp, -#92]
    af70:	e50be054 	str	lr, [fp, -#84]
    af74:	e50b7038 	str	r7, [fp, -#56]
    af78:	ebfffffe 	bl	0 <_start>
    af7c:	e1a01005 	mov	r1, r5
    af80:	e24b0070 	sub	r0, fp, #112	; 0x70
    af84:	e1a02006 	mov	r2, r6
    af88:	ebfffffe 	bl	0 <_start>
    af8c:	e1540007 	cmp	r4, r7
    af90:	091ba8f0 	ldmeqdb	fp, {r4, r5, r6, r7, fp, sp, pc}
    af94:	e51b205c 	ldr	r2, [fp, -#92]
    af98:	e51b3060 	ldr	r3, [fp, -#96]
    af9c:	e2421001 	sub	r1, r2, #1	; 0x1
    afa0:	e1520003 	cmp	r2, r3
    afa4:	01a02001 	moveq	r2, r1
    afa8:	050b105c 	streq	r1, [fp, -#92]
    afac:	e5c27000 	strb	r7, [r2]
    afb0:	e91ba8f0 	ldmdb	fp, {r4, r5, r6, r7, fp, sp, pc}

0000afb4 <_ppfs_init>:
    afb4:	e1a0c00d 	mov	ip, sp
    afb8:	e92dd870 	stmdb	sp!, {r4, r5, r6, fp, ip, lr, pc}
    afbc:	e3a020a4 	mov	r2, #164	; 0xa4
    afc0:	e1a04000 	mov	r4, r0
    afc4:	e1a05001 	mov	r5, r1
    afc8:	e3a01000 	mov	r1, #0	; 0x0
    afcc:	e24cb004 	sub	fp, ip, #4	; 0x4
    afd0:	ebfffffe 	bl	0 <_start>
    afd4:	e5943018 	ldr	r3, [r4, #24]
    afd8:	e2846028 	add	r6, r4, #40	; 0x28
    afdc:	e2433001 	sub	r3, r3, #1	; 0x1
    afe0:	e5845000 	str	r5, [r4]
    afe4:	e5843018 	str	r3, [r4, #24]
    afe8:	e3a0000a 	mov	r0, #10	; 0xa
    afec:	e1a03006 	mov	r3, r6
    aff0:	e3a02008 	mov	r2, #8	; 0x8
    aff4:	e2500001 	subs	r0, r0, #1	; 0x1
    aff8:	e4832004 	str	r2, [r3], #4
    affc:	1a002bfb 	bne	aff4 <_ppfs_init+0x40>
    b000:	e5d53000 	ldrb	r3, [r5]
    b004:	e3530000 	cmp	r3, #0	; 0x0
    b008:	e1a02005 	mov	r2, r5
    b00c:	0a002c08 	beq	b028 <_ppfs_init+0x74>
    b010:	e3530025 	cmp	r3, #37	; 0x25
    b014:	0a002c16 	beq	b060 <_ppfs_init+0xac>
    b018:	e2822001 	add	r2, r2, #1	; 0x1
    b01c:	e5d23000 	ldrb	r3, [r2]
    b020:	e3530000 	cmp	r3, #0	; 0x0
    b024:	1a002c02 	bne	b010 <_ppfs_init+0x5c>
    b028:	e5940018 	ldr	r0, [r4, #24]
    b02c:	e2500001 	subs	r0, r0, #1	; 0x1
    b030:	e5845000 	str	r5, [r4]
    b034:	e1a02006 	mov	r2, r6
    b038:	4a002c14 	bmi	b058 <_ppfs_init+0xa4>
    b03c:	e5923000 	ldr	r3, [r2]
    b040:	e3530008 	cmp	r3, #8	; 0x8
    b044:	e2822004 	add	r2, r2, #4	; 0x4
    b048:	03e00000 	mvneq	r0, #0	; 0x0
    b04c:	091ba870 	ldmeqdb	fp, {r4, r5, r6, fp, sp, pc}
    b050:	e2500001 	subs	r0, r0, #1	; 0x1
    b054:	5a002c0d 	bpl	b03c <_ppfs_init+0x88>
    b058:	e3a00000 	mov	r0, #0	; 0x0
    b05c:	e91ba870 	ldmdb	fp, {r4, r5, r6, fp, sp, pc}
    b060:	e5f23001 	ldrb	r3, [r2, #1]!
    b064:	e3530025 	cmp	r3, #37	; 0x25
    b068:	e1a00004 	mov	r0, r4
    b06c:	0a002c04 	beq	b018 <_ppfs_init+0x64>
    b070:	e5842000 	str	r2, [r4]
    b074:	ebfffffe 	bl	0 <_start>
    b078:	e3500000 	cmp	r0, #0	; 0x0
    b07c:	b3e00000 	mvnlt	r0, #0	; 0x0
    b080:	b91ba870 	ldmltdb	fp, {r4, r5, r6, fp, sp, pc}
    b084:	e5942000 	ldr	r2, [r4]
    b088:	ea002c05 	b	b01c <_ppfs_init+0x68>

0000b08c <_ppfs_prepargs>:
    b08c:	e1a0c00d 	mov	ip, sp
    b090:	e92dd830 	stmdb	sp!, {r4, r5, fp, ip, lr, pc}
    b094:	e1a04000 	mov	r4, r0
    b098:	e5945018 	ldr	r5, [r4, #24]
    b09c:	e3a03000 	mov	r3, #0	; 0x0
    b0a0:	e1550003 	cmp	r5, r3
    b0a4:	e24cb004 	sub	fp, ip, #4	; 0x4
    b0a8:	e5841050 	str	r1, [r4, #80]
    b0ac:	d91ba830 	ldmledb	fp, {r4, r5, fp, sp, pc}
    b0b0:	e5843008 	str	r3, [r4, #8]
    b0b4:	e584501c 	str	r5, [r4, #28]
    b0b8:	e5843018 	str	r3, [r4, #24]
    b0bc:	e5843004 	str	r3, [r4, #4]
    b0c0:	ebfffffe 	bl	0 <_start>
    b0c4:	e5845018 	str	r5, [r4, #24]
    b0c8:	e91ba830 	ldmdb	fp, {r4, r5, fp, sp, pc}

0000b0cc <_ppfs_setargs>:
    b0cc:	e92d40f0 	stmdb	sp!, {r4, r5, r6, r7, lr}
    b0d0:	e590e018 	ldr	lr, [r0, #24]
    b0d4:	e35e0000 	cmp	lr, #0	; 0x0
    b0d8:	e280c054 	add	ip, r0, #84	; 0x54
    b0dc:	0a002c4e 	beq	b140 <_ppfs_setargs+0x74>
    b0e0:	e5903008 	ldr	r3, [r0, #8]
    b0e4:	e3530102 	cmp	r3, #-2147483648	; 0x80000000
    b0e8:	05d03024 	ldreqb	r3, [r0, #36]
    b0ec:	008c3183 	addeq	r3, ip, r3, lsl #3
    b0f0:	05132008 	ldreq	r2, [r3, -#8]
    b0f4:	e5903004 	ldr	r3, [r0, #4]
    b0f8:	05802008 	streq	r2, [r0, #8]
    b0fc:	e3530102 	cmp	r3, #-2147483648	; 0x80000000
    b100:	05d03025 	ldreqb	r3, [r0, #37]
    b104:	008c3183 	addeq	r3, ip, r3, lsl #3
    b108:	05132008 	ldreq	r2, [r3, -#8]
    b10c:	05802004 	streq	r2, [r0, #4]
    b110:	e5901008 	ldr	r1, [r0, #8]
    b114:	e3510000 	cmp	r1, #0	; 0x0
    b118:	a8bd80f0 	ldmgeia	sp!, {r4, r5, r6, r7, pc}
    b11c:	e5903010 	ldr	r3, [r0, #16]
    b120:	e3833008 	orr	r3, r3, #8	; 0x8
    b124:	e2611000 	rsb	r1, r1, #0	; 0x0
    b128:	e3c33001 	bic	r3, r3, #1	; 0x1
    b12c:	e3a02020 	mov	r2, #32	; 0x20
    b130:	e5802014 	str	r2, [r0, #20]
    b134:	e5801008 	str	r1, [r0, #8]
    b138:	e5803010 	str	r3, [r0, #16]
    b13c:	e8bd80f0 	ldmia	sp!, {r4, r5, r6, r7, pc}
    b140:	e5903008 	ldr	r3, [r0, #8]
    b144:	e3530102 	cmp	r3, #-2147483648	; 0x80000000
    b148:	0a002c88 	beq	b228 <_ppfs_setargs+0x15c>
    b14c:	e5903004 	ldr	r3, [r0, #4]
    b150:	e3530102 	cmp	r3, #-2147483648	; 0x80000000
    b154:	0a002c81 	beq	b20c <_ppfs_setargs+0x140>
    b158:	e590201c 	ldr	r2, [r0, #28]
    b15c:	e15e0002 	cmp	lr, r2
    b160:	aa002c42 	bge	b110 <_ppfs_setargs+0x44>
    b164:	e3a05b02 	mov	r5, #2048	; 0x800
    b168:	e2855007 	add	r5, r5, #7	; 0x7
    b16c:	e3a04028 	mov	r4, #40	; 0x28
    b170:	e1a03004 	mov	r3, r4
    b174:	e7903003 	ldr	r3, [r0, r3]
    b178:	e3530008 	cmp	r3, #8	; 0x8
    b17c:	e2844004 	add	r4, r4, #4	; 0x4
    b180:	e28ee001 	add	lr, lr, #1	; 0x1
    b184:	ca002c73 	bgt	b1d4 <_ppfs_setargs+0x108>
    b188:	e3530007 	cmp	r3, #7	; 0x7
    b18c:	aa002c70 	bge	b1c8 <_ppfs_setargs+0xfc>
    b190:	e3530002 	cmp	r3, #2	; 0x2
    b194:	05903050 	ldreq	r3, [r0, #80]
    b198:	02832004 	addeq	r2, r3, #4	; 0x4
    b19c:	05802050 	streq	r2, [r0, #80]
    b1a0:	05931000 	ldreq	r1, [r3]
    b1a4:	058c1000 	streq	r1, [ip]
    b1a8:	0a002c6e 	beq	b1c0 <_ppfs_setargs+0xf4>
    b1ac:	e5903050 	ldr	r3, [r0, #80]
    b1b0:	e2832004 	add	r2, r3, #4	; 0x4
    b1b4:	e5802050 	str	r2, [r0, #80]
    b1b8:	e5931000 	ldr	r1, [r3]
    b1bc:	e58c1000 	str	r1, [ip]
    b1c0:	e590201c 	ldr	r2, [r0, #28]
    b1c4:	e28cc008 	add	ip, ip, #8	; 0x8
    b1c8:	e15e0002 	cmp	lr, r2
    b1cc:	ba002c5a 	blt	b170 <_ppfs_setargs+0xa4>
    b1d0:	ea002c42 	b	b110 <_ppfs_setargs+0x44>
    b1d4:	e3530b01 	cmp	r3, #1024	; 0x400
    b1d8:	0a002c69 	beq	b1ac <_ppfs_setargs+0xe0>
    b1dc:	da002c69 	ble	b1ac <_ppfs_setargs+0xe0>
    b1e0:	e3530b02 	cmp	r3, #2048	; 0x800
    b1e4:	0a002c7b 	beq	b1f4 <_ppfs_setargs+0x128>
    b1e8:	e1530005 	cmp	r3, r5
    b1ec:	0a002c70 	beq	b1c8 <_ppfs_setargs+0xfc>
    b1f0:	ea002c69 	b	b1ac <_ppfs_setargs+0xe0>
    b1f4:	e5902050 	ldr	r2, [r0, #80]
    b1f8:	e2823008 	add	r3, r2, #8	; 0x8
    b1fc:	e5803050 	str	r3, [r0, #80]
    b200:	e89200c0 	ldmia	r2, {r6, r7}
    b204:	e88c00c0 	stmia	ip, {r6, r7}
    b208:	ea002c6e 	b	b1c0 <_ppfs_setargs+0xf4>
    b20c:	e5903050 	ldr	r3, [r0, #80]
    b210:	e2832004 	add	r2, r3, #4	; 0x4
    b214:	e5802050 	str	r2, [r0, #80]
    b218:	e5931000 	ldr	r1, [r3]
    b21c:	e5801004 	str	r1, [r0, #4]
    b220:	e5801054 	str	r1, [r0, #84]
    b224:	ea002c54 	b	b158 <_ppfs_setargs+0x8c>
    b228:	e5903050 	ldr	r3, [r0, #80]
    b22c:	e2832004 	add	r2, r3, #4	; 0x4
    b230:	e5802050 	str	r2, [r0, #80]
    b234:	e5931000 	ldr	r1, [r3]
    b238:	e5801008 	str	r1, [r0, #8]
    b23c:	e5801054 	str	r1, [r0, #84]
    b240:	ea002c51 	b	b14c <_ppfs_setargs+0x80>

0000b244 <_promoted_size>:
    b244:	e59f2028 	ldr	r2, [pc, #28]	; b274 <_promoted_size+0x30>
    b248:	e2421014 	sub	r1, r2, #20	; 0x14
    b24c:	e17230f2 	ldrsh	r3, [r2, -#2]!
    b250:	e1530000 	cmp	r3, r0
    b254:	0a002c96 	beq	b260 <_promoted_size+0x1c>
    b258:	e1520001 	cmp	r2, r1
    b25c:	8a002c91 	bhi	b24c <_promoted_size+0x8>
    b260:	e59f3010 	ldr	r3, [pc, #10]	; b278 <_promoted_size+0x34>
    b264:	e0633002 	rsb	r3, r3, r2
    b268:	e59f200c 	ldr	r2, [pc, #c]	; b27c <_promoted_size+0x38>
    b26c:	e7d200c3 	ldrb	r0, [r2, r3, asr #1]
    b270:	e1a0f00e 	mov	pc, lr
    b274:	000016b4 	streqh	r1, [r0], -r4
    b278:	000016a0 	andeq	r1, r0, r0, lsr #13
    b27c:	000016b4 	streqh	r1, [r0], -r4

0000b280 <_is_equal_or_bigger_arg>:
    b280:	e1a0c00d 	mov	ip, sp
    b284:	e92dd830 	stmdb	sp!, {r4, r5, fp, ip, lr, pc}
    b288:	e1a05001 	mov	r5, r1
    b28c:	e3550008 	cmp	r5, #8	; 0x8
    b290:	e1a03000 	mov	r3, r0
    b294:	e24cb004 	sub	fp, ip, #4	; 0x4
    b298:	03a00000 	moveq	r0, #0	; 0x0
    b29c:	091ba830 	ldmeqdb	fp, {r4, r5, fp, sp, pc}
    b2a0:	e1530005 	cmp	r3, r5
    b2a4:	13530008 	cmpne	r3, #8	; 0x8
    b2a8:	03a00001 	moveq	r0, #1	; 0x1
    b2ac:	091ba830 	ldmeqdb	fp, {r4, r5, fp, sp, pc}
    b2b0:	eb002c8f 	bl	b244 <_promoted_size>
    b2b4:	e1a04000 	mov	r4, r0
    b2b8:	e1a00005 	mov	r0, r5
    b2bc:	eb002c8f 	bl	b244 <_promoted_size>
    b2c0:	e1540000 	cmp	r4, r0
    b2c4:	c3a04000 	movgt	r4, #0	; 0x0
    b2c8:	d3a04001 	movle	r4, #1	; 0x1
    b2cc:	e1a00004 	mov	r0, r4
    b2d0:	e91ba830 	ldmdb	fp, {r4, r5, fp, sp, pc}

0000b2d4 <_ppfs_parsespec>:
    b2d4:	e1a0c00d 	mov	ip, sp
    b2d8:	e92ddff0 	stmdb	sp!, {r4, r5, r6, r7, r8, r9, sl, fp, ip, lr, pc}
    b2dc:	e3a02000 	mov	r2, #0	; 0x0
    b2e0:	e24cb004 	sub	fp, ip, #4	; 0x4
    b2e4:	e3a03008 	mov	r3, #8	; 0x8
    b2e8:	e24dd040 	sub	sp, sp, #64	; 0x40
    b2ec:	e50b304c 	str	r3, [fp, -#76]
    b2f0:	e50b3050 	str	r3, [fp, -#80]
    b2f4:	e50b2068 	str	r2, [fp, -#104]
    b2f8:	e50b205c 	str	r2, [fp, -#92]
    b2fc:	e50b2058 	str	r2, [fp, -#88]
    b300:	e1a0a000 	mov	sl, r0
    b304:	e59a5000 	ldr	r5, [sl]
    b308:	e2433009 	sub	r3, r3, #9	; 0x9
    b30c:	e59a8018 	ldr	r8, [sl, #24]
    b310:	e5d5e000 	ldrb	lr, [r5]
    b314:	e1a07002 	mov	r7, r2
    b318:	e50b3060 	str	r3, [fp, -#96]
    b31c:	e50b2064 	str	r2, [fp, -#100]
    b320:	e1a06007 	mov	r6, r7
    b324:	e35e002a 	cmp	lr, #42	; 0x2a
    b328:	e1a0c005 	mov	ip, r5
    b32c:	0a002dcc 	beq	b738 <_ppfs_parsespec+0x464>
    b330:	e24e3030 	sub	r3, lr, #48	; 0x30
    b334:	e3530009 	cmp	r3, #9	; 0x9
    b338:	e3a04000 	mov	r4, #0	; 0x0
    b33c:	8a002cd9 	bhi	b36c <_ppfs_parsespec+0x98>
    b340:	e3a01eff 	mov	r1, #4080	; 0xff0
    b344:	e281100e 	add	r1, r1, #14	; 0xe
    b348:	e1540001 	cmp	r4, r1
    b34c:	d5d53000 	ldrleb	r3, [r5]
    b350:	e0842104 	add	r2, r4, r4, lsl #2
    b354:	e5f5e001 	ldrb	lr, [r5, #1]!
    b358:	d0833082 	addle	r3, r3, r2, lsl #1
    b35c:	d2434030 	suble	r4, r3, #48	; 0x30
    b360:	e24e3030 	sub	r3, lr, #48	; 0x30
    b364:	e3530009 	cmp	r3, #9	; 0x9
    b368:	9a002cd0 	bls	b348 <_ppfs_parsespec+0x74>
    b36c:	e55c3001 	ldrb	r3, [ip, -#1]
    b370:	e3530025 	cmp	r3, #37	; 0x25
    b374:	15dc0000 	ldrneb	r0, [ip]
    b378:	1a002d00 	bne	b408 <_ppfs_parsespec+0x134>
    b37c:	e3540000 	cmp	r4, #0	; 0x0
    b380:	d3a03000 	movle	r3, #0	; 0x0
    b384:	c3a03001 	movgt	r3, #1	; 0x1
    b388:	e20e20ff 	and	r2, lr, #255	; 0xff
    b38c:	e3520024 	cmp	r2, #36	; 0x24
    b390:	13a03000 	movne	r3, #0	; 0x0
    b394:	02033001 	andeq	r3, r3, #1	; 0x1
    b398:	e3530000 	cmp	r3, #0	; 0x0
    b39c:	0a002dbd 	beq	b6fc <_ppfs_parsespec+0x428>
    b3a0:	e3580000 	cmp	r8, #0	; 0x0
    b3a4:	e2855001 	add	r5, r5, #1	; 0x1
    b3a8:	03e00000 	mvneq	r0, #0	; 0x0
    b3ac:	091baff0 	ldmeqdb	fp, {r4, r5, r6, r7, r8, r9, sl, fp, sp, pc}
    b3b0:	e1540008 	cmp	r4, r8
    b3b4:	e50b4054 	str	r4, [fp, -#84]
    b3b8:	c1a08004 	movgt	r8, r4
    b3bc:	e59fc394 	ldr	ip, [pc, #394]	; b758 <_ppfs_parsespec+0x484>
    b3c0:	e5d5e000 	ldrb	lr, [r5]
    b3c4:	e5dc0000 	ldrb	r0, [ip]
    b3c8:	e3a04001 	mov	r4, #1	; 0x1
    b3cc:	e20e30ff 	and	r3, lr, #255	; 0xff
    b3d0:	e1530000 	cmp	r3, r0
    b3d4:	e28cc001 	add	ip, ip, #1	; 0x1
    b3d8:	0a002dba 	beq	b6f0 <_ppfs_parsespec+0x41c>
    b3dc:	e5dc0000 	ldrb	r0, [ip]
    b3e0:	e20010ff 	and	r1, r0, #255	; 0xff
    b3e4:	e3510000 	cmp	r1, #0	; 0x0
    b3e8:	e1a04084 	mov	r4, r4, lsl #1
    b3ec:	1a002cf2 	bne	b3d0 <_ppfs_parsespec+0xfc>
    b3f0:	e5553001 	ldrb	r3, [r5, -#1]
    b3f4:	e206200a 	and	r2, r6, #10	; 0xa
    b3f8:	e3530025 	cmp	r3, #37	; 0x25
    b3fc:	e1a04001 	mov	r4, r1
    b400:	e1c660a2 	bic	r6, r6, r2, lsr #1
    b404:	1a002cc7 	bne	b324 <_ppfs_parsespec+0x50>
    b408:	e350002a 	cmp	r0, #42	; 0x2a
    b40c:	0a002da6 	beq	b6a0 <_ppfs_parsespec+0x3cc>
    b410:	e3570000 	cmp	r7, #0	; 0x0
    b414:	150b4060 	strne	r4, [fp, -#96]
    b418:	1a002d08 	bne	b428 <_ppfs_parsespec+0x154>
    b41c:	e35e002e 	cmp	lr, #46	; 0x2e
    b420:	e50b4064 	str	r4, [fp, -#100]
    b424:	0a002da3 	beq	b694 <_ppfs_parsespec+0x3c0>
    b428:	e59fc32c 	ldr	ip, [pc, #32c]	; b75c <_ppfs_parsespec+0x488>
    b42c:	e5dc0000 	ldrb	r0, [ip]
    b430:	e1a0200c 	mov	r2, ip
    b434:	e20e30ff 	and	r3, lr, #255	; 0xff
    b438:	e1530000 	cmp	r3, r0
    b43c:	05f5e001 	ldreqb	lr, [r5, #1]!
    b440:	0a002d12 	beq	b450 <_ppfs_parsespec+0x17c>
    b444:	e5fc0001 	ldrb	r0, [ip, #1]!
    b448:	e3500000 	cmp	r0, #0	; 0x0
    b44c:	1a002d0c 	bne	b438 <_ppfs_parsespec+0x164>
    b450:	e062300c 	rsb	r3, r2, ip
    b454:	e3530001 	cmp	r3, #1	; 0x1
    b458:	ca002d18 	bgt	b468 <_ppfs_parsespec+0x194>
    b45c:	e15e0000 	cmp	lr, r0
    b460:	05f5e001 	ldreqb	lr, [r5, #1]!
    b464:	028cc009 	addeq	ip, ip, #9	; 0x9
    b468:	e20e20ff 	and	r2, lr, #255	; 0xff
    b46c:	e5dc3009 	ldrb	r3, [ip, #9]
    b470:	e3520000 	cmp	r2, #0	; 0x0
    b474:	e1a0e403 	mov	lr, r3, lsl #8
    b478:	03e00000 	mvneq	r0, #0	; 0x0
    b47c:	091baff0 	ldmeqdb	fp, {r4, r5, r6, r7, r8, r9, sl, fp, sp, pc}
    b480:	e59fc2d8 	ldr	ip, [pc, #2d8]	; b760 <_ppfs_parsespec+0x48c>
    b484:	e59f12d8 	ldr	r1, [pc, #2d8]	; b764 <_ppfs_parsespec+0x490>
    b488:	e5dc0000 	ldrb	r0, [ip]
    b48c:	e59f92d4 	ldr	r9, [pc, #2d4]	; b768 <_ppfs_parsespec+0x494>
    b490:	e1a0700c 	mov	r7, ip
    b494:	e1520000 	cmp	r2, r0
    b498:	0a002d8f 	beq	b644 <_ppfs_parsespec+0x370>
    b49c:	e5fc3001 	ldrb	r3, [ip, #1]!
    b4a0:	e1a00003 	mov	r0, r3
    b4a4:	e3500000 	cmp	r0, #0	; 0x0
    b4a8:	1a002d23 	bne	b494 <_ppfs_parsespec+0x1c0>
    b4ac:	e5d51000 	ldrb	r1, [r5]
    b4b0:	e20e3c0f 	and	r3, lr, #3840	; 0xf00
    b4b4:	e58a100c 	str	r1, [sl, #12]
    b4b8:	e3c62004 	bic	r2, r6, #4	; 0x4
    b4bc:	e1822003 	orr	r2, r2, r3
    b4c0:	e51b3060 	ldr	r3, [fp, -#96]
    b4c4:	e58a3004 	str	r3, [sl, #4]
    b4c8:	e51b3064 	ldr	r3, [fp, -#100]
    b4cc:	e3160004 	tst	r6, #4	; 0x4
    b4d0:	03a00020 	moveq	r0, #32	; 0x20
    b4d4:	13a00030 	movne	r0, #48	; 0x30
    b4d8:	e58a3008 	str	r3, [sl, #8]
    b4dc:	e3a03001 	mov	r3, #1	; 0x1
    b4e0:	e58a0014 	str	r0, [sl, #20]
    b4e4:	e58a2010 	str	r2, [sl, #16]
    b4e8:	e58a301c 	str	r3, [sl, #28]
    b4ec:	e5dc3000 	ldrb	r3, [ip]
    b4f0:	e3530000 	cmp	r3, #0	; 0x0
    b4f4:	0a002d6e 	beq	b5c0 <_ppfs_parsespec+0x2ec>
    b4f8:	e3580000 	cmp	r8, #0	; 0x0
    b4fc:	da002d66 	ble	b5a0 <_ppfs_parsespec+0x2cc>
    b500:	e3a04000 	mov	r4, #0	; 0x0
    b504:	e1a07004 	mov	r7, r4
    b508:	e3540002 	cmp	r4, #2	; 0x2
    b50c:	e24b305c 	sub	r3, fp, #92	; 0x5c
    b510:	c51b3054 	ldrgt	r3, [fp, -#84]
    b514:	d7d33007 	ldrleb	r3, [r3, r7]
    b518:	c0833004 	addgt	r3, r3, r4
    b51c:	e2841024 	add	r1, r4, #36	; 0x24
    b520:	d20320ff 	andle	r2, r3, #255	; 0xff
    b524:	c2432002 	subgt	r2, r3, #2	; 0x2
    b528:	d7ca3001 	strleb	r3, [sl, r1]
    b52c:	e1a03102 	mov	r3, r2, lsl #2
    b530:	e1520008 	cmp	r2, r8
    b534:	e24b9050 	sub	r9, fp, #80	; 0x50
    b538:	e2844001 	add	r4, r4, #1	; 0x1
    b53c:	e2836024 	add	r6, r3, #36	; 0x24
    b540:	da002d53 	ble	b554 <_ppfs_parsespec+0x280>
    b544:	e1a08002 	mov	r8, r2
    b548:	e3580009 	cmp	r8, #9	; 0x9
    b54c:	c3e00000 	mvngt	r0, #0	; 0x0
    b550:	c91baff0 	ldmgtdb	fp, {r4, r5, r6, r7, r8, r9, sl, fp, sp, pc}
    b554:	e7991007 	ldr	r1, [r9, r7]
    b558:	e79a0006 	ldr	r0, [sl, r6]
    b55c:	eb002c9e 	bl	b280 <_is_equal_or_bigger_arg>
    b560:	e3500000 	cmp	r0, #0	; 0x0
    b564:	17993007 	ldrne	r3, [r9, r7]
    b568:	178a3006 	strne	r3, [sl, r6]
    b56c:	e59a301c 	ldr	r3, [sl, #28]
    b570:	e2833002 	add	r3, r3, #2	; 0x2
    b574:	e1540003 	cmp	r4, r3
    b578:	e2877004 	add	r7, r7, #4	; 0x4
    b57c:	ba002d40 	blt	b508 <_ppfs_parsespec+0x234>
    b580:	e58a8018 	str	r8, [sl, #24]
    b584:	e51b2068 	ldr	r2, [fp, -#104]
    b588:	e59a001c 	ldr	r0, [sl, #28]
    b58c:	e2855001 	add	r5, r5, #1	; 0x1
    b590:	e2800002 	add	r0, r0, #2	; 0x2
    b594:	e58a2020 	str	r2, [sl, #32]
    b598:	e58a5000 	str	r5, [sl]
    b59c:	e91baff0 	ldmdb	fp, {r4, r5, r6, r7, r8, r9, sl, fp, sp, pc}
    b5a0:	e59a201c 	ldr	r2, [sl, #28]
    b5a4:	e3a03001 	mov	r3, #1	; 0x1
    b5a8:	e1a02102 	mov	r2, r2, lsl #2
    b5ac:	e28a0028 	add	r0, sl, #40	; 0x28
    b5b0:	e5ca3026 	strb	r3, [sl, #38]
    b5b4:	e24b1048 	sub	r1, fp, #72	; 0x48
    b5b8:	ebfffffe 	bl	0 <_start>
    b5bc:	ea002d5e 	b	b580 <_ppfs_parsespec+0x2ac>
    b5c0:	e5d51000 	ldrb	r1, [r5]
    b5c4:	e351006d 	cmp	r1, #109	; 0x6d
    b5c8:	03a02014 	moveq	r2, #20	; 0x14
    b5cc:	050b2068 	streq	r2, [fp, -#104]
    b5d0:	058a301c 	streq	r3, [sl, #28]
    b5d4:	0a002d3c 	beq	b4f8 <_ppfs_parsespec+0x224>
    b5d8:	e59f318c 	ldr	r3, [pc, #18c]	; b76c <_ppfs_parsespec+0x498>
    b5dc:	e593c000 	ldr	ip, [r3]
    b5e0:	e1a00003 	mov	r0, r3
    b5e4:	e3a03015 	mov	r3, #21	; 0x15
    b5e8:	e59f4180 	ldr	r4, [pc, #180]	; b770 <_ppfs_parsespec+0x49c>
    b5ec:	e50b3068 	str	r3, [fp, -#104]
    b5f0:	e5dc2000 	ldrb	r2, [ip]
    b5f4:	e20130ff 	and	r3, r1, #255	; 0xff
    b5f8:	e1520003 	cmp	r2, r3
    b5fc:	0a002d84 	beq	b618 <_ppfs_parsespec+0x344>
    b600:	e5903000 	ldr	r3, [r0]
    b604:	e28cc001 	add	ip, ip, #1	; 0x1
    b608:	e283300a 	add	r3, r3, #10	; 0xa
    b60c:	e15c0003 	cmp	ip, r3
    b610:	3a002d7a 	bcc	b5f0 <_ppfs_parsespec+0x31c>
    b614:	ea002dca 	b	b730 <_ppfs_parsespec+0x45c>
    b618:	e5903000 	ldr	r3, [r0]
    b61c:	e3a01008 	mov	r1, #8	; 0x8
    b620:	e063300c 	rsb	r3, r3, ip
    b624:	e28a0004 	add	r0, sl, #4	; 0x4
    b628:	e24b2048 	sub	r2, fp, #72	; 0x48
    b62c:	e1a0e00f 	mov	lr, pc
    b630:	e794f103 	ldr	pc, [r4, r3, lsl #2]
    b634:	e3500008 	cmp	r0, #8	; 0x8
    b638:	e58a001c 	str	r0, [sl, #28]
    b63c:	da002d3c 	ble	b4f8 <_ppfs_parsespec+0x224>
    b640:	ea002dca 	b	b730 <_ppfs_parsespec+0x45c>
    b644:	e067200c 	rsb	r2, r7, ip
    b648:	e3520011 	cmp	r2, #17	; 0x11
    b64c:	da002d94 	ble	b658 <_ppfs_parsespec+0x384>
    b650:	e31e0b01 	tst	lr, #1024	; 0x400
    b654:	12422002 	subne	r2, r2, #2	; 0x2
    b658:	e50b2068 	str	r2, [fp, -#104]
    b65c:	e241c001 	sub	ip, r1, #1	; 0x1
    b660:	e5fc3001 	ldrb	r3, [ip, #1]!
    b664:	e1520003 	cmp	r2, r3
    b668:	ca002d96 	bgt	b660 <_ppfs_parsespec+0x38c>
    b66c:	e061400c 	rsb	r4, r1, ip
    b670:	e1a01084 	mov	r1, r4, lsl #1
    b674:	e59f20f8 	ldr	r2, [pc, #f8]	; b774 <_ppfs_parsespec+0x4a0>
    b678:	e19930f1 	ldrsh	r3, [r9, r1]
    b67c:	e19200f1 	ldrsh	r0, [r2, r1]
    b680:	e18e3003 	orr	r3, lr, r3
    b684:	e0033000 	and	r3, r3, r0
    b688:	e1a0c007 	mov	ip, r7
    b68c:	e50b3048 	str	r3, [fp, -#72]
    b690:	ea002d29 	b	b4ac <_ppfs_parsespec+0x1d8>
    b694:	e5f5e001 	ldrb	lr, [r5, #1]!
    b698:	e3e07000 	mvn	r7, #0	; 0x0
    b69c:	ea002cc7 	b	b324 <_ppfs_parsespec+0x50>
    b6a0:	e3580000 	cmp	r8, #0	; 0x0
    b6a4:	0a002db5 	beq	b6dc <_ppfs_parsespec+0x408>
    b6a8:	e35e0024 	cmp	lr, #36	; 0x24
    b6ac:	e2855001 	add	r5, r5, #1	; 0x1
    b6b0:	1a002dca 	bne	b730 <_ppfs_parsespec+0x45c>
    b6b4:	e3540000 	cmp	r4, #0	; 0x0
    b6b8:	da002dca 	ble	b730 <_ppfs_parsespec+0x45c>
    b6bc:	e3570000 	cmp	r7, #0	; 0x0
    b6c0:	13a02004 	movne	r2, #4	; 0x4
    b6c4:	03a02000 	moveq	r2, #0	; 0x0
    b6c8:	e24b305c 	sub	r3, fp, #92	; 0x5c
    b6cc:	e7834002 	str	r4, [r3, r2]
    b6d0:	e5d5e000 	ldrb	lr, [r5]
    b6d4:	e3a04102 	mov	r4, #-2147483648	; 0x80000000
    b6d8:	ea002d02 	b	b410 <_ppfs_parsespec+0x13c>
    b6dc:	e28cc001 	add	ip, ip, #1	; 0x1
    b6e0:	e15c0005 	cmp	ip, r5
    b6e4:	13e00000 	mvnne	r0, #0	; 0x0
    b6e8:	0a002db3 	beq	b6d4 <_ppfs_parsespec+0x400>
    b6ec:	e91baff0 	ldmdb	fp, {r4, r5, r6, r7, r8, r9, sl, fp, sp, pc}
    b6f0:	e1866004 	orr	r6, r6, r4
    b6f4:	e2855001 	add	r5, r5, #1	; 0x1
    b6f8:	ea002ced 	b	b3bc <_ppfs_parsespec+0xe8>
    b6fc:	e3580000 	cmp	r8, #0	; 0x0
    b700:	ca002dc7 	bgt	b724 <_ppfs_parsespec+0x450>
    b704:	e155000c 	cmp	r5, ip
    b708:	e1a08003 	mov	r8, r3
    b70c:	9a002dc5 	bls	b71c <_ppfs_parsespec+0x448>
    b710:	e5dc0000 	ldrb	r0, [ip]
    b714:	e3500030 	cmp	r0, #48	; 0x30
    b718:	1a002d00 	bne	b408 <_ppfs_parsespec+0x134>
    b71c:	e1a0500c 	mov	r5, ip
    b720:	ea002ced 	b	b3bc <_ppfs_parsespec+0xe8>
    b724:	e352006d 	cmp	r2, #109	; 0x6d
    b728:	05dc0000 	ldreqb	r0, [ip]
    b72c:	0a002d00 	beq	b408 <_ppfs_parsespec+0x134>
    b730:	e3e00000 	mvn	r0, #0	; 0x0
    b734:	e91baff0 	ldmdb	fp, {r4, r5, r6, r7, r8, r9, sl, fp, sp, pc}
    b738:	e3570000 	cmp	r7, #0	; 0x0
    b73c:	13a01004 	movne	r1, #4	; 0x4
    b740:	03a01000 	moveq	r1, #0	; 0x0
    b744:	e24b2050 	sub	r2, fp, #80	; 0x50
    b748:	e3a03000 	mov	r3, #0	; 0x0
    b74c:	e7823001 	str	r3, [r2, r1]
    b750:	e5f5e001 	ldrb	lr, [r5, #1]!
    b754:	ea002cca 	b	b330 <_ppfs_parsespec+0x5c>
    b758:	000016c0 	andeq	r1, r0, r0, asr #13
    b75c:	00001706 	andeq	r1, r0, r6, lsl #14
    b760:	000016c8 	andeq	r1, r0, r8, asr #13
    b764:	000016dd 	ldreqd	r1, [r0], -sp
    b768:	000016e6 	andeq	r1, r0, r6, ror #13
	...
    b774:	000016f6 	streqd	r1, [r0], -r6

0000b778 <bzero>:
    b778:	e3510000 	cmp	r1, #0	; 0x0
    b77c:	01a0f00e 	moveq	pc, lr
    b780:	e3a03000 	mov	r3, #0	; 0x0
    b784:	e2511001 	subs	r1, r1, #1	; 0x1
    b788:	e4c03001 	strb	r3, [r0], #1
    b78c:	1a002ddf 	bne	b784 <bzero+0xc>
    b790:	e1a0f00e 	mov	pc, lr

0000b794 <mempcpy>:
    b794:	e3520000 	cmp	r2, #0	; 0x0
    b798:	01a0f00e 	moveq	pc, lr
    b79c:	e4d13001 	ldrb	r3, [r1], #1
    b7a0:	e2522001 	subs	r2, r2, #1	; 0x1
    b7a4:	e4c03001 	strb	r3, [r0], #1
    b7a8:	1a002de5 	bne	b79c <mempcpy+0x8>
    b7ac:	e1a0f00e 	mov	pc, lr

0000b7b0 <strndup>:
    b7b0:	e1a0c00d 	mov	ip, sp
    b7b4:	e92dd870 	stmdb	sp!, {r4, r5, r6, fp, ip, lr, pc}
    b7b8:	e24cb004 	sub	fp, ip, #4	; 0x4
    b7bc:	e1a04000 	mov	r4, r0
    b7c0:	ebfffffe 	bl	0 <_start>
    b7c4:	e1a06000 	mov	r6, r0
    b7c8:	e2860001 	add	r0, r6, #1	; 0x1
    b7cc:	ebfffffe 	bl	0 <_start>
    b7d0:	e1a05000 	mov	r5, r0
    b7d4:	e3550000 	cmp	r5, #0	; 0x0
    b7d8:	e1a01004 	mov	r1, r4
    b7dc:	e1a02006 	mov	r2, r6
    b7e0:	0a002dfa 	beq	b7f0 <strndup+0x40>
    b7e4:	ebfffffe 	bl	0 <_start>
    b7e8:	e3a03000 	mov	r3, #0	; 0x0
    b7ec:	e7c53006 	strb	r3, [r5, r6]
    b7f0:	e1a00005 	mov	r0, r5
    b7f4:	e91ba870 	ldmdb	fp, {r4, r5, r6, fp, sp, pc}

0000b7f8 <raise>:
    b7f8:	e1a0c00d 	mov	ip, sp
    b7fc:	e92dd810 	stmdb	sp!, {r4, fp, ip, lr, pc}
    b800:	e1a04000 	mov	r4, r0
    b804:	e24cb004 	sub	fp, ip, #4	; 0x4
    b808:	ebfffffe 	bl	0 <_start>
    b80c:	e1a01004 	mov	r1, r4
    b810:	e91b6810 	ldmdb	fp, {r4, fp, sp, lr}
    b814:	eafffffe 	b	0 <_start>

0000b818 <__xstat_conv>:
    b818:	e1d030b0 	ldrh	r3, [r0]
    b81c:	e92d0070 	stmdb	sp!, {r4, r5, r6}
    b820:	e3a04000 	mov	r4, #0	; 0x0
    b824:	e8810018 	stmia	r1, {r3, r4}
    b828:	e5902004 	ldr	r2, [r0, #4]
    b82c:	e581200c 	str	r2, [r1, #12]
    b830:	e1d030b8 	ldrh	r3, [r0, #8]
    b834:	e5813010 	str	r3, [r1, #16]
    b838:	e1d020ba 	ldrh	r2, [r0, #10]
    b83c:	e5812014 	str	r2, [r1, #20]
    b840:	e1d030bc 	ldrh	r3, [r0, #12]
    b844:	e5813018 	str	r3, [r1, #24]
    b848:	e1d020be 	ldrh	r2, [r0, #14]
    b84c:	e581201c 	str	r2, [r1, #28]
    b850:	e1d051b0 	ldrh	r5, [r0, #16]
    b854:	e2812020 	add	r2, r1, #32	; 0x20
    b858:	e3a06000 	mov	r6, #0	; 0x0
    b85c:	e8820060 	stmia	r2, {r5, r6}
    b860:	e5903014 	ldr	r3, [r0, #20]
    b864:	e581302c 	str	r3, [r1, #44]
    b868:	e5902018 	ldr	r2, [r0, #24]
    b86c:	e5812030 	str	r2, [r1, #48]
    b870:	e590301c 	ldr	r3, [r0, #28]
    b874:	e5813034 	str	r3, [r1, #52]
    b878:	e5902020 	ldr	r2, [r0, #32]
    b87c:	e5812038 	str	r2, [r1, #56]
    b880:	e5903028 	ldr	r3, [r0, #40]
    b884:	e5813040 	str	r3, [r1, #64]
    b888:	e5902030 	ldr	r2, [r0, #48]
    b88c:	e5812048 	str	r2, [r1, #72]
    b890:	e8bd0070 	ldmia	sp!, {r4, r5, r6}
    b894:	e1a0f00e 	mov	pc, lr

0000b898 <__xstat64_conv>:
    b898:	e1d030b0 	ldrh	r3, [r0]
    b89c:	e92d01f0 	stmdb	sp!, {r4, r5, r6, r7, r8}
    b8a0:	e3a04000 	mov	r4, #0	; 0x0
    b8a4:	e8810018 	stmia	r1, {r3, r4}
    b8a8:	e2803058 	add	r3, r0, #88	; 0x58
    b8ac:	e8930180 	ldmia	r3, {r7, r8}
    b8b0:	e281c058 	add	ip, r1, #88	; 0x58
    b8b4:	e88c0180 	stmia	ip, {r7, r8}
    b8b8:	e590200c 	ldr	r2, [r0, #12]
    b8bc:	e581200c 	str	r2, [r1, #12]
    b8c0:	e5903010 	ldr	r3, [r0, #16]
    b8c4:	e5813010 	str	r3, [r1, #16]
    b8c8:	e5902014 	ldr	r2, [r0, #20]
    b8cc:	e5812014 	str	r2, [r1, #20]
    b8d0:	e5903018 	ldr	r3, [r0, #24]
    b8d4:	e5813018 	str	r3, [r1, #24]
    b8d8:	e590201c 	ldr	r2, [r0, #28]
    b8dc:	e581201c 	str	r2, [r1, #28]
    b8e0:	e1d052b0 	ldrh	r5, [r0, #32]
    b8e4:	e2813020 	add	r3, r1, #32	; 0x20
    b8e8:	e3a06000 	mov	r6, #0	; 0x0
    b8ec:	e8830060 	stmia	r3, {r5, r6}
    b8f0:	e280302c 	add	r3, r0, #44	; 0x2c
    b8f4:	e8930030 	ldmia	r3, {r4, r5}
    b8f8:	e281c02c 	add	ip, r1, #44	; 0x2c
    b8fc:	e88c0030 	stmia	ip, {r4, r5}
    b900:	e5902034 	ldr	r2, [r0, #52]
    b904:	e5812034 	str	r2, [r1, #52]
    b908:	e5903038 	ldr	r3, [r0, #56]
    b90c:	e2812038 	add	r2, r1, #56	; 0x38
    b910:	e3a04000 	mov	r4, #0	; 0x0
    b914:	e8820018 	stmia	r2, {r3, r4}
    b918:	e590c040 	ldr	ip, [r0, #64]
    b91c:	e581c040 	str	ip, [r1, #64]
    b920:	e5903048 	ldr	r3, [r0, #72]
    b924:	e5813048 	str	r3, [r1, #72]
    b928:	e5902050 	ldr	r2, [r0, #80]
    b92c:	e5812050 	str	r2, [r1, #80]
    b930:	e8bd01f0 	ldmia	sp!, {r4, r5, r6, r7, r8}
    b934:	e1a0f00e 	mov	pc, lr

0000b938 <__libc_nanosleep>:
    b938:	e1a0c00d 	mov	ip, sp
    b93c:	e92dd810 	stmdb	sp!, {r4, fp, ip, lr, pc}
    b940:	e24cb004 	sub	fp, ip, #4	; 0x4
    b944:	ef9000a2 	swi	0x009000a2
    b948:	e1a04000 	mov	r4, r0
    b94c:	e3740a01 	cmn	r4, #4096	; 0x1000
    b950:	9a002e57 	bls	b964 <__libc_nanosleep+0x2c>
    b954:	ebfffffe 	bl	0 <_start>
    b958:	e2643000 	rsb	r3, r4, #0	; 0x0
    b95c:	e5803000 	str	r3, [r0]
    b960:	e3e04000 	mvn	r4, #0	; 0x0
    b964:	e1a00004 	mov	r0, r4
    b968:	e91ba810 	ldmdb	fp, {r4, fp, sp, pc}

0000b96c <execvep>:
    b96c:	e1a0c00d 	mov	ip, sp
    b970:	e92ddff0 	stmdb	sp!, {r4, r5, r6, r7, r8, r9, sl, fp, ip, lr, pc}
    b974:	e24cb004 	sub	fp, ip, #4	; 0x4
    b978:	e24b3a01 	sub	r3, fp, #4096	; 0x1000
    b97c:	e24dda01 	sub	sp, sp, #4096	; 0x1000
    b980:	e24dd004 	sub	sp, sp, #4	; 0x4
    b984:	e503102c 	str	r1, [r3, -#44]
    b988:	e3a0102f 	mov	r1, #47	; 0x2f
    b98c:	e1a09002 	mov	r9, r2
    b990:	e1a0a000 	mov	sl, r0
    b994:	ebfffffe 	bl	0 <_start>
    b998:	e3500000 	cmp	r0, #0	; 0x0
    b99c:	0a002e6c 	beq	b9b8 <execvep+0x4c>
    b9a0:	e24b3a01 	sub	r3, fp, #4096	; 0x1000
    b9a4:	e1a0000a 	mov	r0, sl
    b9a8:	e513102c 	ldr	r1, [r3, -#44]
    b9ac:	e1a02009 	mov	r2, r9
    b9b0:	ebfffffe 	bl	0 <_start>
    b9b4:	e91baff0 	ldmdb	fp, {r4, r5, r6, r7, r8, r9, sl, fp, sp, pc}
    b9b8:	e59f00ec 	ldr	r0, [pc, #ec]	; baac <execvep+0x140>
    b9bc:	ebfffffe 	bl	0 <_start>
    b9c0:	e59f30e8 	ldr	r3, [pc, #e8]	; bab0 <execvep+0x144>
    b9c4:	e1a05000 	mov	r5, r0
    b9c8:	e3550000 	cmp	r5, #0	; 0x0
    b9cc:	01a05003 	moveq	r5, r3
    b9d0:	e3550000 	cmp	r5, #0	; 0x0
    b9d4:	0a002ea3 	beq	ba94 <execvep+0x128>
    b9d8:	e5d53000 	ldrb	r3, [r5]
    b9dc:	e3530000 	cmp	r3, #0	; 0x0
    b9e0:	0a002ea3 	beq	ba94 <execvep+0x128>
    b9e4:	e24b7a01 	sub	r7, fp, #4096	; 0x1000
    b9e8:	e2477028 	sub	r7, r7, #40	; 0x28
    b9ec:	e1a08007 	mov	r8, r7
    b9f0:	e1a00005 	mov	r0, r5
    b9f4:	e3a0103a 	mov	r1, #58	; 0x3a
    b9f8:	ebfffffe 	bl	0 <_start>
    b9fc:	e1a06000 	mov	r6, r0
    ba00:	e3560000 	cmp	r6, #0	; 0x0
    ba04:	0a002ea5 	beq	ba9c <execvep+0x130>
    ba08:	e0654006 	rsb	r4, r5, r6
    ba0c:	e1a01005 	mov	r1, r5
    ba10:	e1a00008 	mov	r0, r8
    ba14:	e1a02004 	mov	r2, r4
    ba18:	ebfffffe 	bl	0 <_start>
    ba1c:	e3a03000 	mov	r3, #0	; 0x0
    ba20:	e7c83004 	strb	r3, [r8, r4]
    ba24:	e1a00008 	mov	r0, r8
    ba28:	ebfffffe 	bl	0 <_start>
    ba2c:	e3500000 	cmp	r0, #0	; 0x0
    ba30:	0a002e8e 	beq	ba40 <execvep+0xd4>
    ba34:	e1a00007 	mov	r0, r7
    ba38:	e59f1074 	ldr	r1, [pc, #74]	; bab4 <execvep+0x148>
    ba3c:	ebfffffe 	bl	0 <_start>
    ba40:	e1a0100a 	mov	r1, sl
    ba44:	e1a00007 	mov	r0, r7
    ba48:	ebfffffe 	bl	0 <_start>
    ba4c:	e24b3a01 	sub	r3, fp, #4096	; 0x1000
    ba50:	e513102c 	ldr	r1, [r3, -#44]
    ba54:	e1a02009 	mov	r2, r9
    ba58:	e1a00007 	mov	r0, r7
    ba5c:	ebfffffe 	bl	0 <_start>
    ba60:	ebfffffe 	bl	0 <_start>
    ba64:	e5903000 	ldr	r3, [r0]
    ba68:	e3530002 	cmp	r3, #2	; 0x2
    ba6c:	13e00000 	mvnne	r0, #0	; 0x0
    ba70:	191baff0 	ldmnedb	fp, {r4, r5, r6, r7, r8, r9, sl, fp, sp, pc}
    ba74:	e3560000 	cmp	r6, #0	; 0x0
    ba78:	12865001 	addne	r5, r6, #1	; 0x1
    ba7c:	01a05006 	moveq	r5, r6
    ba80:	e3550000 	cmp	r5, #0	; 0x0
    ba84:	0a002ea3 	beq	ba94 <execvep+0x128>
    ba88:	e5d53000 	ldrb	r3, [r5]
    ba8c:	e3530000 	cmp	r3, #0	; 0x0
    ba90:	1a002e7a 	bne	b9f0 <execvep+0x84>
    ba94:	e3e00000 	mvn	r0, #0	; 0x0
    ba98:	e91baff0 	ldmdb	fp, {r4, r5, r6, r7, r8, r9, sl, fp, sp, pc}
    ba9c:	e1a01005 	mov	r1, r5
    baa0:	e1a00007 	mov	r0, r7
    baa4:	ebfffffe 	bl	0 <_start>
    baa8:	ea002e87 	b	ba24 <execvep+0xb8>
    baac:	0000171c 	andeq	r1, r0, ip, lsl r7
    bab0:	00001724 	andeq	r1, r0, r4, lsr #14
    bab4:	00001734 	andeq	r1, r0, r4, lsr r7

0000bab8 <execve>:
    bab8:	e1a0c00d 	mov	ip, sp
    babc:	e92dd810 	stmdb	sp!, {r4, fp, ip, lr, pc}
    bac0:	e24cb004 	sub	fp, ip, #4	; 0x4
    bac4:	ef90000b 	swi	0x0090000b
    bac8:	e1a04000 	mov	r4, r0
    bacc:	e3740a01 	cmn	r4, #4096	; 0x1000
    bad0:	9a002eb7 	bls	bae4 <execve+0x2c>
    bad4:	ebfffffe 	bl	0 <_start>
    bad8:	e2643000 	rsb	r3, r4, #0	; 0x0
    badc:	e5803000 	str	r3, [r0]
    bae0:	e3e04000 	mvn	r4, #0	; 0x0
    bae4:	e1a00004 	mov	r0, r4
    bae8:	e91ba810 	ldmdb	fp, {r4, fp, sp, pc}
    baec:	00000000 	andeq	r0, r0, r0
Disassembly of section .data:

0000baf0 <__data_start>:
    baf0:	ffffffff 	swinv	0x00ffffff
    baf4:	6e69616d 	powvsez	f6, f1, #5.0
    baf8:	0000000a 	andeq	r0, r0, sl
    bafc:	0000632d 	andeq	r6, r0, sp, lsr #6
    bb00:	0000742d 	andeq	r7, r0, sp, lsr #8
    bb04:	7361530a 	cmnvc	r1, #671088640	; 0x28000000
    bb08:	6f632068 	swivs	0x00632068
    bb0c:	6e616d6d 	cdpvs	13, 6, cr6, cr1, cr13, {3}
    bb10:	68732064 	ldmvsda	r3!, {r2, r5, r6, sp}^
    bb14:	206c6c65 	rsbcs	r6, ip, r5, ror #24
    bb18:	72657628 	rsbvc	r7, r5, #41943040	; 0x2800000
    bb1c:	6e6f6973 	mcrvs	9, 3, r6, cr15, cr3, {3}
    bb20:	29732520 	ldmcsdb	r3!, {r5, r8, sl, sp}^
    bb24:	0000000a 	andeq	r0, r0, sl
    bb28:	48544150 	ldmmida	r4, {r4, r6, r8, lr}^
    bb2c:	00000000 	andeq	r0, r0, r0
    bb30:	64616572 	strvsbt	r6, [r1], -#1394
    bb34:	656c6966 	strvsb	r6, [ip, -#2406]!
    bb38:	0000000a 	andeq	r0, r0, sl
    bb3c:	48544150 	ldmmida	r4, {r4, r6, r8, lr}^
    bb40:	69622f3d 	stmvsdb	r2!, {r0, r2, r3, r4, r5, r8, r9, sl, fp, sp}^
    bb44:	752f3a6e 	strvc	r3, [pc, #fffff592]!	; b0de <_ppfs_setargs+0x12>
    bb48:	622f7273 	eorvs	r7, pc, #805306375	; 0x30000007
    bb4c:	2f3a6e69 	swics	0x003a6e69
    bb50:	00637465 	rsbeq	r7, r3, r5, ror #8
    bb54:	6c656853 	stcvsl	8, cr6, [r5], -#332
    bb58:	6e69206c 	cdpvs	0, 6, cr2, cr9, cr12, {3}
    bb5c:	656b6f76 	strvsb	r6, [fp, -#3958]!
    bb60:	6f742064 	swivs	0x00742064
    bb64:	6e757220 	cdpvs	2, 7, cr7, cr5, cr0, {1}
    bb68:	6c696620 	stcvsl	6, cr6, [r9], -#128
    bb6c:	25203a65 	strcs	r3, [r0, -#2661]!
    bb70:	00000a73 	andeq	r0, r0, r3, ror sl
    bb74:	00000020 	andeq	r0, r0, r0, lsr #32
    bb78:	206f6f54 	rsbcs	r6, pc, r4, asr pc
    bb7c:	796e616d 	stmvcdb	lr!, {r0, r2, r3, r5, r6, r8, sp, lr}^
    bb80:	756f7320 	strvcb	r7, [pc, #fffffce0]!	; b868 <__xstat_conv+0x50>
    bb84:	20656372 	rsbcs	r6, r5, r2, ror r3
    bb88:	656c6966 	strvsb	r6, [ip, -#2406]!
    bb8c:	00000a73 	andeq	r0, r0, r3, ror sl
    bb90:	00000072 	andeq	r0, r0, r2, ror r0
    bb94:	6d6d6f43 	stcvsl	15, cr6, [sp, -#268]!
    bb98:	3a646e61 	bcc	1927524 <__bss_end__+0x1918b1c>
    bb9c:	0a732520 	beq	1cd5024 <__bss_end__+0x1cc661c>
    bba0:	00000000 	andeq	r0, r0, r0
    bba4:	64616552 	strvsbt	r6, [r1], -#1362
    bba8:	20676e69 	rsbcs	r6, r7, r9, ror #28
    bbac:	6d6d6f63 	stcvsl	15, cr6, [sp, -#396]!
    bbb0:	20646e61 	rsbcs	r6, r4, r1, ror #28
    bbb4:	656e696c 	strvsb	r6, [lr, -#2412]!
    bbb8:	00000000 	andeq	r0, r0, r0
    bbbc:	63657845 	cmnvs	r5, #4521984	; 0x450000
    bbc0:	6f697475 	swivs	0x00697475
    bbc4:	6946206e 	stmvsdb	r6, {r1, r2, r3, r5, r6, sp}^
    bbc8:	6873696e 	ldmvsda	r3!, {r1, r2, r3, r5, r6, r8, fp, sp, lr}^
    bbcc:	202c6465 	eorcs	r6, ip, r5, ror #8
    bbd0:	74697845 	strvcbt	r7, [r9], -#2117
    bbd4:	0a676e69 	beq	19e7580 <__bss_end__+0x19d8b78>
    bbd8:	00000000 	andeq	r0, r0, r0
    bbdc:	0000002f 	andeq	r0, r0, pc, lsr #32
    bbe0:	67617375 	undefined
    bbe4:	25203a65 	strcs	r3, [r0, -#2661]!
    bbe8:	73252073 	teqvc	r5, #115	; 0x73
    bbec:	0000000a 	andeq	r0, r0, sl
    bbf0:	206f6f54 	rsbcs	r6, pc, r4, asr pc
    bbf4:	796e616d 	stmvcdb	lr!, {r0, r2, r3, r5, r6, r8, sp, lr}^
    bbf8:	67726120 	ldrvsb	r6, [r2, -r0, lsr #2]!
    bbfc:	6e656d75 	mcrvs	13, 3, r6, cr5, cr5, {3}
    bc00:	000a7374 	andeq	r7, sl, r4, ror r3
    bc04:	726f6676 	rsbvc	r6, pc, #123731968	; 0x7600000
    bc08:	6166206b 	cmnvs	r6, fp, rrx
    bc0c:	64656c69 	strvsbt	r6, [r5], -#3177
    bc10:	00000000 	andeq	r0, r0, r0
    bc14:	5d64255b 	stcpll	5, cr2, [r4, -#364]!
    bc18:	0000000a 	andeq	r0, r0, sl
    bc1c:	25206873 	strcs	r6, [r0, -#2163]!
    bc20:	63203a64 	teqvs	r0, #409600	; 0x64000
    bc24:	646c6968 	strvsbt	r6, [ip], -#2408
    bc28:	20642520 	rsbcs	r2, r4, r0, lsr #10
    bc2c:	64656964 	strvsbt	r6, [r5], -#2404
    bc30:	0000000a 	andeq	r0, r0, sl
    bc34:	20646970 	rsbcs	r6, r4, r0, ror r9
    bc38:	203a6425 	eorcss	r6, sl, r5, lsr #8
    bc3c:	6c696166 	stfvse	f6, [r9], -#408
    bc40:	25206465 	strcs	r6, [r0, -#1125]!
    bc44:	00000a64 	andeq	r0, r0, r4, ror #20
    bc48:	20646142 	rsbcs	r6, r4, r2, asr #2
    bc4c:	6d6d6f63 	stcvsl	15, cr6, [sp, -#396]!
    bc50:	20646e61 	rsbcs	r6, r4, r1, ror #28
    bc54:	6620726f 	strvst	r7, [r0], -pc, ror #4
    bc58:	20656c69 	rsbcs	r6, r5, r9, ror #24
    bc5c:	656d616e 	strvsb	r6, [sp, -#366]!
    bc60:	00000000 	andeq	r0, r0, r0
    bc64:	203a7325 	eorcss	r7, sl, r5, lsr #6
    bc68:	000a7325 	andeq	r7, sl, r5, lsr #6
    bc6c:	30312d25 	eorccs	r2, r1, r5, lsr #26
    bc70:	73252073 	teqvc	r5, #115	; 0x73
    bc74:	0000000a 	andeq	r0, r0, sl
    bc78:	000a6425 	andeq	r6, sl, r5, lsr #8
    bc7c:	203e7325 	eorcss	r7, lr, r5, lsr #6
    bc80:	00000000 	andeq	r0, r0, r0
    bc84:	0000000a 	andeq	r0, r0, sl
    bc88:	25206873 	strcs	r6, [r0, -#2163]!
    bc8c:	43203a64 	teqmi	r0, #409600	; 0x64000
    bc90:	646c6968 	strvsbt	r6, [ip], -#2408
    bc94:	20642520 	rsbcs	r2, r4, r0, lsr #10
    bc98:	64656964 	strvsbt	r6, [r5], -#2404
    bc9c:	0000000a 	andeq	r0, r0, sl
    bca0:	25206873 	strcs	r6, [r0, -#2163]!
    bca4:	43203a64 	teqmi	r0, #409600	; 0x64000
    bca8:	646c6968 	strvsbt	r6, [ip], -#2408
    bcac:	20642520 	rsbcs	r2, r4, r0, lsr #10
    bcb0:	706f7473 	rsbvc	r7, pc, r3, ror r4
    bcb4:	0a646570 	beq	192527c <__bss_end__+0x1916874>
    bcb8:	00000000 	andeq	r0, r0, r0
    bcbc:	6e6e6143 	powvsem	f6, f6, f3
    bcc0:	6720746f 	strvs	r7, [r0, -pc, ror #8]!
    bcc4:	63207465 	teqvs	r0, #1694498816	; 0x65000000
    bcc8:	65727275 	ldrvsb	r7, [r2, -#629]!
    bccc:	6420746e 	strvst	r7, [r0], -#1134
    bcd0:	63657269 	cmnvs	r5, #-1879048186	; 0x90000006
    bcd4:	79726f74 	ldmvcdb	r2!, {r2, r4, r5, r6, r8, r9, sl, fp, sp, lr}^
    bcd8:	0000000a 	andeq	r0, r0, sl
    bcdc:	000a7325 	andeq	r7, sl, r5, lsr #6
    bce0:	656d6954 	strvsb	r6, [sp, -#2388]!
    bce4:	20666f20 	rsbcs	r6, r6, r0, lsr #30
    bce8:	20796164 	rsbcss	r6, r9, r4, ror #2
    bcec:	6425203d 	strvst	r2, [r5], -#61
    bcf0:	2e36252e 	cdpcs	5, 3, cr2, cr6, cr14, {1}
    bcf4:	73206436 	teqvc	r0, #905969664	; 0x36000000
    bcf8:	6e6f6365 	cdpvs	3, 6, cr6, cr15, cr5, {3}
    bcfc:	000a7364 	andeq	r7, sl, r4, ror #6
    bd00:	454d4f48 	strmib	r4, [sp, -#3912]
    bd04:	00000000 	andeq	r0, r0, r0
    bd08:	48206f4e 	stmmida	r0!, {r1, r2, r3, r6, r8, r9, sl, fp, sp, lr}
    bd0c:	20454d4f 	subcs	r4, r5, pc, asr #26
    bd10:	69766e65 	ldmvsdb	r6!, {r0, r2, r5, r6, r9, sl, fp, sp, lr}^
    bd14:	6d6e6f72 	stcvsl	15, cr6, [lr, -#456]!
    bd18:	20746e65 	rsbcss	r6, r4, r5, ror #28
    bd1c:	69726176 	ldmvsdb	r2!, {r1, r2, r4, r5, r6, r8, sp, lr}^
    bd20:	656c6261 	strvsb	r6, [ip, -#609]!
    bd24:	0000000a 	andeq	r0, r0, sl
    bd28:	00000062 	andeq	r0, r0, r2, rrx
    bd2c:	00000063 	andeq	r0, r0, r3, rrx
    bd30:	20646142 	rsbcs	r6, r4, r2, asr #2
    bd34:	69766564 	ldmvsdb	r6!, {r2, r5, r6, r8, sl, sp, lr}^
    bd38:	74206563 	strvct	r6, [r0], -#1379
    bd3c:	0a657079 	beq	1967f28 <__bss_end__+0x1959520>
    bd40:	00000000 	andeq	r0, r0, r0
    bd44:	20646142 	rsbcs	r6, r4, r2, asr #2
    bd48:	6f6a616d 	swivs	0x006a616d
    bd4c:	756e2072 	strvcb	r2, [lr, -#114]!
    bd50:	7265626d 	rsbvc	r6, r5, #-805306362	; 0xd0000006
    bd54:	0000000a 	andeq	r0, r0, sl
    bd58:	20646142 	rsbcs	r6, r4, r2, asr #2
    bd5c:	6f6e696d 	swivs	0x006e696d
    bd60:	756e2072 	strvcb	r2, [lr, -#114]!
    bd64:	7265626d 	rsbvc	r6, r5, #-805306362	; 0xd0000006
    bd68:	0000000a 	andeq	r0, r0, sl
    bd6c:	65646f4d 	strvsb	r6, [r4, -#3917]!
    bd70:	73756d20 	cmnvc	r5, #2048	; 0x800
    bd74:	65622074 	strvsb	r2, [r2, -#116]!
    bd78:	74636f20 	strvcbt	r6, [r3], -#3872
    bd7c:	000a6c61 	andeq	r6, sl, r1, ror #24
    bd80:	20646142 	rsbcs	r6, r4, r2, asr #2
    bd84:	20646975 	rsbcs	r6, r4, r5, ror r9
    bd88:	756c6176 	strvcb	r6, [ip, -#374]!
    bd8c:	00000a65 	andeq	r0, r0, r5, ror #20
    bd90:	6e6b6e55 	mcrvs	14, 3, r6, cr11, cr5, {2}
    bd94:	206e776f 	rsbcs	r7, lr, pc, ror #14
    bd98:	72657375 	rsbvc	r7, r5, #-738197503	; 0xd4000001
    bd9c:	6d616e20 	stcvsl	14, cr6, [r1, -#128]!
    bda0:	00000a65 	andeq	r0, r0, r5, ror #20
    bda4:	20646142 	rsbcs	r6, r4, r2, asr #2
    bda8:	20646967 	rsbcs	r6, r4, r7, ror #18
    bdac:	756c6176 	strvcb	r6, [ip, -#374]!
    bdb0:	00000a65 	andeq	r0, r0, r5, ror #20
    bdb4:	6e6b6e55 	mcrvs	14, 3, r6, cr11, cr5, {2}
    bdb8:	206e776f 	rsbcs	r7, lr, pc, ror #14
    bdbc:	756f7267 	strvcb	r7, [pc, #fffffd99]!	; bb5d <__data_start+0x6d>
    bdc0:	616e2070 	cmnvs	lr, r0, ror r0
    bdc4:	000a656d 	andeq	r6, sl, sp, ror #10
    bdc8:	203a7325 	eorcss	r7, sl, r5, lsr #6
    bdcc:	20746f6e 	rsbcss	r6, r4, lr, ror #30
    bdd0:	69642061 	stmvsdb	r4!, {r0, r5, r6, sp}^
    bdd4:	74636572 	strvcbt	r6, [r3], -#1394
    bdd8:	0a79726f 	beq	1e6879c <__bss_end__+0x1e59d94>
    bddc:	00000000 	andeq	r0, r0, r0
    bde0:	0000732d 	andeq	r7, r0, sp, lsr #6
    bde4:	6e6b6e55 	mcrvs	14, 3, r6, cr11, cr5, {2}
    bde8:	206e776f 	rsbcs	r7, lr, pc, ror #14
    bdec:	6974706f 	ldmvsdb	r4!, {r0, r1, r2, r3, r5, r6, ip, sp, lr}^
    bdf0:	000a6e6f 	andeq	r6, sl, pc, ror #28
    bdf4:	6e6f7257 	mcrvs	2, 3, r7, cr15, cr7, {2}
    bdf8:	756e2067 	strvcb	r2, [lr, -#103]!
    bdfc:	7265626d 	rsbvc	r6, r5, #-805306362	; 0xd0000006
    be00:	20666f20 	rsbcs	r6, r6, r0, lsr #30
    be04:	75677261 	strvcb	r7, [r7, -#609]!
    be08:	746e656d 	strvcbt	r6, [lr], -#1389
    be0c:	6f662073 	swivs	0x00662073
    be10:	79732072 	ldmvcdb	r3!, {r1, r4, r5, r6, sp}^
    be14:	6c6f626d 	sfmvs	f6, 2, [pc], -#436
    be18:	6c206369 	stcvs	3, cr6, [r0], -#420
    be1c:	0a6b6e69 	beq	1ae77c8 <__bss_end__+0x1ad8dc0>
    be20:	00000000 	andeq	r0, r0, r0
    be24:	696e696d 	stmvsdb	lr!, {r0, r2, r3, r5, r6, r8, fp, sp, lr}^
    be28:	00000078 	andeq	r0, r0, r8, ror r0
    be2c:	6e6f7257 	mcrvs	2, 3, r7, cr15, cr7, {2}
    be30:	756e2067 	strvcb	r2, [lr, -#103]!
    be34:	7265626d 	rsbvc	r6, r5, #-805306362	; 0xd0000006
    be38:	20666f20 	rsbcs	r6, r6, r0, lsr #30
    be3c:	75677261 	strvcb	r7, [r7, -#609]!
    be40:	746e656d 	strvcbt	r6, [lr], -#1389
    be44:	6f662073 	swivs	0x00662073
    be48:	6f6d2072 	swivs	0x006d2072
    be4c:	0a746e75 	beq	1d27828 <__bss_end__+0x1d18e20>
    be50:	00000000 	andeq	r0, r0, r0
    be54:	6e756f6d 	cdpvs	15, 7, cr6, cr5, cr13, {3}
    be58:	61662074 	cmnvs	r6, r4, ror r0
    be5c:	64656c69 	strvsbt	r6, [r5], -#3177
    be60:	00000000 	andeq	r0, r0, r0
    be64:	7373694d 	cmnvc	r3, #1261568	; 0x134000
    be68:	20676e69 	rsbcs	r6, r7, r9, ror #28
    be6c:	656c6966 	strvsb	r6, [ip, -#2406]!
    be70:	73797320 	cmnvc	r9, #-2147483648	; 0x80000000
    be74:	206d6574 	rsbcs	r6, sp, r4, ror r5
    be78:	65707974 	ldrvsb	r7, [r0, -#2420]!
    be7c:	0000000a 	andeq	r0, r0, sl
    be80:	656c6946 	strvsb	r6, [ip, -#2374]!
    be84:	72612073 	rsbvc	r2, r1, #115	; 0x73
    be88:	69642065 	stmvsdb	r4!, {r0, r2, r5, r6, sp}^
    be8c:	72656666 	rsbvc	r6, r5, #106954752	; 0x6600000
    be90:	20746e65 	rsbcss	r6, r4, r5, ror #28
    be94:	657a6973 	ldrvsb	r6, [sl, -#2419]!
    be98:	00000a73 	andeq	r0, r0, r3, ror sl
    be9c:	656c6946 	strvsb	r6, [ip, -#2374]!
    bea0:	72612073 	rsbvc	r2, r1, #115	; 0x73
    bea4:	64692065 	strvsbt	r2, [r9], -#101
    bea8:	69746e65 	ldmvsdb	r4!, {r0, r2, r5, r6, r9, sl, fp, sp, lr}^
    beac:	0a6c6163 	beq	1b24440 <__bss_end__+0x1b15a38>
    beb0:	00000000 	andeq	r0, r0, r0
    beb4:	656c6946 	strvsb	r6, [ip, -#2374]!
    beb8:	69642073 	stmvsdb	r4!, {r0, r1, r4, r5, r6, sp}^
    bebc:	72656666 	rsbvc	r6, r5, #106954752	; 0x6600000
    bec0:	20746120 	rsbcss	r6, r4, r0, lsr #2
    bec4:	65747962 	ldrvsb	r7, [r4, -#2402]!
    bec8:	736f7020 	cmnvc	pc, #32	; 0x20
    becc:	6f697469 	swivs	0x00697469
    bed0:	6c25206e 	stcvs	0, cr2, [r5], -#440
    bed4:	00000a64 	andeq	r0, r0, r4, ror #20
    bed8:	6f636553 	swivs	0x00636553
    bedc:	6620646e 	strvst	r6, [r0], -lr, ror #8
    bee0:	20656c69 	rsbcs	r6, r5, r9, ror #24
    bee4:	73207369 	teqvc	r0, #-1543503871	; 0xa4000001
    bee8:	74726f68 	ldrvcbt	r6, [r2], -#3944
    beec:	74207265 	strvct	r7, [r0], -#613
    bef0:	206e6168 	rsbcs	r6, lr, r8, ror #2
    bef4:	73726966 	cmnvc	r2, #1671168	; 0x198000
    bef8:	00000a74 	andeq	r0, r0, r4, ror sl
    befc:	73726946 	cmnvc	r2, #1146880	; 0x118000
    bf00:	69662074 	stmvsdb	r6!, {r2, r4, r5, r6, sp}^
    bf04:	6920656c 	stmvsdb	r0!, {r2, r3, r5, r6, r8, sl, sp, lr}
    bf08:	68732073 	ldmvsda	r3!, {r0, r1, r4, r5, r6, sp}^
    bf0c:	6574726f 	ldrvsb	r7, [r4, -#623]!
    bf10:	68742072 	ldmvsda	r4!, {r1, r4, r5, r6, sp}^
    bf14:	73206e61 	teqvc	r0, #1552	; 0x610
    bf18:	6e6f6365 	cdpvs	3, 6, cr6, cr15, cr5, {3}
    bf1c:	00000a64 	andeq	r0, r0, r4, ror #20
    bf20:	656c6946 	strvsb	r6, [ip, -#2374]!
    bf24:	72612073 	rsbvc	r2, r1, #115	; 0x73
    bf28:	696c2065 	stmvsdb	ip!, {r0, r2, r5, r6, sp}^
    bf2c:	20736b6e 	rsbcss	r6, r3, lr, ror #22
    bf30:	65206f74 	strvs	r6, [r0, -#3956]!
    bf34:	20686361 	rsbcs	r6, r8, r1, ror #6
    bf38:	6568746f 	strvsb	r7, [r8, -#1135]!
    bf3c:	00000a72 	andeq	r0, r0, r2, ror sl
    bf40:	00000072 	andeq	r0, r0, r2, ror r0
    bf44:	25203c3c 	strcs	r3, [r0, -#3132]!
    bf48:	3e3e2073 	mrccc	0, 1, r2, cr14, cr3, {3}
    bf4c:	0000000a 	andeq	r0, r0, sl
    bf50:	6f4d2d2d 	swivs	0x004d2d2d
    bf54:	2d2d6572 	stccs	5, cr6, [sp, -#456]!
    bf58:	00000000 	andeq	r0, r0, r0
    bf5c:	6f333025 	swivs	0x00333025
    bf60:	0000000a 	andeq	r0, r0, sl
    bf64:	20646142 	rsbcs	r6, r4, r2, asr #2
    bf68:	73616d75 	cmnvc	r1, #7488	; 0x1d40
    bf6c:	6176206b 	cmnvs	r6, fp, rrx
    bf70:	0a65756c 	beq	1969528 <__bss_end__+0x195ab20>
    bf74:	00000000 	andeq	r0, r0, r0
    bf78:	2d6e6f4e 	stccsl	15, cr6, [lr, -#312]!
    bf7c:	656d756e 	strvsb	r7, [sp, -#1390]!
    bf80:	20636972 	rsbcs	r6, r3, r2, ror r9
    bf84:	0a646970 	beq	192654c <__bss_end__+0x1917b44>
    bf88:	00000000 	andeq	r0, r0, r0
    bf8c:	00505548 	subeqs	r5, r0, r8, asr #10
    bf90:	00544e49 	subeqs	r4, r4, r9, asr #28
    bf94:	54495551 	strplb	r5, [r9], -#1361
    bf98:	00000000 	andeq	r0, r0, r0
    bf9c:	004c4c49 	subeq	r4, ip, r9, asr #24
    bfa0:	50415254 	subpl	r5, r1, r4, asr r2
    bfa4:	00000000 	andeq	r0, r0, r0
    bfa8:	54524241 	ldrplb	r4, [r2], -#577
    bfac:	00000000 	andeq	r0, r0, r0
    bfb0:	00544f49 	subeqs	r4, r4, r9, asr #30
    bfb4:	00535542 	subeqs	r5, r3, r2, asr #10
    bfb8:	00455046 	subeq	r5, r5, r6, asr #32
    bfbc:	4c4c494b 	mcrrmi	9, 4, r4, ip, cr11
    bfc0:	00000000 	andeq	r0, r0, r0
    bfc4:	31525355 	cmpcc	r2, r5, asr r3
    bfc8:	00000000 	andeq	r0, r0, r0
    bfcc:	56474553 	undefined
    bfd0:	00000000 	andeq	r0, r0, r0
    bfd4:	32525355 	subccs	r5, r2, #1409286145	; 0x54000001
    bfd8:	00000000 	andeq	r0, r0, r0
    bfdc:	45504950 	ldrmib	r4, [r0, -#2384]
    bfe0:	00000000 	andeq	r0, r0, r0
    bfe4:	4d524c41 	ldcmil	12, cr4, [r2, -#260]
    bfe8:	00000000 	andeq	r0, r0, r0
    bfec:	4d524554 	ldcmil	5, cr4, [r2, -#336]
    bff0:	00000000 	andeq	r0, r0, r0
    bff4:	464b5453 	undefined
    bff8:	0000544c 	andeq	r5, r0, ip, asr #8
    bffc:	444c4843 	strmib	r4, [ip], -#2115
    c000:	00000000 	andeq	r0, r0, r0
    c004:	544e4f43 	strplb	r4, [lr], -#3907
    c008:	00000000 	andeq	r0, r0, r0
    c00c:	504f5453 	subpl	r5, pc, r3, asr r4
    c010:	00000000 	andeq	r0, r0, r0
    c014:	50545354 	subpls	r5, r4, r4, asr r3
    c018:	00000000 	andeq	r0, r0, r0
    c01c:	4e495454 	mcrmi	4, 2, r5, cr9, cr4, {2}
    c020:	00000000 	andeq	r0, r0, r0
    c024:	554f5454 	strplb	r5, [pc, #fffffbac]	; bbd8 <__data_start+0xe8>
    c028:	00000000 	andeq	r0, r0, r0
    c02c:	00475255 	subeq	r5, r7, r5, asr r2
    c030:	00525750 	subeqs	r5, r2, r0, asr r7
    c034:	6e6b6e55 	mcrvs	14, 3, r6, cr11, cr5, {2}
    c038:	206e776f 	rsbcs	r7, lr, pc, ror #14
    c03c:	6e676973 	mcrvs	9, 3, r6, cr7, cr3, {3}
    c040:	000a6c61 	andeq	r6, sl, r1, ror #24
    c044:	00000072 	andeq	r0, r0, r2, ror r0
    c048:	6e6e6143 	powvsem	f6, f6, f3
    c04c:	6420746f 	strvst	r7, [r0], -#1135
    c050:	6f63206f 	swivs	0x0063206f
    c054:	6361706d 	cmnvs	r1, #109	; 0x6d
    c058:	696c2074 	stmvsdb	ip!, {r2, r4, r5, r6, sp}^
    c05c:	77207473 	undefined
    c060:	20687469 	rsbcs	r7, r8, r9, ror #8
    c064:	6568746f 	strvsb	r7, [r8, -#1135]!
    c068:	706f2072 	rsbvc	r2, pc, r2, ror r0
    c06c:	6e6f6974 	mcrvs	9, 3, r6, cr15, cr4, {3}
    c070:	00000a73 	andeq	r0, r0, r3, ror sl
    c074:	0000736c 	andeq	r7, r0, ip, ror #6
    c078:	0000002e 	andeq	r0, r0, lr, lsr #32
    c07c:	3a73250a 	bcc	1cd54ac <__bss_end__+0x1cc6aa4>
    c080:	0000000a 	andeq	r0, r0, sl
    c084:	6d206f4e 	stcvs	15, cr6, [r0, -#312]!
    c088:	726f6d65 	rsbvc	r6, pc, #6464	; 0x1940
    c08c:	6f662079 	swivs	0x00662079
    c090:	69662072 	stmvsdb	r6!, {r1, r4, r5, r6, sp}^
    c094:	616e656c 	cmnvs	lr, ip, ror #10
    c098:	0a73656d 	beq	1ce5654 <__bss_end__+0x1cd6c4c>
    c09c:	00000000 	andeq	r0, r0, r0
    c0a0:	6d206f4e 	stcvs	15, cr6, [r0, -#312]!
    c0a4:	726f6d65 	rsbvc	r6, pc, #6464	; 0x1940
    c0a8:	6f662079 	swivs	0x00662079
    c0ac:	736c2072 	cmnvc	ip, #114	; 0x72
    c0b0:	66756220 	ldrvsbt	r6, [r5], -r0, lsr #4
    c0b4:	0a726566 	beq	1ca5654 <__bss_end__+0x1c96c4c>
    c0b8:	00000000 	andeq	r0, r0, r0
    c0bc:	0000002f 	andeq	r0, r0, pc, lsr #32
    c0c0:	6e6b6e55 	mcrvs	14, 3, r6, cr11, cr5, {2}
    c0c4:	206e776f 	rsbcs	r7, lr, pc, ror #14
    c0c8:	6974706f 	ldmvsdb	r4!, {r0, r1, r2, r3, r5, r6, ip, sp, lr}^
    c0cc:	2d206e6f 	stccs	14, cr6, [r0, -#444]!
    c0d0:	000a6325 	andeq	r6, sl, r5, lsr #6
    c0d4:	20643525 	rsbcs	r3, r4, r5, lsr #10
    c0d8:	00000000 	andeq	r0, r0, r0
    c0dc:	20643325 	rsbcs	r3, r4, r5, lsr #6
    c0e0:	00000000 	andeq	r0, r0, r0
    c0e4:	00006425 	andeq	r6, r0, r5, lsr #8
    c0e8:	73382d25 	teqvc	r8, #2368	; 0x940
    c0ec:	00000020 	andeq	r0, r0, r0, lsr #32
    c0f0:	2c643325 	stccsl	3, cr3, [r4], -#148
    c0f4:	64332520 	ldrvst	r2, [r3], -#1312
    c0f8:	00000020 	andeq	r0, r0, r0, lsr #32
    c0fc:	312d2520 	teqcc	sp, r0, lsr #10
    c100:	00207332 	eoreq	r7, r0, r2, lsr r3
    c104:	203e2d20 	eorcss	r2, lr, r0, lsr #26
    c108:	00007325 	andeq	r7, r0, r5, lsr #6
    c10c:	20643825 	rsbcs	r3, r4, r5, lsr #16
	...
    c118:	78256325 	stmvcda	r5!, {r0, r2, r5, r8, r9, sp, lr}
    c11c:	00000000 	andeq	r0, r0, r0
    c120:	00642553 	rsbeq	r2, r4, r3, asr r5
    c124:	00642558 	rsbeq	r2, r4, r8, asr r5
    c128:	49502020 	ldmmidb	r0, {r5, sp}^
    c12c:	4f502044 	swimi	0x00502044
    c130:	53205452 	teqpl	r0, #1375731712	; 0x52000000
    c134:	20544154 	subcss	r4, r4, r4, asr r1
    c138:	5a495320 	bpl	1260dc0 <__bss_end__+0x12523b8>
    c13c:	48532045 	ldmmida	r3, {r0, r2, r6, sp}^
    c140:	44455241 	strmib	r5, [r5], -#577
    c144:	43252520 	teqmi	r5, #134217728	; 0x8000000
    c148:	43205550 	teqmi	r0, #335544320	; 0x14000000
    c14c:	414d4d4f 	cmpmi	sp, pc, asr #26
    c150:	000a444e 	andeq	r4, sl, lr, asr #8
    c154:	6f72702f 	swivs	0x0072702f
    c158:	70752f63 	rsbvcs	r2, r5, r3, ror #30
    c15c:	656d6974 	strvsb	r6, [sp, -#2420]!
    c160:	00000000 	andeq	r0, r0, r0
    c164:	6f72702f 	swivs	0x0072702f
    c168:	00000063 	andeq	r0, r0, r3, rrx
    c16c:	6f72702f 	swivs	0x0072702f
    c170:	73252f63 	teqvc	r5, #396	; 0x18c
    c174:	6174732f 	cmnvs	r4, pc, lsr #6
    c178:	00000074 	andeq	r0, r0, r4, ror r0
    c17c:	6f72702f 	swivs	0x0072702f
    c180:	73252f63 	teqvc	r5, #396	; 0x18c
    c184:	6174732f 	cmnvs	r4, pc, lsr #6
    c188:	00737574 	rsbeqs	r7, r3, r4, ror r5
    c18c:	00000072 	andeq	r0, r0, r2, ror r0
    c190:	3a6d654d 	bcc	1b656cc <__bss_end__+0x1b56cc4>
    c194:	00000000 	andeq	r0, r0, r0
    c198:	72616853 	rsbvc	r6, r1, #5439488	; 0x530000
    c19c:	003a6465 	eoreqs	r6, sl, r5, ror #8
    c1a0:	69536d56 	ldmvsdb	r3, {r1, r2, r4, r6, r8, sl, fp, sp, lr}^
    c1a4:	003a657a 	eoreqs	r6, sl, sl, ror r5
    c1a8:	6f72702f 	swivs	0x0072702f
    c1ac:	73252f63 	teqvc	r5, #396	; 0x18c
    c1b0:	646d632f 	strvsbt	r6, [sp], -#815
    c1b4:	656e696c 	strvsb	r6, [lr, -#2412]!
    c1b8:	00000000 	andeq	r0, r0, r0
    c1bc:	20643525 	rsbcs	r3, r4, r5, lsr #10
    c1c0:	20733425 	rsbcss	r3, r3, r5, lsr #8
    c1c4:	20206325 	eorcs	r6, r0, r5, lsr #6
    c1c8:	34252020 	strcct	r2, [r5], -#32
    c1cc:	204b646c 	subcs	r6, fp, ip, ror #8
    c1d0:	33252020 	teqcc	r5, #32	; 0x20
    c1d4:	204b646c 	subcs	r6, fp, ip, ror #8
    c1d8:	2e753225 	cdpcs	2, 7, cr3, cr5, cr5, {1}
    c1dc:	25207525 	strcs	r7, [r0, -#1317]!
    c1e0:	00000a73 	andeq	r0, r0, r3, ror sl
    c1e4:	62616e55 	rsbvs	r6, r1, #1360	; 0x550
    c1e8:	7420656c 	strvct	r6, [r0], -#1388
    c1ec:	6572206f 	ldrvsb	r2, [r2, -#111]!
    c1f0:	63206461 	teqvs	r0, #1627389952	; 0x61000000
    c1f4:	696c646d 	stmvsdb	ip!, {r0, r2, r3, r5, r6, sl, sp, lr}^
    c1f8:	0000656e 	andeq	r6, r0, lr, ror #10
    c1fc:	62616e55 	rsbvs	r6, r1, #1360	; 0x550
    c200:	7420656c 	strvct	r6, [r0], -#1388
    c204:	706f206f 	rsbvc	r2, pc, pc, rrx
    c208:	63206e65 	teqvs	r0, #1616	; 0x650
    c20c:	696c646d 	stmvsdb	ip!, {r0, r2, r3, r5, r6, sl, sp, lr}^
    c210:	0000656e 	andeq	r6, r0, lr, ror #10
    c214:	62616e55 	rsbvs	r6, r1, #1360	; 0x550
    c218:	7420656c 	strvct	r6, [r0], -#1388
    c21c:	6572206f 	ldrvsb	r2, [r2, -#111]!
    c220:	73206461 	teqvc	r0, #1627389952	; 0x61000000
    c224:	75746174 	ldrvcb	r6, [r4, -#372]!
    c228:	00000073 	andeq	r0, r0, r3, ror r0
    c22c:	62616e55 	rsbvs	r6, r1, #1360	; 0x550
    c230:	7420656c 	strvct	r6, [r0], -#1388
    c234:	6572206f 	ldrvsb	r2, [r2, -#111]!
    c238:	75206461 	strvc	r6, [r0, -#1121]!
    c23c:	6d697470 	stcvsl	4, cr7, [r9, -#448]!
    c240:	00000065 	andeq	r0, r0, r5, rrx
    c244:	62616e55 	rsbvs	r6, r1, #1360	; 0x550
    c248:	7420656c 	strvct	r6, [r0], -#1388
    c24c:	706f206f 	rsbvc	r2, pc, pc, rrx
    c250:	2f206e65 	swics	0x00206e65
    c254:	636f7270 	cmnvs	pc, #7	; 0x7
    c258:	7470752f 	ldrvcbt	r7, [r0], -#1327
    c25c:	0a656d69 	beq	1967808 <__bss_end__+0x1958e00>
    c260:	00000000 	andeq	r0, r0, r0
    c264:	0000732d 	andeq	r7, r0, sp, lsr #6
    c268:	66206f4e 	strvst	r6, [r0], -lr, asr #30
    c26c:	6e656c69 	cdpvs	12, 6, cr6, cr5, cr9, {3}
    c270:	20656d61 	rsbcs	r6, r5, r1, ror #26
    c274:	766f7270 	undefined
    c278:	64656469 	strvsbt	r6, [r5], -#1129
    c27c:	0000000a 	andeq	r0, r0, sl
    c280:	00000072 	andeq	r0, r0, r2, ror r0
    c284:	00202020 	eoreq	r2, r0, r0, lsr #32
    c288:	0020202d 	eoreq	r2, r0, sp, lsr #32
    c28c:	3a583425 	bcc	1619328 <__bss_end__+0x160a920>
    c290:	00000000 	andeq	r0, r0, r0
    c294:	32302520 	eorccs	r2, r0, #134217728	; 0x8000000
    c298:	0058322e 	subeqs	r3, r8, lr, lsr #4
    c29c:	3230252d 	eorccs	r2, r0, #188743680	; 0xb400000
    c2a0:	0058322e 	subeqs	r3, r8, lr, lsr #4
    c2a4:	0a732520 	beq	1cd572c <__bss_end__+0x1cc6d24>
    c2a8:	00000000 	andeq	r0, r0, r0
    c2ac:	6f6d2d2d 	swivs	0x006d2d2d
    c2b0:	2d2d6572 	stccs	5, cr6, [sp, -#456]!
    c2b4:	00000000 	andeq	r0, r0, r0
    c2b8:	6c696146 	stfvse	f6, [r9], -#280
    c2bc:	74206465 	strvct	r6, [r0], -#1125
    c2c0:	706f206f 	rsbvc	r2, pc, pc, rrx
    c2c4:	66206e65 	strvst	r6, [r0], -r5, ror #28
    c2c8:	20656c69 	rsbcs	r6, r5, r9, ror #24
    c2cc:	27732527 	ldrcsb	r2, [r3, -r7, lsr #10]!
    c2d0:	7325203a 	teqvc	r5, #58	; 0x3a
    c2d4:	0000000a 	andeq	r0, r0, sl
    c2d8:	0000002f 	andeq	r0, r0, pc, lsr #32
    c2dc:	61746f54 	cmnvs	r4, r4, asr pc
    c2e0:	624b206c 	subvs	r2, fp, #108	; 0x6c
    c2e4:	73657479 	cmnvc	r5, #2030043136	; 0x79000000
    c2e8:	6c25203a 	stcvs	0, cr2, [r5], -#232
    c2ec:	00000a64 	andeq	r0, r0, r4, ror #20
    c2f0:	65657246 	strvsb	r7, [r5, -#582]!
    c2f4:	624b2020 	subvs	r2, fp, #32	; 0x20
    c2f8:	73657479 	cmnvc	r5, #2030043136	; 0x79000000
    c2fc:	6c25203a 	stcvs	0, cr2, [r5], -#232
    c300:	00000a64 	andeq	r0, r0, r4, ror #20
    c304:	61746f54 	cmnvs	r4, r4, asr pc
    c308:	6e20206c 	cdpvs	0, 2, cr2, cr0, cr12, {3}
    c30c:	7365646f 	cmnvc	r5, #1862270976	; 0x6f000000
    c310:	6c25203a 	stcvs	0, cr2, [r5], -#232
    c314:	00000a64 	andeq	r0, r0, r4, ror #20
    c318:	65657246 	strvsb	r7, [r5, -#582]!
    c31c:	6e202020 	cdpvs	0, 2, cr2, cr0, cr0, {1}
    c320:	7365646f 	cmnvc	r5, #1862270976	; 0x6f000000
    c324:	6c25203a 	stcvs	0, cr2, [r5], -#232
    c328:	00000a64 	andeq	r0, r0, r4, ror #20
    c32c:	62616e55 	rsbvs	r6, r1, #1360	; 0x550
    c330:	7420656c 	strvct	r6, [r0], -#1388
    c334:	6567206f 	strvsb	r2, [r7, -#111]!
    c338:	69642074 	stmvsdb	r4!, {r2, r4, r5, r6, sp}^
    c33c:	73206b73 	teqvc	r0, #117760	; 0x1cc00
    c340:	65636170 	strvsb	r6, [r3, -#368]!
    c344:	20666f20 	rsbcs	r6, r6, r0, lsr #30
    c348:	203a7325 	eorcss	r7, sl, r5, lsr #6
    c34c:	000a7325 	andeq	r7, sl, r5, lsr #6
    c350:	6f72702f 	swivs	0x0072702f
    c354:	656d2f63 	strvsb	r2, [sp, -#3939]!
    c358:	666e696d 	strvsbt	r6, [lr], -sp, ror #18
    c35c:	0000006f 	andeq	r0, r0, pc, rrx
    c360:	00000072 	andeq	r0, r0, r2, ror r0
    c364:	62616e55 	rsbvs	r6, r1, #1360	; 0x550
    c368:	7420656c 	strvct	r6, [r0], -#1388
    c36c:	706f206f 	rsbvc	r2, pc, pc, rrx
    c370:	2f206e65 	swics	0x00206e65
    c374:	636f7270 	cmnvs	pc, #7	; 0x7
    c378:	6d656d2f 	stcvsl	13, cr6, [r5, -#188]!
    c37c:	6f666e69 	swivs	0x00666e69
    c380:	0000203a 	andeq	r2, r0, sl, lsr r0
    c384:	74616854 	strvcbt	r6, [r1], -#2132
    c388:	6d616e20 	stcvsl	14, cr6, [r1, -#128]!
    c38c:	73692065 	cmnvc	r9, #101	; 0x65
    c390:	6f6f7420 	swivs	0x006f7420
    c394:	6e6f6c20 	cdpvs	12, 6, cr6, cr15, cr0, {1}
    c398:	000a2e67 	andeq	r2, sl, r7, ror #28
    c39c:	000a7325 	andeq	r7, sl, r5, lsr #6

0000c3a0 <invalid_date>:
    c3a0:	61766e49 	cmnvs	r6, r9, asr #28
    c3a4:	2064696c 	rsbcs	r6, r4, ip, ror #18
    c3a8:	65746164 	ldrvsb	r6, [r4, -#356]!
    c3ac:	0a732520 	beq	1cd5834 <__bss_end__+0x1cc6e2c>
    c3b0:	00000000 	andeq	r0, r0, r0
    c3b4:	25643225 	strcsb	r3, [r4, -#549]!
    c3b8:	32256432 	eorcc	r6, r5, #838860800	; 0x32000000
    c3bc:	64322564 	ldrvst	r2, [r2], -#1380
    c3c0:	00006425 	andeq	r6, r0, r5, lsr #8
    c3c4:	62616e55 	rsbvs	r6, r1, #1360	; 0x550
    c3c8:	7420656c 	strvct	r6, [r0], -#1388
    c3cc:	6573206f 	ldrvsb	r2, [r3, -#111]!
    c3d0:	61642074 	cmnvs	r4, r4, ror r0
    c3d4:	000a6574 	andeq	r6, sl, r4, ror r5
    c3d8:	000a7325 	andeq	r7, sl, r5, lsr #6
    c3dc:	2d2d2d2d 	stccs	13, cr2, [sp, -#180]!
    c3e0:	2d2d2d2d 	stccs	13, cr2, [sp, -#180]!
    c3e4:	00002d2d 	andeq	r2, r0, sp, lsr #26
    c3e8:	62616e55 	rsbvs	r6, r1, #1360	; 0x550
    c3ec:	7420656c 	strvct	r6, [r0], -#1388
    c3f0:	6c61206f 	stcvsl	0, cr2, [r1], -#444
    c3f4:	61636f6c 	cmnvs	r3, ip, ror #30
    c3f8:	62206574 	eorvs	r6, r0, #486539264	; 0x1d000000
    c3fc:	65666675 	strvsb	r6, [r6, -#1653]!
    c400:	666f2072 	undefined
    c404:	20642520 	rsbcs	r2, r4, r0, lsr #10
    c408:	65747962 	ldrvsb	r7, [r4, -#2402]!
    c40c:	00000a73 	andeq	r0, r0, r3, ror sl
    c410:	79706f43 	ldmvcdb	r0!, {r0, r1, r6, r8, r9, sl, fp, sp, lr}^
    c414:	20676e69 	rsbcs	r6, r7, r9, ror #28
    c418:	656c6966 	strvsb	r6, [ip, -#2406]!
    c41c:	73252220 	teqvc	r5, #2	; 0x2
    c420:	6f742022 	swivs	0x00742022
    c424:	73746920 	cmnvc	r4, #524288	; 0x80000
    c428:	0a666c65 	beq	19a75c4 <__bss_end__+0x1998bbc>
    c42c:	00000000 	andeq	r0, r0, r0
    c430:	0000002f 	andeq	r0, r0, pc, lsr #32
    c434:	646c6957 	strvsbt	r6, [ip], -#2391
    c438:	64726163 	ldrvsbt	r6, [r2], -#355
    c43c:	6e6f2073 	mcrvs	0, 3, r2, cr15, cr3, {3}
    c440:	6920796c 	stmvsdb	r0!, {r2, r3, r5, r6, r8, fp, ip, sp, lr}
    c444:	656c706d 	strvsb	r7, [ip, -#109]!
    c448:	746e656d 	strvcbt	r6, [lr], -#1389
    c44c:	66206465 	strvst	r6, [r0], -r5, ror #8
    c450:	6c20726f 	sfmvs	f7, 4, [r0], -#444
    c454:	20747361 	rsbcss	r7, r4, r1, ror #6
    c458:	656c6966 	strvsb	r6, [ip, -#2406]!
    c45c:	656d616e 	strvsb	r6, [sp, -#366]!
    c460:	6d6f6320 	stcvsl	3, cr6, [pc, -#128]!
    c464:	656e6f70 	strvsb	r6, [lr, -#3952]!
    c468:	000a746e 	andeq	r7, sl, lr, ror #8
    c46c:	0000002e 	andeq	r0, r0, lr, lsr #32
    c470:	00002e2e 	andeq	r2, r0, lr, lsr #28
    c474:	6d206f4e 	stcvs	15, cr6, [r0, -#312]!
    c478:	726f6d65 	rsbvc	r6, pc, #6464	; 0x1940
    c47c:	6f662079 	swivs	0x00662079
    c480:	69662072 	stmvsdb	r6!, {r1, r4, r5, r6, sp}^
    c484:	616e656c 	cmnvs	lr, ip, ror #10
    c488:	000a656d 	andeq	r6, sl, sp, ror #10
    c48c:	206f6f54 	rsbcs	r6, pc, r4, asr pc
    c490:	796e616d 	stmvcdb	lr!, {r0, r2, r3, r5, r6, r8, sp, lr}^
    c494:	6c696620 	stcvsl	6, cr6, [r9], -#128
    c498:	6d616e65 	stcvsl	14, cr6, [r1, -#404]!
    c49c:	616d2065 	cmnvs	sp, r5, rrx
    c4a0:	65686374 	strvsb	r6, [r8, -#884]!
    c4a4:	00000a73 	andeq	r0, r0, r3, ror sl
    c4a8:	6d206f4e 	stcvs	15, cr6, [r0, -#312]!
    c4ac:	68637461 	stmvsda	r3!, {r0, r5, r6, sl, ip, sp, lr}^
    c4b0:	000a7365 	andeq	r7, sl, r5, ror #6
    c4b4:	206f6f54 	rsbcs	r6, pc, r4, asr pc
    c4b8:	796e616d 	stmvcdb	lr!, {r0, r2, r3, r5, r6, r8, sp, lr}^
    c4bc:	67726120 	ldrvsb	r6, [r2, -r0, lsr #2]!
    c4c0:	6e656d75 	mcrvs	13, 3, r6, cr5, cr5, {3}
    c4c4:	000a7374 	andeq	r7, sl, r4, ror r3
    c4c8:	69726156 	ldmvsdb	r2!, {r1, r2, r4, r6, r8, sp, lr}^
    c4cc:	656c6261 	strvsb	r6, [ip, -#609]!
    c4d0:	70786520 	rsbvcs	r6, r8, r0, lsr #10
    c4d4:	69736e61 	ldmvsdb	r3!, {r0, r5, r6, r9, sl, fp, sp, lr}^
    c4d8:	74206e6f 	strvct	r6, [r0], -#3695
    c4dc:	6c206f6f 	stcvs	15, cr6, [r0], -#444
    c4e0:	0a676e6f 	beq	19e7ea4 <__bss_end__+0x19d949c>
    c4e4:	00000000 	andeq	r0, r0, r0

0000c4e8 <at_data>:
    c4e8:	4d6e7553 	stcmil	5, cr7, [lr, -#332]!
    c4ec:	75546e6f 	ldrvcb	r6, [r4, -#3695]
    c4f0:	64655765 	strvsbt	r5, [r5], -#1893
    c4f4:	46756854 	undefined
    c4f8:	61536972 	cmpvs	r3, r2, ror r9
    c4fc:	6e614a74 	mcrvs	10, 3, r4, cr1, cr4, {3}
    c500:	4d626546 	stcmil	5, cr6, [r2, -#280]!
    c504:	70417261 	subvc	r7, r1, r1, ror #4
    c508:	79614d72 	stmvcdb	r1!, {r1, r4, r5, r6, r8, sl, fp, lr}^
    c50c:	4a6e754a 	bmi	1ba9a3c <__bss_end__+0x1b9b034>
    c510:	75416c75 	strvcb	r6, [r1, -#3189]
    c514:	70655367 	rsbvc	r5, r5, r7, ror #6
    c518:	4e74634f 	cdpmi	3, 7, cr6, cr4, cr15, {2}
    c51c:	6544766f 	strvsb	r7, [r4, -#1647]
    c520:	3f3f3f63 	swicc	0x003f3f63
    c524:	3f3f3f20 	swicc	0x003f3f20
    c528:	200c3020 	andcs	r3, ip, r0, lsr #32
    c52c:	303a0830 	eorccs	r0, sl, r0, lsr r8
    c530:	00303a04 	eoreqs	r3, r0, r4, lsl #20
    c534:	3f3f3f20 	swicc	0x003f3f20
    c538:	1f000a3f 	swine	0x00000a3f

0000c53b <day_cor>:
    c53b:	22221f1f 	eorcs	r1, r2, #124	; 0x7c
    c53f:	24242323 	strcst	r2, [r4], -#803
    c543:	26252524 	strcst	r2, [r5], -r4, lsr #10
    c547:	005a5426 	subeqs	r5, sl, r6, lsr #8

0000c548 <vals>:
    c548:	55005a54 	strpl	r5, [r0, -#2644]
    c54c:	19004354 	stmnedb	r0, {r2, r4, r6, r8, r9, lr}
    c550:	2e013c3c 	mcrcs	12, 0, r3, cr1, cr12, {1}
    c554:	012e0501 	teqeq	lr, r1, lsl #10
    c558:	00000006 	andeq	r0, r0, r6
    c55c:	4d2c0001 	stcmi	0, cr0, [ip, -#4]!
    c560:	2e312e34 	mrccs	14, 1, r2, cr1, cr4, {1}
    c564:	314d2c30 	cmpcc	sp, r0, lsr ip
    c568:	2e352e30 	mrccs	14, 1, r2, cr5, cr0, {1}
    c56c:	00000030 	andeq	r0, r0, r0, lsr r0
    c570:	6374652f 	cmnvs	r4, #197132288	; 0xbc00000
    c574:	005a542f 	subeqs	r5, sl, pc, lsr #8

0000c578 <vals>:
    c578:	003c003c 	eoreqs	r0, ip, ip, lsr r0
    c57c:	00070018 	andeq	r0, r7, r8, lsl r0
    c580:	05b58eac 	ldreq	r8, [r5, #3756]!
    c584:	0000016d 	andeq	r0, r0, sp, ror #2

0000c588 <days>:
    c588:	1e1f1c1f 	mrcne	12, 0, r1, cr15, cr15, {0}
    c58c:	1f1f1e1f 	swine	0x001f1e1f
    c590:	1f1e1f1e 	swine	0x001e1f1e
    c594:	1c1f001d 	ldcne	0, cr0, [pc], -#116

0000c596 <vals>:
    c596:	1e1f1c1f 	mrcne	12, 0, r1, cr15, cr15, {0}
    c59a:	1f1f1e1f 	swine	0x001f1e1f
    c59e:	1f1e1f1e 	swine	0x001e1f1e
    c5a2:	652f001d 	strvs	r0, [pc, #ffffffe3]!	; c58d <days+0x5>
    c5a6:	702f6374 	eorvc	r6, pc, r4, ror r3
    c5aa:	77737361 	ldrvcb	r7, [r3, -r1, ror #6]!
    c5ae:	652f0064 	strvs	r0, [pc, #ffffff9c]!	; c552 <vals+0xa>
    c5b2:	672f6374 	undefined
    c5b6:	70756f72 	rsbvcs	r6, r5, r2, ror pc
    c5ba:	73250000 	teqvc	r5, #0	; 0x0
    c5be:	6d257325 	stcvs	3, cr7, [r5, -#148]!
    c5c2:	203a000a 	eorcss	r0, sl, sl
	...

0000c5c8 <__stdio_mutex_initializer.0>:
	...
    c5d4:	00000001 	andeq	r0, r0, r1
	...

0000c5e0 <spec_base.0>:
    c5e0:	08101010 	ldmeqda	r0, {r4, ip}
    c5e4:	000a0a0a 	andeq	r0, sl, sl, lsl #20

0000c5e8 <prefix.1>:
    c5e8:	002d002b 	eoreq	r0, sp, fp, lsr #32
    c5ec:	78300020 	ldmvcda	r0!, {r5}
    c5f0:	00583000 	subeqs	r3, r8, r0
    c5f4:	6c696e28 	stcvsl	14, cr6, [r9], -#160
    c5f8:	00000029 	andeq	r0, r0, r9, lsr #32
    c5fc:	6c756e28 	ldcvsl	14, cr6, [r5], -#160
    c600:	0000296c 	andeq	r2, r0, ip, ror #18

0000c604 <qual>:
    c604:	714c6c68 	cmpvc	ip, r8, ror #24
	...

0000c609 <qsz>:
    c609:	020201ff 	andeq	r0, r2, #-1073741761	; 0xc000003f
    c60d:	25000000 	strcs	r0, [r0]

0000c610 <spec>:
    c610:	635b6e25 	cmpvs	fp, #592	; 0x250
    c614:	70756f73 	rsbvcs	r6, r5, r3, ror pc
    c618:	64695878 	strvsbt	r5, [r9], -#2168
	...

0000c61d <radix>:
    c61d:	10100a08 	andnes	r0, r0, r8, lsl #20
    c621:	550a0010 	strpl	r0, [sl, -#16]

0000c624 <unknown.0>:
    c624:	6e6b6e55 	mcrvs	14, 3, r6, cr11, cr5, {2}
    c628:	206e776f 	rsbcs	r7, lr, pc, ror #14
    c62c:	6f727265 	swivs	0x00727265
    c630:	00002072 	andeq	r2, r0, r2, ror r0

0000c634 <_string_syserrmsgs>:
    c634:	63637553 	cmnvs	r3, #348127232	; 0x14c00000
    c638:	00737365 	rsbeqs	r7, r3, r5, ror #6
    c63c:	7265704f 	rsbvc	r7, r5, #79	; 0x4f
    c640:	6f697461 	swivs	0x00697461
    c644:	6f6e206e 	swivs	0x006e206e
    c648:	65702074 	ldrvsb	r2, [r0, -#116]!
    c64c:	74696d72 	strvcbt	r6, [r9], -#3442
    c650:	00646574 	rsbeq	r6, r4, r4, ror r5
    c654:	73206f4e 	teqvc	r0, #312	; 0x138
    c658:	20686375 	rsbcs	r6, r8, r5, ror r3
    c65c:	656c6966 	strvsb	r6, [ip, -#2406]!
    c660:	20726f20 	rsbcss	r6, r2, r0, lsr #30
    c664:	65726964 	ldrvsb	r6, [r2, -#2404]!
    c668:	726f7463 	rsbvc	r7, pc, #1660944384	; 0x63000000
    c66c:	6f4e0079 	swivs	0x004e0079
    c670:	63757320 	cmnvs	r5, #-2147483648	; 0x80000000
    c674:	72702068 	rsbvcs	r2, r0, #104	; 0x68
    c678:	7365636f 	cmnvc	r5, #-1140850687	; 0xbc000001
    c67c:	6e490073 	mcrvs	0, 2, r0, cr9, cr3, {3}
    c680:	72726574 	rsbvcs	r6, r2, #486539264	; 0x1d000000
    c684:	65747075 	ldrvsb	r7, [r4, -#117]!
    c688:	79732064 	ldmvcdb	r3!, {r2, r5, r6, sp}^
    c68c:	6d657473 	stcvsl	4, cr7, [r5, -#460]!
    c690:	6c616320 	stcvsl	3, cr6, [r1], -#128
    c694:	6e49006c 	cdpvs	0, 4, cr0, cr9, cr12, {3}
    c698:	2f747570 	swics	0x00747570
    c69c:	7074756f 	rsbvcs	r7, r4, pc, ror #10
    c6a0:	65207475 	strvs	r7, [r0, -#1141]!
    c6a4:	726f7272 	rsbvc	r7, pc, #536870919	; 0x20000007
    c6a8:	206f4e00 	rsbcs	r4, pc, r0, lsl #28
    c6ac:	68637573 	stmvsda	r3!, {r0, r1, r4, r5, r6, r8, sl, ip, sp, lr}^
    c6b0:	76656420 	strvcbt	r6, [r5], -r0, lsr #8
    c6b4:	20656369 	rsbcs	r6, r5, r9, ror #6
    c6b8:	6120726f 	teqvs	r0, pc, ror #4
    c6bc:	65726464 	ldrvsb	r6, [r2, -#1124]!
    c6c0:	41007373 	tstmi	r0, r3, ror r3
    c6c4:	6d756772 	ldcvsl	7, cr6, [r5, -#456]!
    c6c8:	20746e65 	rsbcss	r6, r4, r5, ror #28
    c6cc:	7473696c 	ldrvcbt	r6, [r3], -#2412
    c6d0:	6f6f7420 	swivs	0x006f7420
    c6d4:	6e6f6c20 	cdpvs	12, 6, cr6, cr15, cr0, {1}
    c6d8:	78450067 	stmvcda	r5, {r0, r1, r2, r5, r6}^
    c6dc:	66206365 	strvst	r6, [r0], -r5, ror #6
    c6e0:	616d726f 	cmnvs	sp, pc, ror #4
    c6e4:	72652074 	rsbvc	r2, r5, #116	; 0x74
    c6e8:	00726f72 	rsbeqs	r6, r2, r2, ror pc
    c6ec:	20646142 	rsbcs	r6, r4, r2, asr #2
    c6f0:	656c6966 	strvsb	r6, [ip, -#2406]!
    c6f4:	73656420 	cmnvc	r5, #536870912	; 0x20000000
    c6f8:	70697263 	rsbvc	r7, r9, r3, ror #4
    c6fc:	00726f74 	rsbeqs	r6, r2, r4, ror pc
    c700:	63206f4e 	teqvs	r0, #312	; 0x138
    c704:	646c6968 	strvsbt	r6, [ip], -#2408
    c708:	6f727020 	swivs	0x00727020
    c70c:	73736563 	cmnvc	r3, #415236096	; 0x18c00000
    c710:	52007365 	andpl	r7, r0, #-1811939327	; 0x94000001
    c714:	756f7365 	strvcb	r7, [pc, #fffffc9b]!	; c3b7 <invalid_date+0x17>
    c718:	20656372 	rsbcs	r6, r5, r2, ror r3
    c71c:	706d6574 	rsbvc	r6, sp, r4, ror r5
    c720:	7261726f 	rsbvc	r7, r1, #-268435450	; 0xf0000006
    c724:	20796c69 	rsbcss	r6, r9, r9, ror #24
    c728:	76616e75 	undefined
    c72c:	616c6961 	cmnvs	ip, r1, ror #18
    c730:	00656c62 	rsbeq	r6, r5, r2, ror #24
    c734:	6e6e6143 	powvsem	f6, f6, f3
    c738:	6120746f 	teqvs	r0, pc, ror #8
    c73c:	636f6c6c 	cmnvs	pc, #27648	; 0x6c00
    c740:	20657461 	rsbcs	r7, r5, r1, ror #8
    c744:	6f6d656d 	swivs	0x006d656d
    c748:	50007972 	andpl	r7, r0, r2, ror r9
    c74c:	696d7265 	stmvsdb	sp!, {r0, r2, r5, r6, r9, ip, sp, lr}^
    c750:	6f697373 	swivs	0x00697373
    c754:	6564206e 	strvsb	r2, [r4, -#110]!
    c758:	6465696e 	strvsbt	r6, [r5], -#2414
    c75c:	64614200 	strvsbt	r4, [r1], -#512
    c760:	64646120 	strvsbt	r6, [r4], -#288
    c764:	73736572 	cmnvc	r3, #478150656	; 0x1c800000
    c768:	6f6c4200 	swivs	0x006c4200
    c76c:	64206b63 	strvst	r6, [r0], -#2915
    c770:	63697665 	cmnvs	r9, #105906176	; 0x6500000
    c774:	65722065 	ldrvsb	r2, [r2, -#101]!
    c778:	72697571 	rsbvc	r7, r9, #473956352	; 0x1c400000
    c77c:	44006465 	strmi	r6, [r0], -#1125
    c780:	63697665 	cmnvs	r9, #105906176	; 0x6500000
    c784:	726f2065 	rsbvc	r2, pc, #101	; 0x65
    c788:	73657220 	cmnvc	r5, #2	; 0x2
    c78c:	6372756f 	cmnvs	r2, #465567744	; 0x1bc00000
    c790:	75622065 	strvcb	r2, [r2, -#101]!
    c794:	46007973 	undefined
    c798:	20656c69 	rsbcs	r6, r5, r9, ror #24
    c79c:	73697865 	cmnvc	r9, #6619136	; 0x650000
    c7a0:	49007374 	stmmidb	r0, {r2, r4, r5, r6, r8, r9, ip, sp, lr}
    c7a4:	6c61766e 	stcvsl	6, cr7, [r1], -#440
    c7a8:	63206469 	teqvs	r0, #1761607680	; 0x69000000
    c7ac:	73736f72 	cmnvc	r3, #456	; 0x1c8
    c7b0:	7665642d 	strvcbt	r6, [r5], -sp, lsr #8
    c7b4:	20656369 	rsbcs	r6, r5, r9, ror #6
    c7b8:	6b6e696c 	blvs	1ba6d70 <__bss_end__+0x1b98368>
    c7bc:	206f4e00 	rsbcs	r4, pc, r0, lsl #28
    c7c0:	68637573 	stmvsda	r3!, {r0, r1, r4, r5, r6, r8, sl, ip, sp, lr}^
    c7c4:	76656420 	strvcbt	r6, [r5], -r0, lsr #8
    c7c8:	00656369 	rsbeq	r6, r5, r9, ror #6
    c7cc:	20746f4e 	rsbcss	r6, r4, lr, asr #30
    c7d0:	69642061 	stmvsdb	r4!, {r0, r5, r6, sp}^
    c7d4:	74636572 	strvcbt	r6, [r3], -#1394
    c7d8:	0079726f 	rsbeqs	r7, r9, pc, ror #4
    c7dc:	61207349 	teqvs	r0, r9, asr #6
    c7e0:	72696420 	rsbvc	r6, r9, #536870912	; 0x20000000
    c7e4:	6f746365 	swivs	0x00746365
    c7e8:	49007972 	stmmidb	r0, {r1, r4, r5, r6, r8, fp, ip, sp, lr}
    c7ec:	6c61766e 	stcvsl	6, cr7, [r1], -#440
    c7f0:	61206469 	teqvs	r0, r9, ror #8
    c7f4:	6d756772 	ldcvsl	7, cr6, [r5, -#456]!
    c7f8:	00746e65 	rsbeqs	r6, r4, r5, ror #28
    c7fc:	206f6f54 	rsbcs	r6, pc, r4, asr pc
    c800:	796e616d 	stmvcdb	lr!, {r0, r2, r3, r5, r6, r8, sp, lr}^
    c804:	65706f20 	ldrvsb	r6, [r0, -#3872]!
    c808:	6966206e 	stmvsdb	r6!, {r1, r2, r3, r5, r6, sp}^
    c80c:	2073656c 	rsbcss	r6, r3, ip, ror #10
    c810:	73206e69 	teqvc	r0, #1680	; 0x690
    c814:	65747379 	ldrvsb	r7, [r4, -#889]!
    c818:	6f54006d 	swivs	0x0054006d
    c81c:	616d206f 	cmnvs	sp, pc, rrx
    c820:	6f20796e 	swivs	0x0020796e
    c824:	206e6570 	rsbcs	r6, lr, r0, ror r5
    c828:	656c6966 	strvsb	r6, [ip, -#2406]!
    c82c:	6e490073 	mcrvs	0, 2, r0, cr9, cr3, {3}
    c830:	72707061 	rsbvcs	r7, r0, #97	; 0x61
    c834:	6972706f 	ldmvsdb	r2!, {r0, r1, r2, r3, r5, r6, ip, sp, lr}^
    c838:	20657461 	rsbcs	r7, r5, r1, ror #8
    c83c:	74636f69 	strvcbt	r6, [r3], -#3945
    c840:	6f66206c 	swivs	0x0066206c
    c844:	65642072 	strvsb	r2, [r4, -#114]!
    c848:	65636976 	strvsb	r6, [r3, -#2422]!
    c84c:	78655400 	stmvcda	r5!, {sl, ip, lr}^
    c850:	69662074 	stmvsdb	r6!, {r2, r4, r5, r6, sp}^
    c854:	6220656c 	eorvs	r6, r0, #452984832	; 0x1b000000
    c858:	00797375 	rsbeqs	r7, r9, r5, ror r3
    c85c:	656c6946 	strvsb	r6, [ip, -#2374]!
    c860:	6f6f7420 	swivs	0x006f7420
    c864:	72616c20 	rsbvc	r6, r1, #8192	; 0x2000
    c868:	4e006567 	cdpmi	5, 0, cr6, cr0, cr7, {3}
    c86c:	7073206f 	rsbvcs	r2, r3, pc, rrx
    c870:	20656361 	rsbcs	r6, r5, r1, ror #6
    c874:	7466656c 	strvcbt	r6, [r6], -#1388
    c878:	206e6f20 	rsbcs	r6, lr, r0, lsr #30
    c87c:	69766564 	ldmvsdb	r6!, {r2, r5, r6, r8, sl, sp, lr}^
    c880:	49006563 	stmmidb	r0, {r0, r1, r5, r6, r8, sl, sp, lr}
    c884:	67656c6c 	strvsb	r6, [r5, -ip, ror #24]!
    c888:	73206c61 	teqvc	r0, #24832	; 0x6100
    c88c:	006b6565 	rsbeq	r6, fp, r5, ror #10
    c890:	64616552 	strvsbt	r6, [r1], -#1362
    c894:	6c6e6f2d 	stcvsl	15, cr6, [lr], -#180
    c898:	69662079 	stmvsdb	r6!, {r0, r3, r4, r5, r6, sp}^
    c89c:	7320656c 	teqvc	r0, #452984832	; 0x1b000000
    c8a0:	65747379 	ldrvsb	r7, [r4, -#889]!
    c8a4:	6f54006d 	swivs	0x0054006d
    c8a8:	616d206f 	cmnvs	sp, pc, rrx
    c8ac:	6c20796e 	stcvs	9, cr7, [r0], -#440
    c8b0:	736b6e69 	cmnvc	fp, #1680	; 0x690
    c8b4:	6f724200 	swivs	0x00724200
    c8b8:	206e656b 	rsbcs	r6, lr, fp, ror #10
    c8bc:	65706970 	ldrvsb	r6, [r0, -#2416]!
    c8c0:	6d754e00 	ldcvsl	14, cr4, [r5]
    c8c4:	63697265 	cmnvs	r9, #1342177286	; 0x50000006
    c8c8:	61206c61 	teqvs	r0, r1, ror #24
    c8cc:	6d756772 	ldcvsl	7, cr6, [r5, -#456]!
    c8d0:	20746e65 	rsbcss	r6, r4, r5, ror #28
    c8d4:	2074756f 	rsbcss	r7, r4, pc, ror #10
    c8d8:	6420666f 	strvst	r6, [r0], -#1647
    c8dc:	69616d6f 	stmvsdb	r1!, {r0, r1, r2, r3, r5, r6, r8, sl, fp, sp, lr}^
    c8e0:	754e006e 	strvcb	r0, [lr, -#110]
    c8e4:	6972656d 	ldmvsdb	r2!, {r0, r2, r3, r5, r6, r8, sl, sp, lr}^
    c8e8:	206c6163 	rsbcs	r6, ip, r3, ror #2
    c8ec:	75736572 	ldrvcb	r6, [r3, -#1394]!
    c8f0:	6f20746c 	swivs	0x0020746c
    c8f4:	6f207475 	swivs	0x00207475
    c8f8:	61722066 	cmnvs	r2, r6, rrx
    c8fc:	0065676e 	rsbeq	r6, r5, lr, ror #14
    c900:	6f736552 	swivs	0x00736552
    c904:	65637275 	strvsb	r7, [r3, -#629]!
    c908:	61656420 	cmnvs	r5, r0, lsr #8
    c90c:	636f6c64 	cmnvs	pc, #25600	; 0x6400
    c910:	7661206b 	strvcbt	r2, [r1], -fp, rrx
    c914:	6564696f 	strvsb	r6, [r4, -#2415]!
    c918:	69460064 	stmvsdb	r6, {r2, r5, r6}^
    c91c:	6e20656c 	cdpvs	5, 2, cr6, cr0, cr12, {3}
    c920:	20656d61 	rsbcs	r6, r5, r1, ror #26
    c924:	206f6f74 	rsbcs	r6, pc, r4, ror pc
    c928:	676e6f6c 	strvsb	r6, [lr, -ip, ror #30]!
    c92c:	206f4e00 	rsbcs	r4, pc, r0, lsl #28
    c930:	6b636f6c 	blvs	18e86e8 <__bss_end__+0x18d9ce0>
    c934:	76612073 	undefined
    c938:	616c6961 	cmnvs	ip, r1, ror #18
    c93c:	00656c62 	rsbeq	r6, r5, r2, ror #24
    c940:	636e7546 	cmnvs	lr, #293601280	; 0x11800000
    c944:	6e6f6974 	mcrvs	9, 3, r6, cr15, cr4, {3}
    c948:	746f6e20 	strvcbt	r6, [pc], #e20	; c950 <_string_syserrmsgs+0x31c>
    c94c:	706d6920 	rsbvc	r6, sp, r0, lsr #18
    c950:	656d656c 	strvsb	r6, [sp, -#1388]!
    c954:	6465746e 	strvsbt	r7, [r5], -#1134
    c958:	72694400 	rsbvc	r4, r9, #0	; 0x0
    c95c:	6f746365 	swivs	0x00746365
    c960:	6e207972 	mcrvs	9, 1, r7, cr0, cr2, {3}
    c964:	6520746f 	strvs	r7, [r0, -#1135]!
    c968:	7974706d 	ldmvcdb	r4!, {r0, r2, r3, r5, r6, ip, sp, lr}^
    c96c:	6f6f5400 	swivs	0x006f5400
    c970:	6e616d20 	cdpvs	13, 6, cr6, cr1, cr0, {1}
    c974:	656c2079 	strvsb	r2, [ip, -#121]!
    c978:	736c6576 	cmnvc	ip, #494927872	; 0x1d800000
    c97c:	20666f20 	rsbcs	r6, r6, r0, lsr #30
    c980:	626d7973 	rsbvs	r7, sp, #1884160	; 0x1cc000
    c984:	63696c6f 	cmnvs	r9, #28416	; 0x6f00
    c988:	6e696c20 	cdpvs	12, 6, cr6, cr9, cr0, {1}
    c98c:	0000736b 	andeq	r7, r0, fp, ror #6
    c990:	6d206f4e 	stcvs	15, cr6, [r0, -#312]!
    c994:	61737365 	cmnvs	r3, r5, ror #6
    c998:	6f206567 	swivs	0x00206567
    c99c:	65642066 	strvsb	r2, [r4, -#102]!
    c9a0:	65726973 	ldrvsb	r6, [r2, -#2419]!
    c9a4:	79742064 	ldmvcdb	r4!, {r2, r5, r6, sp}^
    c9a8:	49006570 	stmmidb	r0, {r4, r5, r6, r8, sl, sp, lr}
    c9ac:	746e6564 	strvcbt	r6, [lr], -#1380
    c9b0:	65696669 	strvsb	r6, [r9, -#1641]!
    c9b4:	65722072 	ldrvsb	r2, [r2, -#114]!
    c9b8:	65766f6d 	ldrvsb	r6, [r6, -#3949]!
    c9bc:	68430064 	stmvsda	r3, {r2, r5, r6}^
    c9c0:	656e6e61 	strvsb	r6, [lr, -#3681]!
    c9c4:	756e206c 	strvcb	r2, [lr, -#108]!
    c9c8:	7265626d 	rsbvc	r6, r5, #-805306362	; 0xd0000006
    c9cc:	74756f20 	ldrvcbt	r6, [r5], -#3872
    c9d0:	20666f20 	rsbcs	r6, r6, r0, lsr #30
    c9d4:	676e6172 	undefined
    c9d8:	654c0065 	strvsb	r0, [ip, -#101]
    c9dc:	206c6576 	rsbcs	r6, ip, r6, ror r5
    c9e0:	6f6e2032 	swivs	0x006e2032
    c9e4:	79732074 	ldmvcdb	r3!, {r2, r4, r5, r6, sp}^
    c9e8:	7268636e 	rsbvc	r6, r8, #-1207959551	; 0xb8000001
    c9ec:	7a696e6f 	bvc	1a683b0 <__bss_end__+0x1a599a8>
    c9f0:	4c006465 	stcmi	4, cr6, [r0], -#404
    c9f4:	6c657665 	stcvsl	6, cr7, [r5], -#404
    c9f8:	68203320 	stmvsda	r0!, {r5, r8, r9, ip, sp}
    c9fc:	65746c61 	ldrvsb	r6, [r4, -#3169]!
    ca00:	654c0064 	strvsb	r0, [ip, -#100]
    ca04:	206c6576 	rsbcs	r6, ip, r6, ror r5
    ca08:	65722033 	ldrvsb	r2, [r2, -#51]!
    ca0c:	00746573 	rsbeqs	r6, r4, r3, ror r5
    ca10:	6b6e694c 	blvs	1ba6f48 <__bss_end__+0x1b98540>
    ca14:	6d756e20 	ldcvsl	14, cr6, [r5, -#128]!
    ca18:	20726562 	rsbcss	r6, r2, r2, ror #10
    ca1c:	2074756f 	rsbcss	r7, r4, pc, ror #10
    ca20:	7220666f 	eorvc	r6, r0, #116391936	; 0x6f00000
    ca24:	65676e61 	strvsb	r6, [r7, -#3681]!
    ca28:	6f725000 	swivs	0x00725000
    ca2c:	6f636f74 	swivs	0x00636f74
    ca30:	7264206c 	rsbvc	r2, r4, #108	; 0x6c
    ca34:	72657669 	rsbvc	r7, r5, #110100480	; 0x6900000
    ca38:	746f6e20 	strvcbt	r6, [pc], #e20	; ca40 <_string_syserrmsgs+0x40c>
    ca3c:	74746120 	ldrvcbt	r6, [r4], -#288
    ca40:	65686361 	strvsb	r6, [r8, -#865]!
    ca44:	6f4e0064 	swivs	0x004e0064
    ca48:	49534320 	ldmmidb	r3, {r5, r8, r9, lr}^
    ca4c:	72747320 	rsbvcs	r7, r4, #-2147483648	; 0x80000000
    ca50:	75746375 	ldrvcb	r6, [r4, -#885]!
    ca54:	61206572 	teqvs	r0, r2, ror r5
    ca58:	6c696176 	stfvse	f6, [r9], -#472
    ca5c:	656c6261 	strvsb	r6, [ip, -#609]!
    ca60:	76654c00 	strvcbt	r4, [r5], -r0, lsl #24
    ca64:	32206c65 	eorcc	r6, r0, #25856	; 0x6500
    ca68:	6c616820 	stcvsl	8, cr6, [r1], -#128
    ca6c:	00646574 	rsbeq	r6, r4, r4, ror r5
    ca70:	61766e49 	cmnvs	r6, r9, asr #28
    ca74:	2064696c 	rsbcs	r6, r4, ip, ror #18
    ca78:	68637865 	stmvsda	r3!, {r0, r2, r5, r6, fp, ip, sp, lr}^
    ca7c:	65676e61 	strvsb	r6, [r7, -#3681]!
    ca80:	766e4900 	strvcbt	r4, [lr], -r0, lsl #18
    ca84:	64696c61 	strvsbt	r6, [r9], -#3169
    ca88:	71657220 	cmnvc	r5, r0, lsr #4
    ca8c:	74736575 	ldrvcbt	r6, [r3], -#1397
    ca90:	73656420 	cmnvc	r5, #536870912	; 0x20000000
    ca94:	70697263 	rsbvc	r7, r9, r3, ror #4
    ca98:	00726f74 	rsbeqs	r6, r2, r4, ror pc
    ca9c:	68637845 	stmvsda	r3!, {r0, r2, r6, fp, ip, sp, lr}^
    caa0:	65676e61 	strvsb	r6, [r7, -#3681]!
    caa4:	6c756620 	ldcvsl	6, cr6, [r5], -#128
    caa8:	6f4e006c 	swivs	0x004e006c
    caac:	6f6e6120 	swivs	0x006e6120
    cab0:	49006564 	stmmidb	r0, {r2, r5, r6, r8, sl, sp, lr}
    cab4:	6c61766e 	stcvsl	6, cr7, [r1], -#440
    cab8:	72206469 	eorvc	r6, r0, #1761607680	; 0x69000000
    cabc:	65757165 	ldrvsb	r7, [r5, -#357]!
    cac0:	63207473 	teqvs	r0, #1929379840	; 0x73000000
    cac4:	0065646f 	rsbeq	r6, r5, pc, ror #8
    cac8:	61766e49 	cmnvs	r6, r9, asr #28
    cacc:	2064696c 	rsbcs	r6, r4, ip, ror #18
    cad0:	746f6c73 	strvcbt	r6, [pc], #c73	; cad8 <_string_syserrmsgs+0x4a4>
    cad4:	61420000 	cmpvs	r2, r0
    cad8:	6f662064 	swivs	0x00662064
    cadc:	6620746e 	strvst	r7, [r0], -lr, ror #8
    cae0:	20656c69 	rsbcs	r6, r5, r9, ror #24
    cae4:	6d726f66 	ldcvsl	15, cr6, [r2, -#408]!
    cae8:	44007461 	strmi	r7, [r0], -#1121
    caec:	63697665 	cmnvs	r9, #105906176	; 0x6500000
    caf0:	6f6e2065 	swivs	0x006e2065
    caf4:	20612074 	rsbcs	r2, r1, r4, ror r0
    caf8:	65727473 	ldrvsb	r7, [r2, -#1139]!
    cafc:	4e006d61 	cdpmi	13, 0, cr6, cr0, cr1, {3}
    cb00:	6164206f 	cmnvs	r4, pc, rrx
    cb04:	61206174 	teqvs	r0, r4, ror r1
    cb08:	6c696176 	stfvse	f6, [r9], -#472
    cb0c:	656c6261 	strvsb	r6, [ip, -#609]!
    cb10:	6d695400 	stcvsl	4, cr5, [r9]
    cb14:	65207265 	strvs	r7, [r0, -#613]!
    cb18:	72697078 	rsbvc	r7, r9, #120	; 0x78
    cb1c:	4f006465 	swimi	0x00006465
    cb20:	6f207475 	swivs	0x00207475
    cb24:	74732066 	ldrvcbt	r2, [r3], -#102
    cb28:	6d616572 	stcvsl	5, cr6, [r1, -#456]!
    cb2c:	65722073 	ldrvsb	r2, [r2, -#115]!
    cb30:	72756f73 	rsbvcs	r6, r5, #460	; 0x1cc
    cb34:	00736563 	rsbeqs	r6, r3, r3, ror #10
    cb38:	6863614d 	stmvsda	r3!, {r0, r2, r3, r6, r8, sp, lr}^
    cb3c:	20656e69 	rsbcs	r6, r5, r9, ror #28
    cb40:	6e207369 	cdpvs	3, 2, cr7, cr0, cr9, {3}
    cb44:	6f20746f 	swivs	0x0020746f
    cb48:	6874206e 	ldmvsda	r4!, {r1, r2, r3, r5, r6, sp}^
    cb4c:	656e2065 	strvsb	r2, [lr, -#101]!
    cb50:	726f7774 	rsbvc	r7, pc, #30408704	; 0x1d00000
    cb54:	6150006b 	cmpvs	r0, fp, rrx
    cb58:	67616b63 	strvsb	r6, [r1, -r3, ror #22]!
    cb5c:	6f6e2065 	swivs	0x006e2065
    cb60:	6e692074 	mcrvs	0, 3, r2, cr9, cr4, {3}
    cb64:	6c617473 	stcvsl	4, cr7, [r1], -#460
    cb68:	0064656c 	rsbeq	r6, r4, ip, ror #10
    cb6c:	656a624f 	strvsb	r6, [sl, -#591]!
    cb70:	69207463 	stmvsdb	r0!, {r0, r1, r5, r6, sl, ip, sp, lr}
    cb74:	65722073 	ldrvsb	r2, [r2, -#115]!
    cb78:	65746f6d 	ldrvsb	r6, [r4, -#3949]!
    cb7c:	6e694c00 	cdpvs	12, 6, cr4, cr9, cr0, {0}
    cb80:	6168206b 	cmnvs	r8, fp, rrx
    cb84:	65622073 	strvsb	r2, [r2, -#115]!
    cb88:	73206e65 	teqvc	r0, #1616	; 0x650
    cb8c:	72657665 	rsbvc	r7, r5, #105906176	; 0x6500000
    cb90:	41006465 	tstmi	r0, r5, ror #8
    cb94:	72657664 	rsbvc	r7, r5, #104857600	; 0x6400000
    cb98:	65736974 	ldrvsb	r6, [r3, -#2420]!
    cb9c:	72726520 	rsbvcs	r6, r2, #134217728	; 0x8000000
    cba0:	5300726f 	tstpl	r0, #-268435450	; 0xf0000006
    cba4:	756f6d72 	strvcb	r6, [pc, #fffff28e]!	; be3a <__data_start+0x34a>
    cba8:	6520746e 	strvs	r7, [r0, -#1134]!
    cbac:	726f7272 	rsbvc	r7, pc, #536870919	; 0x20000007
    cbb0:	6d6f4300 	stcvsl	3, cr4, [pc]
    cbb4:	696e756d 	stmvsdb	lr!, {r0, r2, r3, r5, r6, r8, sl, ip, sp, lr}^
    cbb8:	69746163 	ldmvsdb	r4!, {r0, r1, r5, r6, r8, sp, lr}^
    cbbc:	65206e6f 	strvs	r6, [r0, -#3695]!
    cbc0:	726f7272 	rsbvc	r7, pc, #536870919	; 0x20000007
    cbc4:	206e6f20 	rsbcs	r6, lr, r0, lsr #30
    cbc8:	646e6573 	strvsbt	r6, [lr], -#1395
    cbcc:	6f725000 	swivs	0x00725000
    cbd0:	6f636f74 	swivs	0x00636f74
    cbd4:	7265206c 	rsbvc	r2, r5, #108	; 0x6c
    cbd8:	00726f72 	rsbeqs	r6, r2, r2, ror pc
    cbdc:	746c754d 	strvcbt	r7, [ip], -#1357
    cbe0:	706f6869 	rsbvc	r6, pc, r9, ror #16
    cbe4:	74746120 	ldrvcbt	r6, [r4], -#288
    cbe8:	74706d65 	ldrvcbt	r6, [r0], -#3429
    cbec:	52006465 	andpl	r6, r0, #1694498816	; 0x65000000
    cbf0:	73205346 	teqvc	r0, #402653185	; 0x18000001
    cbf4:	69636570 	stmvsdb	r3!, {r4, r5, r6, r8, sl, sp, lr}^
    cbf8:	20636966 	rsbcs	r6, r3, r6, ror #18
    cbfc:	6f727265 	swivs	0x00727265
    cc00:	61420072 	cmpvs	r2, r2, ror r0
    cc04:	656d2064 	strvsb	r2, [sp, -#100]!
    cc08:	67617373 	undefined
    cc0c:	61560065 	cmpvs	r6, r5, rrx
    cc10:	2065756c 	rsbcs	r7, r5, ip, ror #10
    cc14:	206f6f74 	rsbcs	r6, pc, r4, ror pc
    cc18:	6772616c 	ldrvsb	r6, [r2, -ip, ror #2]!
    cc1c:	6f662065 	swivs	0x00662065
    cc20:	65642072 	strvsb	r2, [r4, -#114]!
    cc24:	656e6966 	strvsb	r6, [lr, -#2406]!
    cc28:	61642064 	cmnvs	r4, r4, rrx
    cc2c:	74206174 	strvct	r6, [r0], -#372
    cc30:	00657079 	rsbeq	r7, r5, r9, ror r0
    cc34:	656d614e 	strvsb	r6, [sp, -#334]!
    cc38:	746f6e20 	strvcbt	r6, [pc], #e20	; cc40 <_string_syserrmsgs+0x60c>
    cc3c:	696e7520 	stmvsdb	lr!, {r5, r8, sl, ip, sp, lr}^
    cc40:	20657571 	rsbcs	r7, r5, r1, ror r5
    cc44:	6e206e6f 	cdpvs	14, 2, cr6, cr0, cr15, {3}
    cc48:	6f777465 	swivs	0x00777465
    cc4c:	46006b72 	undefined
    cc50:	20656c69 	rsbcs	r6, r5, r9, ror #24
    cc54:	63736564 	cmnvs	r3, #419430400	; 0x19000000
    cc58:	74706972 	ldrvcbt	r6, [r0], -#2418
    cc5c:	6920726f 	stmvsdb	r0!, {r0, r1, r2, r3, r5, r6, r9, ip, sp, lr}
    cc60:	6162206e 	cmnvs	r2, lr, rrx
    cc64:	74732064 	ldrvcbt	r2, [r3], -#100
    cc68:	00657461 	rsbeq	r7, r5, r1, ror #8
    cc6c:	6f6d6552 	swivs	0x006d6552
    cc70:	61206574 	teqvs	r0, r4, ror r5
    cc74:	65726464 	ldrvsb	r6, [r2, -#1124]!
    cc78:	63207373 	teqvs	r0, #-872415231	; 0xcc000001
    cc7c:	676e6168 	strvsb	r6, [lr, -r8, ror #2]!
    cc80:	43006465 	tstmi	r0, #1694498816	; 0x65000000
    cc84:	6e206e61 	cdpvs	14, 2, cr6, cr0, cr1, {3}
    cc88:	6120746f 	teqvs	r0, pc, ror #8
    cc8c:	73656363 	cmnvc	r5, #-1946157055	; 0x8c000001
    cc90:	20612073 	rsbcs	r2, r1, r3, ror r0
    cc94:	6465656e 	strvsbt	r6, [r5], -#1390
    cc98:	73206465 	teqvc	r0, #1694498816	; 0x65000000
    cc9c:	65726168 	ldrvsb	r6, [r2, -#360]!
    cca0:	696c2064 	stmvsdb	ip!, {r2, r5, r6, sp}^
    cca4:	72617262 	rsbvc	r7, r1, #536870918	; 0x20000006
    cca8:	63410079 	cmpvs	r1, #121	; 0x79
    ccac:	73736563 	cmnvc	r3, #415236096	; 0x18c00000
    ccb0:	20676e69 	rsbcs	r6, r7, r9, ror #28
    ccb4:	6f632061 	swivs	0x00632061
    ccb8:	70757272 	rsbvcs	r7, r5, r2, ror r2
    ccbc:	20646574 	rsbcs	r6, r4, r4, ror r5
    ccc0:	72616873 	rsbvc	r6, r1, #7536640	; 0x730000
    ccc4:	6c206465 	stcvs	4, cr6, [r0], -#404
    ccc8:	61726269 	cmnvs	r2, r9, ror #4
    cccc:	2e007972 	mcrcs	9, 0, r7, cr0, cr2, {3}
    ccd0:	2062696c 	rsbcs	r6, r2, ip, ror #18
    ccd4:	74636573 	strvcbt	r6, [r3], -#1395
    ccd8:	206e6f69 	rsbcs	r6, lr, r9, ror #30
    ccdc:	61206e69 	teqvs	r0, r9, ror #28
    cce0:	74756f2e 	ldrvcbt	r6, [r5], -#3886
    cce4:	726f6320 	rsbvc	r6, pc, #-2147483648	; 0x80000000
    cce8:	74707572 	ldrvcbt	r7, [r0], -#1394
    ccec:	41006465 	tstmi	r0, r5, ror #8
    ccf0:	6d657474 	stcvsl	4, cr7, [r5, -#464]!
    ccf4:	6e697470 	mcrvs	4, 3, r7, cr9, cr0, {3}
    ccf8:	6f742067 	swivs	0x00742067
    ccfc:	6e696c20 	cdpvs	12, 6, cr6, cr9, cr0, {1}
    cd00:	6e69206b 	cdpvs	0, 6, cr2, cr9, cr11, {3}
    cd04:	6f6f7420 	swivs	0x006f7420
    cd08:	6e616d20 	cdpvs	13, 6, cr6, cr1, cr0, {1}
    cd0c:	68732079 	ldmvsda	r3!, {r0, r3, r4, r5, r6, sp}^
    cd10:	64657261 	strvsbt	r7, [r5], -#609
    cd14:	62696c20 	rsbvs	r6, r9, #8192	; 0x2000
    cd18:	69726172 	ldmvsdb	r2!, {r1, r4, r5, r6, r8, sp, lr}^
    cd1c:	43007365 	tstmi	r0, #-1811939327	; 0x94000001
    cd20:	6f6e6e61 	swivs	0x006e6e61
    cd24:	78652074 	stmvcda	r5!, {r2, r4, r5, r6, sp}^
    cd28:	61206365 	teqvs	r0, r5, ror #6
    cd2c:	61687320 	cmnvs	r8, r0, lsr #6
    cd30:	20646572 	rsbcs	r6, r4, r2, ror r5
    cd34:	7262696c 	rsbvc	r6, r2, #1769472	; 0x1b0000
    cd38:	20797261 	rsbcss	r7, r9, r1, ror #4
    cd3c:	65726964 	ldrvsb	r6, [r2, -#2404]!
    cd40:	796c7463 	stmvcdb	ip!, {r0, r1, r5, r6, sl, ip, sp, lr}^
    cd44:	766e4900 	strvcbt	r4, [lr], -r0, lsl #18
    cd48:	64696c61 	strvsbt	r6, [r9], -#3169
    cd4c:	20726f20 	rsbcss	r6, r2, r0, lsr #30
    cd50:	6f636e69 	swivs	0x00636e69
    cd54:	656c706d 	strvsb	r7, [ip, -#109]!
    cd58:	6d206574 	stcvs	5, cr6, [r0, -#464]!
    cd5c:	69746c75 	ldmvsdb	r4!, {r0, r2, r4, r5, r6, sl, fp, sp, lr}^
    cd60:	65747962 	ldrvsb	r7, [r4, -#2402]!
    cd64:	20726f20 	rsbcss	r6, r2, r0, lsr #30
    cd68:	65646977 	strvsb	r6, [r4, -#2423]!
    cd6c:	61686320 	cmnvs	r8, r0, lsr #6
    cd70:	74636172 	strvcbt	r6, [r3], -#370
    cd74:	49007265 	stmmidb	r0, {r0, r2, r5, r6, r9, ip, sp, lr}
    cd78:	7265746e 	rsbvc	r7, r5, #1845493760	; 0x6e000000
    cd7c:	74707572 	ldrvcbt	r7, [r0], -#1394
    cd80:	73206465 	teqvc	r0, #1694498816	; 0x65000000
    cd84:	65747379 	ldrvsb	r7, [r4, -#889]!
    cd88:	6163206d 	cmnvs	r3, sp, rrx
    cd8c:	73206c6c 	teqvc	r0, #27648	; 0x6c00
    cd90:	6c756f68 	ldcvsl	15, cr6, [r5], -#416
    cd94:	65622064 	strvsb	r2, [r2, -#100]!
    cd98:	73657220 	cmnvc	r5, #2	; 0x2
    cd9c:	74726174 	ldrvcbt	r6, [r2], -#372
    cda0:	53006465 	tstpl	r0, #1694498816	; 0x65000000
    cda4:	61657274 	cmnvs	r5, r4, ror r2
    cda8:	7020736d 	eorvc	r7, r0, sp, ror #6
    cdac:	20657069 	rsbcs	r7, r5, r9, rrx
    cdb0:	6f727265 	swivs	0x00727265
    cdb4:	6f540072 	swivs	0x00540072
    cdb8:	616d206f 	cmnvs	sp, pc, rrx
    cdbc:	7520796e 	strvc	r7, [r0, -#2414]!
    cdc0:	73726573 	cmnvc	r2, #482344960	; 0x1cc00000
    cdc4:	636f5300 	cmnvs	pc, #0	; 0x0
    cdc8:	2074656b 	rsbcss	r6, r4, fp, ror #10
    cdcc:	7265706f 	rsbvc	r7, r5, #111	; 0x6f
    cdd0:	6f697461 	swivs	0x00697461
    cdd4:	6e6f206e 	cdpvs	0, 6, cr2, cr15, cr14, {3}
    cdd8:	6e6f6e20 	cdpvs	14, 6, cr6, cr15, cr0, {1}
    cddc:	636f732d 	cmnvs	pc, #-1275068416	; 0xb4000000
    cde0:	0074656b 	rsbeqs	r6, r4, fp, ror #10
    cde4:	74736544 	ldrvcbt	r6, [r3], -#1348
    cde8:	74616e69 	strvcbt	r6, [r1], -#3689
    cdec:	206e6f69 	rsbcs	r6, lr, r9, ror #30
    cdf0:	72646461 	rsbvc	r6, r4, #1627389952	; 0x61000000
    cdf4:	20737365 	rsbcss	r7, r3, r5, ror #6
    cdf8:	75716572 	ldrvcb	r6, [r1, -#1394]!
    cdfc:	64657269 	strvsbt	r7, [r5], -#617
    ce00:	73654d00 	cmnvc	r5, #0	; 0x0
    ce04:	65676173 	strvsb	r6, [r7, -#371]!
    ce08:	6f6f7420 	swivs	0x006f7420
    ce0c:	6e6f6c20 	cdpvs	12, 6, cr6, cr15, cr0, {1}
    ce10:	72500067 	subvcs	r0, r0, #103	; 0x67
    ce14:	636f746f 	cmnvs	pc, #1862270976	; 0x6f000000
    ce18:	77206c6f 	strvc	r6, [r0, -pc, ror #24]!
    ce1c:	676e6f72 	undefined
    ce20:	70797420 	rsbvcs	r7, r9, r0, lsr #8
    ce24:	6f662065 	swivs	0x00662065
    ce28:	6f732072 	swivs	0x00732072
    ce2c:	74656b63 	strvcbt	r6, [r5], -#2915
    ce30:	6f725000 	swivs	0x00725000
    ce34:	6f636f74 	swivs	0x00636f74
    ce38:	6f6e206c 	swivs	0x006e206c
    ce3c:	76612074 	undefined
    ce40:	616c6961 	cmnvs	ip, r1, ror #18
    ce44:	00656c62 	rsbeq	r6, r5, r2, ror #24
    ce48:	746f7250 	strvcbt	r7, [pc], #250	; ce50 <_string_syserrmsgs+0x81c>
    ce4c:	6c6f636f 	stcvsl	3, cr6, [pc], -#444
    ce50:	746f6e20 	strvcbt	r6, [pc], #e20	; ce58 <_string_syserrmsgs+0x824>
    ce54:	70757320 	rsbvcs	r7, r5, r0, lsr #6
    ce58:	74726f70 	ldrvcbt	r6, [r2], -#3952
    ce5c:	53006465 	tstpl	r0, #1694498816	; 0x65000000
    ce60:	656b636f 	strvsb	r6, [fp, -#879]!
    ce64:	79742074 	ldmvcdb	r4!, {r2, r4, r5, r6, sp}^
    ce68:	6e206570 	mcrvs	5, 1, r6, cr0, cr0, {3}
    ce6c:	7320746f 	teqvc	r0, #1862270976	; 0x6f000000
    ce70:	6f707075 	swivs	0x00707075
    ce74:	64657472 	strvsbt	r7, [r5], -#1138
    ce78:	65704f00 	ldrvsb	r4, [r0, -#3840]!
    ce7c:	69746172 	ldmvsdb	r4!, {r1, r4, r5, r6, r8, sp, lr}^
    ce80:	6e206e6f 	cdpvs	14, 2, cr6, cr0, cr15, {3}
    ce84:	7320746f 	teqvc	r0, #1862270976	; 0x6f000000
    ce88:	6f707075 	swivs	0x00707075
    ce8c:	64657472 	strvsbt	r7, [r5], -#1138
    ce90:	6f725000 	swivs	0x00725000
    ce94:	6f636f74 	swivs	0x00636f74
    ce98:	6166206c 	cmnvs	r6, ip, rrx
    ce9c:	796c696d 	stmvcdb	ip!, {r0, r2, r3, r5, r6, r8, fp, sp, lr}^
    cea0:	746f6e20 	strvcbt	r6, [pc], #e20	; cea8 <_string_syserrmsgs+0x874>
    cea4:	70757320 	rsbvcs	r7, r5, r0, lsr #6
    cea8:	74726f70 	ldrvcbt	r6, [r2], -#3952
    ceac:	41006465 	tstmi	r0, r5, ror #8
    ceb0:	65726464 	ldrvsb	r6, [r2, -#1124]!
    ceb4:	66207373 	undefined
    ceb8:	6c696d61 	stcvsl	13, cr6, [r9], -#388
    cebc:	6f6e2079 	swivs	0x006e2079
    cec0:	75732074 	ldrvcb	r2, [r3, -#116]!
    cec4:	726f7070 	rsbvc	r7, pc, #112	; 0x70
    cec8:	20646574 	rsbcs	r6, r4, r4, ror r5
    cecc:	70207962 	eorvc	r7, r0, r2, ror #18
    ced0:	6f746f72 	swivs	0x00746f72
    ced4:	006c6f63 	rsbeq	r6, ip, r3, ror #30
    ced8:	72646441 	rsbvc	r6, r4, #1090519040	; 0x41000000
    cedc:	20737365 	rsbcss	r7, r3, r5, ror #6
    cee0:	65726c61 	ldrvsb	r6, [r2, -#3169]!
    cee4:	20796461 	rsbcss	r6, r9, r1, ror #8
    cee8:	75206e69 	strvc	r6, [r0, -#3689]!
    ceec:	43006573 	tstmi	r0, #482344960	; 0x1cc00000
    cef0:	6f6e6e61 	swivs	0x006e6e61
    cef4:	73612074 	cmnvc	r1, #116	; 0x74
    cef8:	6e676973 	mcrvs	9, 3, r6, cr7, cr3, {3}
    cefc:	71657220 	cmnvc	r5, r0, lsr #4
    cf00:	74736575 	ldrvcbt	r6, [r3], -#1397
    cf04:	61206465 	teqvs	r0, r5, ror #8
    cf08:	65726464 	ldrvsb	r6, [r2, -#1124]!
    cf0c:	4e007373 	mcrmi	3, 0, r7, cr0, cr3, {3}
    cf10:	6f777465 	swivs	0x00777465
    cf14:	69206b72 	stmvsdb	r0!, {r1, r4, r5, r6, r8, r9, fp, sp, lr}
    cf18:	6f642073 	swivs	0x00642073
    cf1c:	4e006e77 	mcrmi	14, 0, r6, cr0, cr7, {3}
    cf20:	6f777465 	swivs	0x00777465
    cf24:	69206b72 	stmvsdb	r0!, {r1, r4, r5, r6, r8, r9, fp, sp, lr}
    cf28:	6e752073 	mrcvs	0, 3, r2, cr5, cr3, {3}
    cf2c:	63616572 	cmnvs	r1, #478150656	; 0x1c800000
    cf30:	6c626168 	stfvse	f6, [r2], -#416
    cf34:	654e0065 	strvsb	r0, [lr, -#101]
    cf38:	726f7774 	rsbvc	r7, pc, #30408704	; 0x1d00000
    cf3c:	7264206b 	rsbvc	r2, r4, #107	; 0x6b
    cf40:	6570706f 	ldrvsb	r7, [r0, -#111]!
    cf44:	6f632064 	swivs	0x00632064
    cf48:	63656e6e 	cmnvs	r5, #1760	; 0x6e0
    cf4c:	6e6f6974 	mcrvs	9, 3, r6, cr15, cr4, {3}
    cf50:	206e6f20 	rsbcs	r6, lr, r0, lsr #30
    cf54:	65736572 	ldrvsb	r6, [r3, -#1394]!
    cf58:	6f530074 	swivs	0x00530074
    cf5c:	61777466 	cmnvs	r7, r6, ror #8
    cf60:	63206572 	teqvs	r0, #478150656	; 0x1c800000
    cf64:	65737561 	ldrvsb	r7, [r3, -#1377]!
    cf68:	6f632064 	swivs	0x00632064
    cf6c:	63656e6e 	cmnvs	r5, #1760	; 0x6e0
    cf70:	6e6f6974 	mcrvs	9, 3, r6, cr15, cr4, {3}
    cf74:	6f626120 	swivs	0x00626120
    cf78:	43007472 	tstmi	r0, #1912602624	; 0x72000000
    cf7c:	656e6e6f 	strvsb	r6, [lr, -#3695]!
    cf80:	6f697463 	swivs	0x00697463
    cf84:	6572206e 	ldrvsb	r2, [r2, -#110]!
    cf88:	20746573 	rsbcss	r6, r4, r3, ror r5
    cf8c:	70207962 	eorvc	r7, r0, r2, ror #18
    cf90:	00726565 	rsbeqs	r6, r2, r5, ror #10
    cf94:	62206f4e 	eorvs	r6, r0, #312	; 0x138
    cf98:	65666675 	strvsb	r6, [r6, -#1653]!
    cf9c:	70732072 	rsbvcs	r2, r3, r2, ror r0
    cfa0:	20656361 	rsbcs	r6, r5, r1, ror #6
    cfa4:	69617661 	stmvsdb	r1!, {r0, r5, r6, r9, sl, ip, sp, lr}^
    cfa8:	6c62616c 	stfvse	f6, [r2], -#432
    cfac:	72540065 	subvcs	r0, r4, #101	; 0x65
    cfb0:	70736e61 	rsbvcs	r6, r3, r1, ror #28
    cfb4:	2074726f 	rsbcss	r7, r4, pc, ror #4
    cfb8:	70646e65 	rsbvc	r6, r4, r5, ror #28
    cfbc:	746e696f 	strvcbt	r6, [lr], -#2415
    cfc0:	20736920 	rsbcss	r6, r3, r0, lsr #18
    cfc4:	65726c61 	ldrvsb	r6, [r2, -#3169]!
    cfc8:	20796461 	rsbcss	r6, r9, r1, ror #8
    cfcc:	6e6e6f63 	cdpvs	15, 6, cr6, cr14, cr3, {3}
    cfd0:	65746365 	ldrvsb	r6, [r4, -#869]!
    cfd4:	72540064 	subvcs	r0, r4, #100	; 0x64
    cfd8:	70736e61 	rsbvcs	r6, r3, r1, ror #28
    cfdc:	2074726f 	rsbcss	r7, r4, pc, ror #4
    cfe0:	70646e65 	rsbvc	r6, r4, r5, ror #28
    cfe4:	746e696f 	strvcbt	r6, [lr], -#2415
    cfe8:	20736920 	rsbcss	r6, r3, r0, lsr #18
    cfec:	20746f6e 	rsbcss	r6, r4, lr, ror #30
    cff0:	6e6e6f63 	cdpvs	15, 6, cr6, cr14, cr3, {3}
    cff4:	65746365 	ldrvsb	r6, [r4, -#869]!
    cff8:	61430064 	cmpvs	r3, r4, rrx
    cffc:	746f6e6e 	strvcbt	r6, [pc], #e6e	; d004 <_string_syserrmsgs+0x9d0>
    d000:	6e657320 	cdpvs	3, 6, cr7, cr5, cr0, {1}
    d004:	66612064 	strvsbt	r2, [r1], -r4, rrx
    d008:	20726574 	rsbcss	r6, r2, r4, ror r5
    d00c:	6e617274 	mcrvs	2, 3, r7, cr1, cr4, {3}
    d010:	726f7073 	rsbvc	r7, pc, #115	; 0x73
    d014:	6e652074 	mcrvs	0, 3, r2, cr5, cr4, {3}
    d018:	696f7064 	stmvsdb	pc!, {r2, r5, r6, ip, sp, lr}^
    d01c:	7320746e 	teqvc	r0, #1845493760	; 0x6e000000
    d020:	64747568 	ldrvsbt	r7, [r4], -#1384
    d024:	006e776f 	rsbeq	r7, lr, pc, ror #14
    d028:	206f6f54 	rsbcs	r6, pc, r4, asr pc
    d02c:	796e616d 	stmvcdb	lr!, {r0, r2, r3, r5, r6, r8, sp, lr}^
    d030:	66657220 	strvsbt	r7, [r5], -r0, lsr #4
    d034:	6e657265 	cdpvs	2, 6, cr7, cr5, cr5, {3}
    d038:	3a736563 	bcc	1ce65cc <__bss_end__+0x1cd7bc4>
    d03c:	6e616320 	cdpvs	3, 6, cr6, cr1, cr0, {1}
    d040:	20746f6e 	rsbcss	r6, r4, lr, ror #30
    d044:	696c7073 	stmvsdb	ip!, {r0, r1, r4, r5, r6, ip, sp, lr}^
    d048:	43006563 	tstmi	r0, #415236096	; 0x18c00000
    d04c:	656e6e6f 	strvsb	r6, [lr, -#3695]!
    d050:	6f697463 	swivs	0x00697463
    d054:	6974206e 	ldmvsdb	r4!, {r1, r2, r3, r5, r6, sp}^
    d058:	2064656d 	rsbcs	r6, r4, sp, ror #10
    d05c:	0074756f 	rsbeqs	r7, r4, pc, ror #10
    d060:	6e6e6f43 	cdpvs	15, 6, cr6, cr14, cr3, {2}
    d064:	69746365 	ldmvsdb	r4!, {r0, r2, r5, r6, r8, r9, sp, lr}^
    d068:	72206e6f 	eorvc	r6, r0, #1776	; 0x6f0
    d06c:	73756665 	cmnvc	r5, #105906176	; 0x6500000
    d070:	48006465 	stmmida	r0, {r0, r2, r5, r6, sl, sp, lr}
    d074:	2074736f 	rsbcss	r7, r4, pc, ror #6
    d078:	64207369 	strvst	r7, [r0], -#873
    d07c:	006e776f 	rsbeq	r7, lr, pc, ror #14
    d080:	72206f4e 	eorvc	r6, r0, #312	; 0x138
    d084:	6574756f 	ldrvsb	r7, [r4, -#1391]!
    d088:	206f7420 	rsbcs	r7, pc, r0, lsr #8
    d08c:	74736f68 	ldrvcbt	r6, [r3], -#3944
    d090:	65704f00 	ldrvsb	r4, [r0, -#3840]!
    d094:	69746172 	ldmvsdb	r4!, {r1, r4, r5, r6, r8, sp, lr}^
    d098:	61206e6f 	teqvs	r0, pc, ror #28
    d09c:	6165726c 	cmnvs	r5, ip, ror #4
    d0a0:	69207964 	stmvsdb	r0!, {r2, r5, r6, r8, fp, ip, sp, lr}
    d0a4:	7270206e 	rsbvcs	r2, r0, #110	; 0x6e
    d0a8:	6572676f 	ldrvsb	r6, [r2, -#1903]!
    d0ac:	4f007373 	swimi	0x00007373
    d0b0:	61726570 	cmnvs	r2, r0, ror r5
    d0b4:	6e6f6974 	mcrvs	9, 3, r6, cr15, cr4, {3}
    d0b8:	776f6e20 	strvcb	r6, [pc, -r0, lsr #28]!
    d0bc:	206e6920 	rsbcs	r6, lr, r0, lsr #18
    d0c0:	676f7270 	undefined
    d0c4:	73736572 	cmnvc	r3, #478150656	; 0x1c800000
    d0c8:	61745300 	cmnvs	r4, r0, lsl #6
    d0cc:	4e20656c 	cdpmi	5, 2, cr6, cr0, cr12, {3}
    d0d0:	66205346 	strvst	r5, [r0], -r6, asr #6
    d0d4:	20656c69 	rsbcs	r6, r5, r9, ror #24
    d0d8:	646e6168 	strvsbt	r6, [lr], -#360
    d0dc:	5300656c 	tstpl	r0, #452984832	; 0x1b000000
    d0e0:	63757274 	cmnvs	r5, #1073741831	; 0x40000007
    d0e4:	65727574 	ldrvsb	r7, [r2, -#1396]!
    d0e8:	65656e20 	strvsb	r6, [r5, -#3616]!
    d0ec:	63207364 	teqvs	r0, #-1879048191	; 0x90000001
    d0f0:	6e61656c 	cdpvs	5, 6, cr6, cr1, cr12, {3}
    d0f4:	00676e69 	rsbeq	r6, r7, r9, ror #28
    d0f8:	20746f4e 	rsbcss	r6, r4, lr, asr #30
    d0fc:	45582061 	ldrmib	r2, [r8, -#97]
    d100:	2058494e 	subcss	r4, r8, lr, asr #18
    d104:	656d616e 	strvsb	r6, [sp, -#366]!
    d108:	79742064 	ldmvcdb	r4!, {r2, r5, r6, sp}^
    d10c:	66206570 	undefined
    d110:	00656c69 	rsbeq	r6, r5, r9, ror #24
    d114:	58206f4e 	stmplda	r0!, {r1, r2, r3, r6, r8, r9, sl, fp, sp, lr}
    d118:	58494e45 	stmplda	r9, {r0, r2, r6, r9, sl, fp, lr}^
    d11c:	6d657320 	stcvsl	3, cr7, [r5, -#128]!
    d120:	6f687061 	swivs	0x00687061
    d124:	20736572 	rsbcss	r6, r3, r2, ror r5
    d128:	69617661 	stmvsdb	r1!, {r0, r5, r6, r9, sl, ip, sp, lr}^
    d12c:	6c62616c 	stfvse	f6, [r2], -#432
    d130:	73490065 	cmpvc	r9, #101	; 0x65
    d134:	6e206120 	sufvssp	f6, f0, f0
    d138:	64656d61 	strvsbt	r6, [r5], -#3425
    d13c:	70797420 	rsbvcs	r7, r9, r0, lsr #8
    d140:	69662065 	stmvsdb	r6!, {r0, r2, r5, r6, sp}^
    d144:	5200656c 	andpl	r6, r0, #452984832	; 0x1b000000
    d148:	746f6d65 	strvcbt	r6, [pc], #d65	; d150 <_string_syserrmsgs+0xb1c>
    d14c:	2f492065 	swics	0x00492065
    d150:	7265204f 	rsbvc	r2, r5, #79	; 0x4f
    d154:	00726f72 	rsbeqs	r6, r2, r2, ror pc
    d158:	6b736944 	blvs	1ce7670 <__bss_end__+0x1cd8c68>
    d15c:	6f757120 	swivs	0x00757120
    d160:	65206174 	strvs	r6, [r0, -#372]!
    d164:	65656378 	strvsb	r6, [r5, -#888]!
    d168:	00646564 	rsbeq	r6, r4, r4, ror #10
    d16c:	6d206f4e 	stcvs	15, cr6, [r0, -#312]!
    d170:	75696465 	strvcb	r6, [r9, -#1125]!
    d174:	6f66206d 	swivs	0x0066206d
    d178:	00646e75 	rsbeq	r6, r4, r5, ror lr
    d17c:	6e6f7257 	mcrvs	2, 3, r7, cr15, cr7, {2}
    d180:	656d2067 	strvsb	r2, [sp, -#103]!
    d184:	6d756964 	ldcvsl	9, cr6, [r5, -#400]!
    d188:	70797420 	rsbvcs	r7, r9, r0, lsr #8
    d18c:	00000065 	andeq	r0, r0, r5, rrx

0000d190 <type_codes>:
    d190:	00050008 	andeq	r0, r5, r8
    d194:	00040003 	andeq	r0, r4, r3
    d198:	02000001 	andeq	r0, r0, #1	; 0x1
    d19c:	04000000 	streq	r0, [r0]
    d1a0:	00020800 	andeq	r0, r2, r0, lsl #16

0000d1a4 <type_sizes>:
    d1a4:	01010100 	tsteq	r1, r0, lsl #2
    d1a8:	01010204 	tsteq	r1, r4, lsl #4
    d1ac:	00000101 	andeq	r0, r0, r1, lsl #2

0000d1b0 <spec_flags.0>:
    d1b0:	2d302b20 	ldccs	11, cr2, [r0, -#128]!
    d1b4:	00492723 	subeq	r2, r9, r3, lsr #14

0000d1b8 <spec_chars.1>:
    d1b8:	5878706e 	ldmplda	r8!, {r1, r2, r3, r5, r6, ip, sp, lr}^
    d1bc:	6964756f 	stmvsdb	r4!, {r0, r1, r2, r3, r5, r6, r8, sl, ip, sp, lr}^
    d1c0:	45654666 	strmib	r4, [r5, -#1638]!
    d1c4:	41614767 	cmnmi	r1, r7, ror #14
    d1c8:	73635343 	cmnvc	r3, #201326593	; 0xc000001
	...

0000d1cd <spec_ranges.2>:
    d1cd:	0f070100 	swieq	0x00070100
    d1d1:	13121110 	tstne	r2, #4	; 0x4
    d1d5:	05100015 	ldreq	r0, [r0, -#21]

0000d1d6 <spec_or_mask.3>:
    d1d6:	00051000 	andeq	r1, r5, r0
    d1da:	00070000 	andeq	r0, r7, r0
    d1de:	00040002 	andeq	r0, r4, r2
    d1e2:	00030001 	andeq	r0, r3, r1

0000d1e6 <spec_and_mask.4>:
    d1e6:	00051f00 	andeq	r1, r5, r0, lsl #30
    d1ea:	08070f00 	stmeqda	r7, {r8, r9, sl, fp}
    d1ee:	00040002 	andeq	r0, r4, r2
    d1f2:	00030001 	andeq	r0, r3, r1

0000d1f6 <qual_chars.5>:
    d1f6:	6a4c6c68 	bvs	132839e <__bss_end__+0x1319996>
    d1fa:	5a71747a 	bpl	1c6a3ea <__bss_end__+0x1c5b9e2>
    d1fe:	08040200 	stmeqda	r4, {r9}
    d202:	08000008 	stmeqda	r0, {r3}
    d206:	08010000 	stmeqda	r1, {}
    d20a:	41500000 	cmpmi	r0, r0
    d20e:	00004854 	andeq	r4, r0, r4, asr r8
    d212:	622f0000 	eorvs	r0, pc, #0	; 0x0
    d216:	2f3a6e69 	swics	0x003a6e69
    d21a:	2f727375 	swics	0x00727375
    d21e:	006e6962 	rsbeq	r6, lr, r2, ror #18
    d222:	002f0000 	eoreq	r0, pc, r0
	...

0000d228 <version>:
    d228:	2e312e31 	mrccs	14, 1, r2, cr1, cr1, {1}
    d22c:	00000031 	andeq	r0, r0, r1, lsr r0

0000d230 <cmdtab>:
    d230:	00006463 	andeq	r6, r0, r3, ror #8
    d234:	00000000 	andeq	r0, r0, r0
    d238:	645b0000 	ldrvsb	r0, [fp]
    d23c:	616e7269 	cmnvs	lr, r9, ror #4
    d240:	005d656d 	subeqs	r6, sp, sp, ror #10
	...
    d25c:	00000001 	andeq	r0, r0, r1
    d260:	00000002 	andeq	r0, r0, r2
    d264:	65656c73 	strvsb	r6, [r5, -#3187]!
    d268:	00000070 	andeq	r0, r0, r0, ror r0
    d26c:	65730000 	ldrvsb	r0, [r3]!
    d270:	646e6f63 	strvsbt	r6, [lr], -#3939
    d274:	00000073 	andeq	r0, r0, r3, ror r0
	...
    d290:	00000001 	andeq	r0, r0, r1
    d294:	00000002 	andeq	r0, r0, r2
    d298:	72676863 	rsbvc	r6, r7, #6488064	; 0x630000
    d29c:	00000070 	andeq	r0, r0, r0, ror r0
    d2a0:	69670000 	stmvsdb	r7!, {}^
    d2a4:	69662064 	stmvsdb	r6!, {r2, r5, r6, sp}^
    d2a8:	616e656c 	cmnvs	lr, ip, ror #10
    d2ac:	2e20656d 	cdpcs	5, 2, cr6, cr0, cr13, {3}
    d2b0:	00002e2e 	andeq	r2, r0, lr, lsr #28
	...
    d2c4:	00000003 	andeq	r0, r0, r3
    d2c8:	00000032 	andeq	r0, r0, r2, lsr r0
    d2cc:	6f6d6863 	swivs	0x006d6863
    d2d0:	00000064 	andeq	r0, r0, r4, rrx
    d2d4:	6f6d0000 	swivs	0x006d0000
    d2d8:	66206564 	strvst	r6, [r0], -r4, ror #10
    d2dc:	6e656c69 	cdpvs	12, 6, cr6, cr5, cr9, {3}
    d2e0:	20656d61 	rsbcs	r6, r5, r1, ror #26
    d2e4:	002e2e2e 	eoreq	r2, lr, lr, lsr #28
	...
    d2f8:	00000003 	andeq	r0, r0, r3
    d2fc:	00000032 	andeq	r0, r0, r2, lsr r0
    d300:	776f6863 	strvcb	r6, [pc, -r3, ror #16]!
    d304:	0000006e 	andeq	r0, r0, lr, rrx
    d308:	69750000 	ldmvsdb	r5!, {}^
    d30c:	69662064 	stmvsdb	r6!, {r2, r5, r6, sp}^
    d310:	616e656c 	cmnvs	lr, ip, ror #10
    d314:	2e20656d 	cdpcs	5, 2, cr6, cr0, cr13, {3}
    d318:	00002e2e 	andeq	r2, r0, lr, lsr #28
	...
    d32c:	00000003 	andeq	r0, r0, r3
    d330:	00000032 	andeq	r0, r0, r2, lsr r0
    d334:	00706d63 	rsbeqs	r6, r0, r3, ror #26
    d338:	00000000 	andeq	r0, r0, r0
    d33c:	69660000 	stmvsdb	r6!, {}^
    d340:	616e656c 	cmnvs	lr, ip, ror #10
    d344:	2031656d 	eorcss	r6, r1, sp, ror #10
    d348:	656c6966 	strvsb	r6, [ip, -#2406]!
    d34c:	656d616e 	strvsb	r6, [sp, -#366]!
    d350:	00000032 	andeq	r0, r0, r2, lsr r0
	...
    d360:	00000003 	andeq	r0, r0, r3
    d364:	00000003 	andeq	r0, r0, r3
    d368:	00007063 	andeq	r7, r0, r3, rrx
    d36c:	00000000 	andeq	r0, r0, r0
    d370:	72730000 	rsbvcs	r0, r3, #0	; 0x0
    d374:	6d616e63 	stcvsl	14, cr6, [r1, -#396]!
    d378:	2e2e2065 	cdpcs	0, 2, cr2, cr14, cr5, {3}
    d37c:	6564202e 	strvsb	r2, [r4, -#46]!
    d380:	616e7473 	cmnvs	lr, r3, ror r4
    d384:	0000656d 	andeq	r6, r0, sp, ror #10
	...
    d394:	00000003 	andeq	r0, r0, r3
    d398:	00000032 	andeq	r0, r0, r2, lsr r0
    d39c:	00006664 	andeq	r6, r0, r4, ror #12
    d3a0:	00000000 	andeq	r0, r0, r0
    d3a4:	665b0000 	ldrvsb	r0, [fp], -r0
    d3a8:	2d656c69 	stccsl	12, cr6, [r5, -#420]!
    d3ac:	74737973 	ldrvcbt	r7, [r3], -#2419
    d3b0:	005d6d65 	subeqs	r6, sp, r5, ror #26
	...
    d3c8:	00000001 	andeq	r0, r0, r1
    d3cc:	00000002 	andeq	r0, r0, r2
    d3d0:	6f686365 	swivs	0x00686365
    d3d4:	00000000 	andeq	r0, r0, r0
    d3d8:	615b0000 	cmpvs	fp, r0
    d3dc:	5d736772 	ldcpll	7, cr6, [r3, -#456]!
    d3e0:	2e2e2e20 	cdpcs	14, 2, cr2, cr14, cr0, {1}
	...
    d3fc:	00000001 	andeq	r0, r0, r1
    d400:	00000032 	andeq	r0, r0, r2, lsr r0
    d404:	63657865 	cmnvs	r5, #6619136	; 0x650000
    d408:	00000000 	andeq	r0, r0, r0
    d40c:	69660000 	stmvsdb	r6!, {}^
    d410:	616e656c 	cmnvs	lr, ip, ror #10
    d414:	5b20656d 	blpl	8269d0 <__bss_end__+0x817fc8>
    d418:	73677261 	cmnvc	r7, #268435462	; 0x10000006
    d41c:	0000005d 	andeq	r0, r0, sp, asr r0
	...
    d430:	00000002 	andeq	r0, r0, r2
    d434:	00000032 	andeq	r0, r0, r2, lsr r0
    d438:	74697865 	strvcbt	r7, [r9], -#2149
	...
    d464:	00000001 	andeq	r0, r0, r1
    d468:	00000001 	andeq	r0, r0, r1
    d46c:	65657266 	strvsb	r7, [r5, -#614]!
	...
    d498:	00000001 	andeq	r0, r0, r1
    d49c:	00000001 	andeq	r0, r0, r1
    d4a0:	706c6568 	rsbvc	r6, ip, r8, ror #10
	...
    d4cc:	00000001 	andeq	r0, r0, r1
    d4d0:	00000032 	andeq	r0, r0, r2, lsr r0
    d4d4:	64786568 	ldrvsbt	r6, [r8], -#1384
    d4d8:	00706d75 	rsbeqs	r6, r0, r5, ror sp
    d4dc:	2d5b0000 	ldccsl	0, cr0, [fp]
    d4e0:	66205d73 	undefined
    d4e4:	6e656c69 	cdpvs	12, 6, cr6, cr5, cr9, {3}
    d4e8:	00656d61 	rsbeq	r6, r5, r1, ror #26
	...
    d500:	00000001 	andeq	r0, r0, r1
    d504:	00000003 	andeq	r0, r0, r3
    d508:	74736f68 	ldrvcbt	r6, [r3], -#3944
    d50c:	656d616e 	strvsb	r6, [sp, -#366]!
    d510:	685b0000 	ldmvsda	fp, {}^
    d514:	6e74736f 	cdpvs	3, 7, cr7, cr4, cr15, {3}
    d518:	5d656d61 	stcpll	13, cr6, [r5, -#388]!
	...
    d534:	00000001 	andeq	r0, r0, r1
    d538:	00000002 	andeq	r0, r0, r2
    d53c:	6c6c696b 	stcvsl	9, cr6, [ip], -#428
    d540:	00000000 	andeq	r0, r0, r0
    d544:	2d5b0000 	ldccsl	0, cr0, [fp]
    d548:	5d676973 	stcpll	9, cr6, [r7, -#460]!
    d54c:	64697020 	strvsbt	r7, [r9], -#32
    d550:	2e2e2e20 	cdpcs	14, 2, cr2, cr14, cr0, {1}
	...
    d568:	00000002 	andeq	r0, r0, r2
    d56c:	00000032 	andeq	r0, r0, r2, lsr r0
    d570:	00006e6c 	andeq	r6, r0, ip, ror #28
    d574:	00000000 	andeq	r0, r0, r0
    d578:	2d5b0000 	ldccsl	0, cr0, [fp]
    d57c:	73205d73 	teqvc	r0, #7360	; 0x1cc0
    d580:	616e6372 	cmnvs	lr, r2, ror r3
    d584:	2e20656d 	cdpcs	5, 2, cr6, cr0, cr13, {3}
    d588:	64202e2e 	strvst	r2, [r0], -#3630
    d58c:	6e747365 	cdpvs	3, 7, cr7, cr4, cr5, {3}
    d590:	00656d61 	rsbeq	r6, r5, r1, ror #26
	...
    d59c:	00000003 	andeq	r0, r0, r3
    d5a0:	00000032 	andeq	r0, r0, r2, lsr r0
    d5a4:	0000736c 	andeq	r7, r0, ip, ror #6
    d5a8:	00000000 	andeq	r0, r0, r0
    d5ac:	2d5b0000 	ldccsl	0, cr0, [fp]
    d5b0:	4364696c 	cmnmi	r4, #1769472	; 0x1b0000
    d5b4:	6966205d 	stmvsdb	r6!, {r0, r2, r3, r4, r6, sp}^
    d5b8:	616e656c 	cmnvs	lr, ip, ror #10
    d5bc:	2e20656d 	cdpcs	5, 2, cr6, cr0, cr13, {3}
    d5c0:	00002e2e 	andeq	r2, r0, lr, lsr #28
	...
    d5d0:	00000001 	andeq	r0, r0, r1
    d5d4:	00000032 	andeq	r0, r0, r2, lsr r0
    d5d8:	69646b6d 	stmvsdb	r4!, {r0, r2, r3, r5, r6, r8, r9, fp, sp, lr}^
    d5dc:	00000072 	andeq	r0, r0, r2, ror r0
    d5e0:	69640000 	stmvsdb	r4!, {}^
    d5e4:	6d616e72 	stcvsl	14, cr6, [r1, -#456]!
    d5e8:	2e2e2065 	cdpcs	0, 2, cr2, cr14, cr5, {3}
    d5ec:	0000002e 	andeq	r0, r0, lr, lsr #32
	...
    d604:	00000002 	andeq	r0, r0, r2
    d608:	00000032 	andeq	r0, r0, r2, lsr r0
    d60c:	6f6e6b6d 	swivs	0x006e6b6d
    d610:	00000064 	andeq	r0, r0, r4, rrx
    d614:	69660000 	stmvsdb	r6!, {}^
    d618:	616e656c 	cmnvs	lr, ip, ror #10
    d61c:	7420656d 	strvct	r6, [r0], -#1389
    d620:	20657079 	rsbcs	r7, r5, r9, ror r0
    d624:	6f6a616d 	swivs	0x006a616d
    d628:	696d2072 	stmvsdb	sp!, {r1, r4, r5, r6, sp}^
    d62c:	00726f6e 	rsbeqs	r6, r2, lr, ror #30
	...
    d638:	00000005 	andeq	r0, r0, r5
    d63c:	00000005 	andeq	r0, r0, r5
    d640:	65726f6d 	ldrvsb	r6, [r2, -#3949]!
    d644:	00000000 	andeq	r0, r0, r0
    d648:	69660000 	stmvsdb	r6!, {}^
    d64c:	616e656c 	cmnvs	lr, ip, ror #10
    d650:	2e20656d 	cdpcs	5, 2, cr6, cr0, cr13, {3}
    d654:	00002e2e 	andeq	r2, r0, lr, lsr #28
	...
    d66c:	00000002 	andeq	r0, r0, r2
    d670:	00000032 	andeq	r0, r0, r2, lsr r0
    d674:	6e756f6d 	cdpvs	15, 7, cr6, cr5, cr13, {3}
    d678:	00000074 	andeq	r0, r0, r4, ror r0
    d67c:	2d5b0000 	ldccsl	0, cr0, [fp]
    d680:	79742074 	ldmvcdb	r4!, {r2, r4, r5, r6, sp}^
    d684:	205d6570 	subcss	r6, sp, r0, ror r5
    d688:	6e766564 	cdpvs	5, 7, cr6, cr6, cr4, {3}
    d68c:	20656d61 	rsbcs	r6, r5, r1, ror #26
    d690:	6e726964 	cdpvs	9, 7, cr6, cr2, cr4, {3}
    d694:	00656d61 	rsbeq	r6, r5, r1, ror #26
	...
    d6a0:	00000003 	andeq	r0, r0, r3
    d6a4:	00000032 	andeq	r0, r0, r2, lsr r0
    d6a8:	0000766d 	andeq	r7, r0, sp, ror #12
    d6ac:	00000000 	andeq	r0, r0, r0
    d6b0:	72730000 	rsbvcs	r0, r3, #0	; 0x0
    d6b4:	6d616e63 	stcvsl	14, cr6, [r1, -#396]!
    d6b8:	2e2e2065 	cdpcs	0, 2, cr2, cr14, cr5, {3}
    d6bc:	6564202e 	strvsb	r2, [r4, -#46]!
    d6c0:	616e7473 	cmnvs	lr, r3, ror r4
    d6c4:	0000656d 	andeq	r6, r0, sp, ror #10
	...
    d6d4:	00000003 	andeq	r0, r0, r3
    d6d8:	00000032 	andeq	r0, r0, r2, lsr r0
    d6dc:	6e697270 	mcrvs	2, 3, r7, cr9, cr0, {3}
    d6e0:	766e6574 	undefined
    d6e4:	6e5b0000 	cdpvs	0, 5, cr0, cr11, cr0, {0}
    d6e8:	5d656d61 	stcpll	13, cr6, [r5, -#388]!
	...
    d708:	00000001 	andeq	r0, r0, r1
    d70c:	00000002 	andeq	r0, r0, r2
    d710:	00647770 	rsbeq	r7, r4, r0, ror r7
	...
    d73c:	00000001 	andeq	r0, r0, r1
    d740:	00000001 	andeq	r0, r0, r1
    d744:	00646970 	rsbeq	r6, r4, r0, ror r9
	...
    d770:	00000001 	andeq	r0, r0, r1
    d774:	00000001 	andeq	r0, r0, r1
    d778:	74697571 	strvcbt	r7, [r9], -#1393
	...
    d7a4:	00000001 	andeq	r0, r0, r1
    d7a8:	00000001 	andeq	r0, r0, r1
    d7ac:	00006d72 	andeq	r6, r0, r2, ror sp
    d7b0:	00000000 	andeq	r0, r0, r0
    d7b4:	69660000 	stmvsdb	r6!, {}^
    d7b8:	616e656c 	cmnvs	lr, ip, ror #10
    d7bc:	2e20656d 	cdpcs	5, 2, cr6, cr0, cr13, {3}
    d7c0:	00002e2e 	andeq	r2, r0, lr, lsr #28
	...
    d7d8:	00000002 	andeq	r0, r0, r2
    d7dc:	00000032 	andeq	r0, r0, r2, lsr r0
    d7e0:	69646d72 	stmvsdb	r4!, {r1, r4, r5, r6, r8, sl, fp, sp, lr}^
    d7e4:	00000072 	andeq	r0, r0, r2, ror r0
    d7e8:	69640000 	stmvsdb	r4!, {}^
    d7ec:	6d616e72 	stcvsl	14, cr6, [r1, -#456]!
    d7f0:	2e2e2065 	cdpcs	0, 2, cr2, cr14, cr5, {3}
    d7f4:	0000002e 	andeq	r0, r0, lr, lsr #32
	...
    d80c:	00000002 	andeq	r0, r0, r2
    d810:	00000032 	andeq	r0, r0, r2, lsr r0
    d814:	65746573 	ldrvsb	r6, [r4, -#1395]!
    d818:	0000766e 	andeq	r7, r0, lr, ror #12
    d81c:	616e0000 	cmnvs	lr, r0
    d820:	7620656d 	strvct	r6, [r0], -sp, ror #10
    d824:	65756c61 	ldrvsb	r6, [r5, -#3169]!
	...
    d840:	00000003 	andeq	r0, r0, r3
    d844:	00000003 	andeq	r0, r0, r3
    d848:	72756f73 	rsbvcs	r6, r5, #460	; 0x1cc
    d84c:	00006563 	andeq	r6, r0, r3, ror #10
    d850:	69660000 	stmvsdb	r6!, {}^
    d854:	616e656c 	cmnvs	lr, ip, ror #10
    d858:	0000656d 	andeq	r6, r0, sp, ror #10
	...
    d874:	00000002 	andeq	r0, r0, r2
    d878:	00000002 	andeq	r0, r0, r2
    d87c:	636e7973 	cmnvs	lr, #1884160	; 0x1cc000
	...
    d8a8:	00000001 	andeq	r0, r0, r1
    d8ac:	00000001 	andeq	r0, r0, r1
    d8b0:	63756f74 	cmnvs	r5, #464	; 0x1d0
    d8b4:	00000068 	andeq	r0, r0, r8, rrx
    d8b8:	69660000 	stmvsdb	r6!, {}^
    d8bc:	616e656c 	cmnvs	lr, ip, ror #10
    d8c0:	2e20656d 	cdpcs	5, 2, cr6, cr0, cr13, {3}
    d8c4:	00002e2e 	andeq	r2, r0, lr, lsr #28
	...
    d8dc:	00000002 	andeq	r0, r0, r2
    d8e0:	00000032 	andeq	r0, r0, r2, lsr r0
    d8e4:	73616d75 	cmnvc	r1, #7488	; 0x1d40
    d8e8:	0000006b 	andeq	r0, r0, fp, rrx
    d8ec:	6d5b0000 	ldcvsl	0, cr0, [fp]
    d8f0:	5d6b7361 	stcpll	3, cr7, [fp, -#388]!
	...
    d910:	00000001 	andeq	r0, r0, r1
    d914:	00000002 	andeq	r0, r0, r2
    d918:	756f6d75 	strvcb	r6, [pc, #fffff28b]!	; cbab <_string_syserrmsgs+0x577>
    d91c:	0000746e 	andeq	r7, r0, lr, ror #8
    d920:	69660000 	stmvsdb	r6!, {}^
    d924:	616e656c 	cmnvs	lr, ip, ror #10
    d928:	0000656d 	andeq	r6, r0, sp, ror #10
	...
    d944:	00000002 	andeq	r0, r0, r2
    d948:	00000002 	andeq	r0, r0, r2
    d94c:	00007370 	andeq	r7, r0, r0, ror r3
	...
    d978:	00000001 	andeq	r0, r0, r1
    d97c:	00000032 	andeq	r0, r0, r2, lsr r0
    d980:	00746163 	rsbeqs	r6, r4, r3, ror #2
    d984:	00000000 	andeq	r0, r0, r0
    d988:	69660000 	stmvsdb	r6!, {}^
    d98c:	616e656c 	cmnvs	lr, ip, ror #10
    d990:	2e20656d 	cdpcs	5, 2, cr6, cr0, cr13, {3}
    d994:	00002e2e 	andeq	r2, r0, lr, lsr #28
	...
    d9ac:	00000002 	andeq	r0, r0, r2
    d9b0:	00000032 	andeq	r0, r0, r2, lsr r0
    d9b4:	65746164 	ldrvsb	r6, [r4, -#356]!
    d9b8:	00000000 	andeq	r0, r0, r0
    d9bc:	61640000 	cmnvs	r4, r0
    d9c0:	5b206574 	blpl	826f98 <__bss_end__+0x818590>
    d9c4:	44444d4d 	strmib	r4, [r4], -#3405
    d9c8:	6d6d6868 	stcvsl	8, cr6, [sp, -#416]!
    d9cc:	5959595b 	ldmpldb	r9, {r0, r1, r3, r4, r6, r8, fp, ip, lr}^
    d9d0:	005d5d59 	subeqs	r5, sp, r9, asr sp
	...
    d9e0:	00000001 	andeq	r0, r0, r1
    d9e4:	00000002 	andeq	r0, r0, r2
	...

0000da1c <intcrlf>:
    da1c:	00000001 	andeq	r0, r0, r1

0000da20 <exit_code>:
    da20:	00000000 	andeq	r0, r0, r0

0000da24 <linelen>:
    da24:	00000000 	andeq	r0, r0, r0

0000da28 <master>:
    da28:	73727170 	cmnvc	r2, #28	; 0x1c
    da2c:	77767574 	undefined
    da30:	617a7978 	cmnvs	sl, r8, ror r9
    da34:	65646362 	strvsb	r6, [r4, -#866]!
    da38:	00000000 	andeq	r0, r0, r0

0000da3c <port_xlate>:
    da3c:	00000001 	andeq	r0, r0, r1
    da40:	00000003 	andeq	r0, r0, r3
    da44:	00000005 	andeq	r0, r0, r5
    da48:	00000007 	andeq	r0, r0, r7
    da4c:	00000009 	andeq	r0, r0, r9
    da50:	0000000b 	andeq	r0, r0, fp
    da54:	0000000d 	andeq	r0, r0, sp
    da58:	0000000f 	andeq	r0, r0, pc
    da5c:	00000002 	andeq	r0, r0, r2
    da60:	00000004 	andeq	r0, r0, r4
    da64:	00000006 	andeq	r0, r0, r6
    da68:	00000008 	andeq	r0, r0, r8
    da6c:	0000000a 	andeq	r0, r0, sl
    da70:	0000000c 	andeq	r0, r0, ip
    da74:	0000000e 	andeq	r0, r0, lr
    da78:	00000010 	andeq	r0, r0, r0, lsl r0

0000da7c <__environ>:
    da7c:	00000000 	andeq	r0, r0, r0

0000da80 <been_there_done_that.0>:
    da80:	00000000 	andeq	r0, r0, r0

0000da84 <daylight>:
    da84:	00000000 	andeq	r0, r0, r0

0000da88 <timezone>:
    da88:	00000000 	andeq	r0, r0, r0

0000da8c <tzname>:
    da8c:	00000a5b 	andeq	r0, r0, fp, asr sl
    da90:	00000a5a 	andeq	r0, r0, sl, asr sl

0000da94 <_time_tzlock>:
	...
    daa0:	00000001 	andeq	r0, r0, r1
	...

0000daac <mylock>:
	...

0000dac4 <line_buff>:
    dac4:	00000000 	andeq	r0, r0, r0

0000dac8 <members>:
    dac8:	00000000 	andeq	r0, r0, r0

0000dacc <_stdio_streams>:
    dacc:	00000120 	andeq	r0, r0, r0, lsr #2
    dad0:	00000000 	andeq	r0, r0, r0
    dad4:	00002030 	andeq	r2, r0, r0, lsr r0
    dad8:	000006e8 	andeq	r0, r0, r8, ror #13
    dadc:	000007e8 	andeq	r0, r0, r8, ror #15
    dae0:	000006e8 	andeq	r0, r0, r8, ror #13
    dae4:	000006e8 	andeq	r0, r0, r8, ror #13
    dae8:	000006e8 	andeq	r0, r0, r8, ror #13
    daec:	000006e8 	andeq	r0, r0, r8, ror #13
    daf0:	00001fe0 	andeq	r1, r0, r0, ror #31
	...
    db14:	00000001 	andeq	r0, r0, r1
	...
    db20:	00000110 	andeq	r0, r0, r0, lsl r1
    db24:	00000001 	andeq	r0, r0, r1
    db28:	00002084 	andeq	r2, r0, r4, lsl #1
    db2c:	000007e8 	andeq	r0, r0, r8, ror #15
    db30:	000008e8 	andeq	r0, r0, r8, ror #17
    db34:	000007e8 	andeq	r0, r0, r8, ror #15
    db38:	000007e8 	andeq	r0, r0, r8, ror #15
    db3c:	000007e8 	andeq	r0, r0, r8, ror #15
    db40:	000007e8 	andeq	r0, r0, r8, ror #15
    db44:	00002034 	andeq	r2, r0, r4, lsr r0
	...
    db68:	00000001 	andeq	r0, r0, r1
	...
    db74:	00000210 	andeq	r0, r0, r0, lsl r2
    db78:	00000002 	andeq	r0, r0, r2
	...
    db98:	00002088 	andeq	r2, r0, r8, lsl #1
	...
    dbbc:	00000001 	andeq	r0, r0, r1
	...

0000dbc8 <stdin>:
    dbc8:	00001fdc 	ldreqd	r1, [r0], -ip

0000dbcc <stdout>:
    dbcc:	00002030 	andeq	r2, r0, r0, lsr r0

0000dbd0 <stderr>:
    dbd0:	00002084 	andeq	r2, r0, r4, lsl #1

0000dbd4 <_stdio_openlist>:
    dbd4:	00001fdc 	ldreqd	r1, [r0], -ip

0000dbd8 <_stdio_openlist_lock>:
	...
    dbe4:	00000001 	andeq	r0, r0, r1
	...

0000dbf0 <__exit_count>:
    dbf0:	00000000 	andeq	r0, r0, r0

0000dbf4 <__exit_function_table>:
    dbf4:	00000000 	andeq	r0, r0, r0

0000dbf8 <__exit_slots>:
    dbf8:	00000000 	andeq	r0, r0, r0

0000dbfc <__exit_cleanup>:
    dbfc:	00000000 	andeq	r0, r0, r0

0000dc00 <mylock>:
	...
    dc0c:	00000001 	andeq	r0, r0, r1
	...

0000dc18 <been_there_done_that>:
    dc18:	00000000 	andeq	r0, r0, r0

0000dc1c <mylock>:
	...
    dc28:	00000001 	andeq	r0, r0, r1
	...

0000dc34 <mylock>:
	...

0000dc4c <__malloc_sbrk_lock>:
	...

0000dc64 <__lock_free_list>:
	...

0000dc7c <__malloc_free_list>:
    dc7c:	00000000 	andeq	r0, r0, r0

0000dc80 <__malloc_sbrk_lock>:
	...

0000dc98 <__lock_free_list>:
	...

0000dcb0 <__malloc_sbrk_lock>:
	...

0000dcc8 <__lock_free_list>:
	...

0000dce0 <___brk_addr>:
    dce0:	00000000 	andeq	r0, r0, r0

0000dce4 <_errno>:
    dce4:	00000000 	andeq	r0, r0, r0

0000dce8 <_h_errno>:
    dce8:	00000000 	andeq	r0, r0, r0

0000dcec <__getgrent_lock>:
	...

0000dd04 <_custom_printf_spec>:
    dd04:	00000938 	andeq	r0, r0, r8, lsr r9
	...
